
mos:	file format elf32-mips

Disassembly of section .text:

80020000 <.text>:
80020000: 03 80 02 3c  	lui	$2, 0x8003
80020004: 08 30 42 24  	addiu	$2, $2, 0x3008
80020008: 03 80 03 3c  	lui	$3, 0x8003
8002000c: 1c 30 63 24  	addiu	$3, $3, 0x301c
80020010: 05 00 43 10  	beq	$2, $3, 0x80020028 <.text+0x28>
80020014: 00 00 00 00  	nop
80020018: 00 00 40 a0  	sb	$zero, 0x0($2)
8002001c: 01 00 42 24  	addiu	$2, $2, 0x1
80020020: 04 80 00 08  	j	0x20010 <.text+0x10>
80020024: 00 00 00 00  	nop
80020028: 00 60 80 40  	mtc0	$zero, $12, 0x0
8002002c: 40 80 1d 3c  	lui	$sp, 0x8040
80020030: 08 86 00 0c  	jal	0x21820 <.text+0x1820>
80020034: 00 00 00 00  	nop
80020038: 01 00 17 04  	<unknown>
8002003c: 01 00 17 04  	<unknown>
80020040: 01 00 17 04  	<unknown>
80020044: 01 00 17 04  	<unknown>
80020048: 01 00 17 04  	<unknown>
8002004c: 01 00 17 04  	<unknown>
80020050: 01 00 17 04  	<unknown>
80020054: 01 00 17 04  	<unknown>
80020058: 01 00 17 04  	<unknown>
8002005c: 01 00 17 04  	<unknown>
80020060: 01 00 17 04  	<unknown>
80020064: 01 00 17 04  	<unknown>
80020068: 01 00 17 04  	<unknown>
8002006c: 01 00 17 04  	<unknown>
80020070: 01 00 17 04  	<unknown>
80020074: 01 00 17 04  	<unknown>
80020078: 01 00 17 04  	<unknown>
8002007c: 01 00 17 04  	<unknown>
80020080: 01 00 17 04  	<unknown>
80020084: 01 00 17 04  	<unknown>
80020088: 01 00 17 04  	<unknown>
8002008c: 01 00 17 04  	<unknown>
80020090: 01 00 17 04  	<unknown>
80020094: 01 00 17 04  	<unknown>
80020098: 01 00 17 04  	<unknown>
8002009c: 01 00 17 04  	<unknown>
800200a0: 01 00 17 04  	<unknown>
800200a4: 01 00 17 04  	<unknown>
800200a8: 01 00 17 04  	<unknown>
800200ac: 01 00 17 04  	<unknown>
800200b0: 01 00 17 04  	<unknown>
800200b4: 01 00 17 04  	<unknown>
800200b8: 01 00 17 04  	<unknown>
800200bc: 01 00 17 04  	<unknown>
800200c0: 01 00 17 04  	<unknown>
800200c4: 01 00 17 04  	<unknown>
800200c8: 01 00 17 04  	<unknown>
800200cc: 01 00 17 04  	<unknown>
800200d0: 01 00 17 04  	<unknown>
800200d4: 01 00 17 04  	<unknown>
800200d8: 01 00 17 04  	<unknown>
800200dc: 01 00 17 04  	<unknown>
800200e0: 01 00 17 04  	<unknown>
800200e4: 01 00 17 04  	<unknown>
800200e8: 01 00 17 04  	<unknown>
800200ec: 01 00 17 04  	<unknown>
800200f0: 01 00 17 04  	<unknown>
800200f4: 01 00 17 04  	<unknown>
800200f8: 01 00 17 04  	<unknown>
800200fc: 01 00 17 04  	<unknown>
80020100: 01 00 17 04  	<unknown>
80020104: 01 00 17 04  	<unknown>
80020108: 01 00 17 04  	<unknown>
8002010c: 01 00 17 04  	<unknown>
80020110: 01 00 17 04  	<unknown>
80020114: 01 00 17 04  	<unknown>
80020118: 01 00 17 04  	<unknown>
8002011c: 01 00 17 04  	<unknown>
80020120: 01 00 17 04  	<unknown>
80020124: 01 00 17 04  	<unknown>
80020128: 01 00 17 04  	<unknown>
8002012c: 01 00 17 04  	<unknown>
80020130: 01 00 17 04  	<unknown>
80020134: 01 00 17 04  	<unknown>
80020138: 01 00 17 04  	<unknown>
8002013c: 01 00 17 04  	<unknown>
80020140: 01 00 17 04  	<unknown>
80020144: 01 00 17 04  	<unknown>
80020148: 01 00 17 04  	<unknown>
8002014c: 01 00 17 04  	<unknown>
80020150: 01 00 17 04  	<unknown>
80020154: 01 00 17 04  	<unknown>
80020158: 01 00 17 04  	<unknown>
8002015c: 01 00 17 04  	<unknown>
80020160: 01 00 17 04  	<unknown>
80020164: 01 00 17 04  	<unknown>
80020168: 01 00 17 04  	<unknown>
8002016c: 01 00 17 04  	<unknown>
80020170: 01 00 17 04  	<unknown>
80020174: 01 00 17 04  	<unknown>
80020178: 01 00 17 04  	<unknown>
8002017c: 01 00 17 04  	<unknown>
80020180: 01 00 17 04  	<unknown>
80020184: 01 00 17 04  	<unknown>
80020188: 01 00 17 04  	<unknown>
8002018c: 01 00 17 04  	<unknown>
80020190: 01 00 17 04  	<unknown>
80020194: 01 00 17 04  	<unknown>
80020198: 01 00 17 04  	<unknown>
8002019c: 01 00 17 04  	<unknown>
800201a0: 01 00 17 04  	<unknown>
800201a4: 01 00 17 04  	<unknown>
800201a8: 01 00 17 04  	<unknown>
800201ac: 01 00 17 04  	<unknown>
800201b0: 01 00 17 04  	<unknown>
800201b4: 01 00 17 04  	<unknown>
800201b8: 01 00 17 04  	<unknown>
800201bc: 01 00 17 04  	<unknown>
800201c0: 01 00 17 04  	<unknown>
800201c4: 01 00 17 04  	<unknown>
800201c8: 01 00 17 04  	<unknown>
800201cc: 01 00 17 04  	<unknown>
800201d0: 01 00 17 04  	<unknown>
800201d4: 01 00 17 04  	<unknown>
800201d8: 01 00 17 04  	<unknown>
800201dc: 01 00 17 04  	<unknown>
800201e0: 01 00 17 04  	<unknown>
800201e4: 01 00 17 04  	<unknown>
800201e8: 01 00 17 04  	<unknown>
800201ec: 01 00 17 04  	<unknown>
800201f0: 01 00 17 04  	<unknown>
800201f4: 01 00 17 04  	<unknown>
800201f8: 01 00 17 04  	<unknown>
800201fc: 01 00 17 04  	<unknown>
80020200: 01 00 17 04  	<unknown>
80020204: 01 00 17 04  	<unknown>
80020208: 01 00 17 04  	<unknown>
8002020c: 01 00 17 04  	<unknown>
80020210: 01 00 17 04  	<unknown>
80020214: 01 00 17 04  	<unknown>
80020218: 01 00 17 04  	<unknown>
8002021c: 01 00 17 04  	<unknown>
80020220: 01 00 17 04  	<unknown>
80020224: 01 00 17 04  	<unknown>
80020228: 01 00 17 04  	<unknown>
8002022c: 01 00 17 04  	<unknown>
80020230: 01 00 17 04  	<unknown>
80020234: 01 00 17 04  	<unknown>
80020238: 01 00 17 04  	<unknown>
8002023c: 01 00 17 04  	<unknown>
80020240: 01 00 17 04  	<unknown>
80020244: 01 00 17 04  	<unknown>
80020248: 01 00 17 04  	<unknown>
8002024c: 01 00 17 04  	<unknown>
80020250: 01 00 17 04  	<unknown>
80020254: 01 00 17 04  	<unknown>
80020258: 01 00 17 04  	<unknown>
8002025c: 01 00 17 04  	<unknown>
80020260: 01 00 17 04  	<unknown>
80020264: 01 00 17 04  	<unknown>
80020268: 01 00 17 04  	<unknown>
8002026c: 01 00 17 04  	<unknown>
80020270: 01 00 17 04  	<unknown>
80020274: 01 00 17 04  	<unknown>
80020278: 01 00 17 04  	<unknown>
8002027c: 01 00 17 04  	<unknown>
80020280: 01 00 17 04  	<unknown>
80020284: 01 00 17 04  	<unknown>
80020288: 01 00 17 04  	<unknown>
8002028c: 01 00 17 04  	<unknown>
80020290: 01 00 17 04  	<unknown>
80020294: 01 00 17 04  	<unknown>
80020298: 01 00 17 04  	<unknown>
8002029c: 01 00 17 04  	<unknown>
800202a0: 01 00 17 04  	<unknown>
800202a4: 01 00 17 04  	<unknown>
800202a8: 01 00 17 04  	<unknown>
800202ac: 01 00 17 04  	<unknown>
800202b0: 01 00 17 04  	<unknown>
800202b4: 01 00 17 04  	<unknown>
800202b8: 01 00 17 04  	<unknown>
800202bc: 01 00 17 04  	<unknown>
800202c0: 01 00 17 04  	<unknown>
800202c4: 01 00 17 04  	<unknown>
800202c8: 01 00 17 04  	<unknown>
800202cc: 01 00 17 04  	<unknown>
800202d0: 01 00 17 04  	<unknown>
800202d4: 01 00 17 04  	<unknown>
800202d8: 01 00 17 04  	<unknown>
800202dc: 01 00 17 04  	<unknown>
800202e0: 01 00 17 04  	<unknown>
800202e4: 01 00 17 04  	<unknown>
800202e8: 01 00 17 04  	<unknown>
800202ec: 01 00 17 04  	<unknown>
800202f0: 01 00 17 04  	<unknown>
800202f4: 01 00 17 04  	<unknown>
800202f8: 01 00 17 04  	<unknown>
800202fc: 01 00 17 04  	<unknown>
80020300: 01 00 17 04  	<unknown>
80020304: 01 00 17 04  	<unknown>
80020308: 01 00 17 04  	<unknown>
8002030c: 01 00 17 04  	<unknown>
80020310: 01 00 17 04  	<unknown>
80020314: 01 00 17 04  	<unknown>
80020318: 01 00 17 04  	<unknown>
8002031c: 01 00 17 04  	<unknown>
80020320: 01 00 17 04  	<unknown>
80020324: 01 00 17 04  	<unknown>
80020328: 01 00 17 04  	<unknown>
8002032c: 01 00 17 04  	<unknown>
80020330: 01 00 17 04  	<unknown>
80020334: 01 00 17 04  	<unknown>
80020338: 01 00 17 04  	<unknown>
8002033c: 01 00 17 04  	<unknown>
80020340: 01 00 17 04  	<unknown>
80020344: 01 00 17 04  	<unknown>
80020348: 01 00 17 04  	<unknown>
8002034c: 01 00 17 04  	<unknown>
80020350: 01 00 17 04  	<unknown>
80020354: 01 00 17 04  	<unknown>
80020358: 01 00 17 04  	<unknown>
8002035c: 01 00 17 04  	<unknown>
80020360: 01 00 17 04  	<unknown>
80020364: 01 00 17 04  	<unknown>
80020368: 01 00 17 04  	<unknown>
8002036c: 01 00 17 04  	<unknown>
80020370: 01 00 17 04  	<unknown>
80020374: 01 00 17 04  	<unknown>
80020378: 01 00 17 04  	<unknown>
8002037c: 01 00 17 04  	<unknown>
80020380: 01 00 17 04  	<unknown>
80020384: 01 00 17 04  	<unknown>
80020388: 01 00 17 04  	<unknown>
8002038c: 01 00 17 04  	<unknown>
80020390: 01 00 17 04  	<unknown>
80020394: 01 00 17 04  	<unknown>
80020398: 01 00 17 04  	<unknown>
8002039c: 01 00 17 04  	<unknown>
800203a0: 01 00 17 04  	<unknown>
800203a4: 01 00 17 04  	<unknown>
800203a8: 01 00 17 04  	<unknown>
800203ac: 01 00 17 04  	<unknown>
800203b0: 01 00 17 04  	<unknown>
800203b4: 01 00 17 04  	<unknown>
800203b8: 01 00 17 04  	<unknown>
800203bc: 01 00 17 04  	<unknown>
800203c0: 01 00 17 04  	<unknown>
800203c4: 01 00 17 04  	<unknown>
800203c8: 01 00 17 04  	<unknown>
800203cc: 01 00 17 04  	<unknown>
800203d0: 01 00 17 04  	<unknown>
800203d4: 01 00 17 04  	<unknown>
800203d8: 01 00 17 04  	<unknown>
800203dc: 01 00 17 04  	<unknown>
800203e0: 01 00 17 04  	<unknown>
800203e4: 01 00 17 04  	<unknown>
800203e8: 01 00 17 04  	<unknown>
800203ec: 01 00 17 04  	<unknown>
800203f0: 01 00 17 04  	<unknown>
800203f4: 01 00 17 04  	<unknown>
800203f8: 01 00 17 04  	<unknown>
800203fc: 01 00 17 04  	<unknown>
80020400: 01 00 17 04  	<unknown>
80020404: 01 00 17 04  	<unknown>
80020408: 01 00 17 04  	<unknown>
8002040c: 01 00 17 04  	<unknown>
80020410: 01 00 17 04  	<unknown>
80020414: 01 00 17 04  	<unknown>
80020418: 01 00 17 04  	<unknown>
8002041c: 01 00 17 04  	<unknown>
80020420: 01 00 17 04  	<unknown>
80020424: 01 00 17 04  	<unknown>
80020428: 01 00 17 04  	<unknown>
8002042c: 01 00 17 04  	<unknown>
80020430: 01 00 17 04  	<unknown>
80020434: 01 00 17 04  	<unknown>
80020438: 01 00 17 04  	<unknown>
8002043c: 01 00 17 04  	<unknown>
80020440: 01 00 17 04  	<unknown>
80020444: 01 00 17 04  	<unknown>
80020448: 01 00 17 04  	<unknown>
8002044c: 01 00 17 04  	<unknown>
80020450: 01 00 17 04  	<unknown>
80020454: 01 00 17 04  	<unknown>
80020458: 01 00 17 04  	<unknown>
8002045c: 01 00 17 04  	<unknown>
80020460: 01 00 17 04  	<unknown>
80020464: 01 00 17 04  	<unknown>
80020468: 01 00 17 04  	<unknown>
8002046c: 01 00 17 04  	<unknown>
80020470: 01 00 17 04  	<unknown>
80020474: 01 00 17 04  	<unknown>
80020478: 01 00 17 04  	<unknown>
8002047c: 01 00 17 04  	<unknown>
80020480: 01 00 17 04  	<unknown>
80020484: 01 00 17 04  	<unknown>
80020488: 01 00 17 04  	<unknown>
8002048c: 01 00 17 04  	<unknown>
80020490: 01 00 17 04  	<unknown>
80020494: 01 00 17 04  	<unknown>
80020498: 01 00 17 04  	<unknown>
8002049c: 01 00 17 04  	<unknown>
800204a0: 01 00 17 04  	<unknown>
800204a4: 01 00 17 04  	<unknown>
800204a8: 01 00 17 04  	<unknown>
800204ac: 01 00 17 04  	<unknown>
800204b0: 01 00 17 04  	<unknown>
800204b4: 01 00 17 04  	<unknown>
800204b8: 01 00 17 04  	<unknown>
800204bc: 01 00 17 04  	<unknown>
800204c0: 01 00 17 04  	<unknown>
800204c4: 01 00 17 04  	<unknown>
800204c8: 01 00 17 04  	<unknown>
800204cc: 01 00 17 04  	<unknown>
800204d0: 01 00 17 04  	<unknown>
800204d4: 01 00 17 04  	<unknown>
800204d8: 01 00 17 04  	<unknown>
800204dc: 01 00 17 04  	<unknown>
800204e0: 01 00 17 04  	<unknown>
800204e4: 01 00 17 04  	<unknown>
800204e8: 01 00 17 04  	<unknown>
800204ec: 01 00 17 04  	<unknown>
800204f0: 01 00 17 04  	<unknown>
800204f4: 01 00 17 04  	<unknown>
800204f8: 01 00 17 04  	<unknown>
800204fc: 01 00 17 04  	<unknown>
80020500: 01 00 17 04  	<unknown>
80020504: 01 00 17 04  	<unknown>
80020508: 01 00 17 04  	<unknown>
8002050c: 01 00 17 04  	<unknown>
80020510: 01 00 17 04  	<unknown>
80020514: 01 00 17 04  	<unknown>
80020518: 01 00 17 04  	<unknown>
8002051c: 01 00 17 04  	<unknown>
80020520: 01 00 17 04  	<unknown>
80020524: 01 00 17 04  	<unknown>
80020528: 01 00 17 04  	<unknown>
8002052c: 01 00 17 04  	<unknown>
80020530: 01 00 17 04  	<unknown>
80020534: 01 00 17 04  	<unknown>
80020538: 01 00 17 04  	<unknown>
8002053c: 01 00 17 04  	<unknown>
80020540: 01 00 17 04  	<unknown>
80020544: 01 00 17 04  	<unknown>
80020548: 01 00 17 04  	<unknown>
8002054c: 01 00 17 04  	<unknown>
80020550: 01 00 17 04  	<unknown>
80020554: 01 00 17 04  	<unknown>
80020558: 01 00 17 04  	<unknown>
8002055c: 01 00 17 04  	<unknown>
80020560: 01 00 17 04  	<unknown>
80020564: 01 00 17 04  	<unknown>
80020568: 01 00 17 04  	<unknown>
8002056c: 01 00 17 04  	<unknown>
80020570: 01 00 17 04  	<unknown>
80020574: 01 00 17 04  	<unknown>
80020578: 01 00 17 04  	<unknown>
8002057c: 01 00 17 04  	<unknown>
80020580: 01 00 17 04  	<unknown>
80020584: 01 00 17 04  	<unknown>
80020588: 01 00 17 04  	<unknown>
8002058c: 01 00 17 04  	<unknown>
80020590: 01 00 17 04  	<unknown>
80020594: 01 00 17 04  	<unknown>
80020598: 01 00 17 04  	<unknown>
8002059c: 01 00 17 04  	<unknown>
800205a0: 01 00 17 04  	<unknown>
800205a4: 01 00 17 04  	<unknown>
800205a8: 01 00 17 04  	<unknown>
800205ac: 01 00 17 04  	<unknown>
800205b0: 01 00 17 04  	<unknown>
800205b4: 01 00 17 04  	<unknown>
800205b8: 01 00 17 04  	<unknown>
800205bc: 01 00 17 04  	<unknown>
800205c0: 01 00 17 04  	<unknown>
800205c4: 01 00 17 04  	<unknown>
800205c8: 01 00 17 04  	<unknown>
800205cc: 01 00 17 04  	<unknown>
800205d0: 01 00 17 04  	<unknown>
800205d4: 01 00 17 04  	<unknown>
800205d8: 01 00 17 04  	<unknown>
800205dc: 01 00 17 04  	<unknown>
800205e0: 01 00 17 04  	<unknown>
800205e4: 01 00 17 04  	<unknown>
800205e8: 01 00 17 04  	<unknown>
800205ec: 01 00 17 04  	<unknown>
800205f0: 01 00 17 04  	<unknown>
800205f4: 01 00 17 04  	<unknown>
800205f8: 01 00 17 04  	<unknown>
800205fc: 01 00 17 04  	<unknown>
80020600: 01 00 17 04  	<unknown>
80020604: 01 00 17 04  	<unknown>
80020608: 01 00 17 04  	<unknown>
8002060c: 01 00 17 04  	<unknown>
80020610: 01 00 17 04  	<unknown>
80020614: 01 00 17 04  	<unknown>
80020618: 01 00 17 04  	<unknown>
8002061c: 01 00 17 04  	<unknown>
80020620: 01 00 17 04  	<unknown>
80020624: 01 00 17 04  	<unknown>
80020628: 01 00 17 04  	<unknown>
8002062c: 01 00 17 04  	<unknown>
80020630: 01 00 17 04  	<unknown>
80020634: 01 00 17 04  	<unknown>
80020638: 01 00 17 04  	<unknown>
8002063c: 01 00 17 04  	<unknown>
80020640: 01 00 17 04  	<unknown>
80020644: 01 00 17 04  	<unknown>
80020648: 01 00 17 04  	<unknown>
8002064c: 01 00 17 04  	<unknown>
80020650: 01 00 17 04  	<unknown>
80020654: 01 00 17 04  	<unknown>
80020658: 01 00 17 04  	<unknown>
8002065c: 01 00 17 04  	<unknown>
80020660: 01 00 17 04  	<unknown>
80020664: 01 00 17 04  	<unknown>
80020668: 01 00 17 04  	<unknown>
8002066c: 01 00 17 04  	<unknown>
80020670: 01 00 17 04  	<unknown>
80020674: 01 00 17 04  	<unknown>
80020678: 01 00 17 04  	<unknown>
8002067c: 01 00 17 04  	<unknown>
80020680: 01 00 17 04  	<unknown>
80020684: 01 00 17 04  	<unknown>
80020688: 01 00 17 04  	<unknown>
8002068c: 01 00 17 04  	<unknown>
80020690: 01 00 17 04  	<unknown>
80020694: 01 00 17 04  	<unknown>
80020698: 01 00 17 04  	<unknown>
8002069c: 01 00 17 04  	<unknown>
800206a0: 01 00 17 04  	<unknown>
800206a4: 01 00 17 04  	<unknown>
800206a8: 01 00 17 04  	<unknown>
800206ac: 01 00 17 04  	<unknown>
800206b0: 01 00 17 04  	<unknown>
800206b4: 01 00 17 04  	<unknown>
800206b8: 01 00 17 04  	<unknown>
800206bc: 01 00 17 04  	<unknown>
800206c0: 01 00 17 04  	<unknown>
800206c4: 01 00 17 04  	<unknown>
800206c8: 01 00 17 04  	<unknown>
800206cc: 01 00 17 04  	<unknown>
800206d0: 01 00 17 04  	<unknown>
800206d4: 01 00 17 04  	<unknown>
800206d8: 01 00 17 04  	<unknown>
800206dc: 01 00 17 04  	<unknown>
800206e0: 01 00 17 04  	<unknown>
800206e4: 01 00 17 04  	<unknown>
800206e8: 01 00 17 04  	<unknown>
800206ec: 01 00 17 04  	<unknown>
800206f0: 01 00 17 04  	<unknown>
800206f4: 01 00 17 04  	<unknown>
800206f8: 01 00 17 04  	<unknown>
800206fc: 01 00 17 04  	<unknown>
80020700: 01 00 17 04  	<unknown>
80020704: 01 00 17 04  	<unknown>
80020708: 01 00 17 04  	<unknown>
8002070c: 01 00 17 04  	<unknown>
80020710: 01 00 17 04  	<unknown>
80020714: 01 00 17 04  	<unknown>
80020718: 01 00 17 04  	<unknown>
8002071c: 01 00 17 04  	<unknown>
80020720: 01 00 17 04  	<unknown>
80020724: 01 00 17 04  	<unknown>
80020728: 01 00 17 04  	<unknown>
8002072c: 01 00 17 04  	<unknown>
80020730: 01 00 17 04  	<unknown>
80020734: 01 00 17 04  	<unknown>
80020738: 01 00 17 04  	<unknown>
8002073c: 01 00 17 04  	<unknown>
80020740: 01 00 17 04  	<unknown>
80020744: 01 00 17 04  	<unknown>
80020748: 01 00 17 04  	<unknown>
8002074c: 01 00 17 04  	<unknown>
80020750: 01 00 17 04  	<unknown>
80020754: 01 00 17 04  	<unknown>
80020758: 01 00 17 04  	<unknown>
8002075c: 01 00 17 04  	<unknown>
80020760: 01 00 17 04  	<unknown>
80020764: 01 00 17 04  	<unknown>
80020768: 01 00 17 04  	<unknown>
8002076c: 01 00 17 04  	<unknown>
80020770: 01 00 17 04  	<unknown>
80020774: 01 00 17 04  	<unknown>
80020778: 01 00 17 04  	<unknown>
8002077c: 01 00 17 04  	<unknown>
80020780: 01 00 17 04  	<unknown>
80020784: 01 00 17 04  	<unknown>
80020788: 01 00 17 04  	<unknown>
8002078c: 01 00 17 04  	<unknown>
80020790: 01 00 17 04  	<unknown>
80020794: 01 00 17 04  	<unknown>
80020798: 01 00 17 04  	<unknown>
8002079c: 01 00 17 04  	<unknown>
800207a0: 01 00 17 04  	<unknown>
800207a4: 01 00 17 04  	<unknown>
800207a8: 01 00 17 04  	<unknown>
800207ac: 01 00 17 04  	<unknown>
800207b0: 01 00 17 04  	<unknown>
800207b4: 01 00 17 04  	<unknown>
800207b8: 01 00 17 04  	<unknown>
800207bc: 01 00 17 04  	<unknown>
800207c0: 01 00 17 04  	<unknown>
800207c4: 01 00 17 04  	<unknown>
800207c8: 01 00 17 04  	<unknown>
800207cc: 01 00 17 04  	<unknown>
800207d0: 01 00 17 04  	<unknown>
800207d4: 01 00 17 04  	<unknown>
800207d8: 01 00 17 04  	<unknown>
800207dc: 01 00 17 04  	<unknown>
800207e0: 01 00 17 04  	<unknown>
800207e4: 01 00 17 04  	<unknown>
800207e8: 01 00 17 04  	<unknown>
800207ec: 01 00 17 04  	<unknown>
800207f0: 01 00 17 04  	<unknown>
800207f4: 01 00 17 04  	<unknown>
800207f8: 01 00 17 04  	<unknown>
800207fc: 01 00 17 04  	<unknown>
80020800: 01 00 17 04  	<unknown>
80020804: 01 00 17 04  	<unknown>
80020808: 01 00 17 04  	<unknown>
8002080c: 01 00 17 04  	<unknown>
80020810: 01 00 17 04  	<unknown>
80020814: 01 00 17 04  	<unknown>
80020818: 01 00 17 04  	<unknown>
8002081c: 01 00 17 04  	<unknown>
80020820: 01 00 17 04  	<unknown>
80020824: 01 00 17 04  	<unknown>
80020828: 01 00 17 04  	<unknown>
8002082c: 01 00 17 04  	<unknown>
80020830: 01 00 17 04  	<unknown>
80020834: 01 00 17 04  	<unknown>
80020838: 01 00 17 04  	<unknown>
8002083c: 01 00 17 04  	<unknown>
80020840: 01 00 17 04  	<unknown>
80020844: 01 00 17 04  	<unknown>
80020848: 01 00 17 04  	<unknown>
8002084c: 01 00 17 04  	<unknown>
80020850: 01 00 17 04  	<unknown>
80020854: 01 00 17 04  	<unknown>
80020858: 01 00 17 04  	<unknown>
8002085c: 01 00 17 04  	<unknown>
80020860: 01 00 17 04  	<unknown>
80020864: 01 00 17 04  	<unknown>
80020868: 01 00 17 04  	<unknown>
8002086c: 01 00 17 04  	<unknown>
80020870: 01 00 17 04  	<unknown>
80020874: 01 00 17 04  	<unknown>
80020878: 01 00 17 04  	<unknown>
8002087c: 01 00 17 04  	<unknown>
80020880: 01 00 17 04  	<unknown>
80020884: 01 00 17 04  	<unknown>
80020888: 01 00 17 04  	<unknown>
8002088c: 01 00 17 04  	<unknown>
80020890: 01 00 17 04  	<unknown>
80020894: 01 00 17 04  	<unknown>
80020898: 01 00 17 04  	<unknown>
8002089c: 01 00 17 04  	<unknown>
800208a0: 01 00 17 04  	<unknown>
800208a4: 01 00 17 04  	<unknown>
800208a8: 01 00 17 04  	<unknown>
800208ac: 01 00 17 04  	<unknown>
800208b0: 01 00 17 04  	<unknown>
800208b4: 01 00 17 04  	<unknown>
800208b8: 01 00 17 04  	<unknown>
800208bc: 01 00 17 04  	<unknown>
800208c0: 01 00 17 04  	<unknown>
800208c4: 01 00 17 04  	<unknown>
800208c8: 01 00 17 04  	<unknown>
800208cc: 01 00 17 04  	<unknown>
800208d0: 01 00 17 04  	<unknown>
800208d4: 01 00 17 04  	<unknown>
800208d8: 01 00 17 04  	<unknown>
800208dc: 01 00 17 04  	<unknown>
800208e0: 01 00 17 04  	<unknown>
800208e4: 01 00 17 04  	<unknown>
800208e8: 01 00 17 04  	<unknown>
800208ec: 01 00 17 04  	<unknown>
800208f0: 01 00 17 04  	<unknown>
800208f4: 01 00 17 04  	<unknown>
800208f8: 01 00 17 04  	<unknown>
800208fc: 01 00 17 04  	<unknown>
80020900: 01 00 17 04  	<unknown>
80020904: 01 00 17 04  	<unknown>
80020908: 01 00 17 04  	<unknown>
8002090c: 01 00 17 04  	<unknown>
80020910: 01 00 17 04  	<unknown>
80020914: 01 00 17 04  	<unknown>
80020918: 01 00 17 04  	<unknown>
8002091c: 01 00 17 04  	<unknown>
80020920: 01 00 17 04  	<unknown>
80020924: 01 00 17 04  	<unknown>
80020928: 01 00 17 04  	<unknown>
8002092c: 01 00 17 04  	<unknown>
80020930: 01 00 17 04  	<unknown>
80020934: 01 00 17 04  	<unknown>
80020938: 01 00 17 04  	<unknown>
8002093c: 01 00 17 04  	<unknown>
80020940: 01 00 17 04  	<unknown>
80020944: 01 00 17 04  	<unknown>
80020948: 01 00 17 04  	<unknown>
8002094c: 01 00 17 04  	<unknown>
80020950: 01 00 17 04  	<unknown>
80020954: 01 00 17 04  	<unknown>
80020958: 01 00 17 04  	<unknown>
8002095c: 01 00 17 04  	<unknown>
80020960: 01 00 17 04  	<unknown>
80020964: 01 00 17 04  	<unknown>
80020968: 01 00 17 04  	<unknown>
8002096c: 01 00 17 04  	<unknown>
80020970: 01 00 17 04  	<unknown>
80020974: 01 00 17 04  	<unknown>
80020978: 01 00 17 04  	<unknown>
8002097c: 01 00 17 04  	<unknown>
80020980: 01 00 17 04  	<unknown>
80020984: 01 00 17 04  	<unknown>
80020988: 01 00 17 04  	<unknown>
8002098c: 01 00 17 04  	<unknown>
80020990: 01 00 17 04  	<unknown>
80020994: 01 00 17 04  	<unknown>
80020998: 01 00 17 04  	<unknown>
8002099c: 01 00 17 04  	<unknown>
800209a0: 01 00 17 04  	<unknown>
800209a4: 01 00 17 04  	<unknown>
800209a8: 01 00 17 04  	<unknown>
800209ac: 01 00 17 04  	<unknown>
800209b0: 01 00 17 04  	<unknown>
800209b4: 01 00 17 04  	<unknown>
800209b8: 01 00 17 04  	<unknown>
800209bc: 01 00 17 04  	<unknown>
800209c0: 01 00 17 04  	<unknown>
800209c4: 01 00 17 04  	<unknown>
800209c8: 01 00 17 04  	<unknown>
800209cc: 01 00 17 04  	<unknown>
800209d0: 01 00 17 04  	<unknown>
800209d4: 01 00 17 04  	<unknown>
800209d8: 01 00 17 04  	<unknown>
800209dc: 01 00 17 04  	<unknown>
800209e0: 01 00 17 04  	<unknown>
800209e4: 01 00 17 04  	<unknown>
800209e8: 01 00 17 04  	<unknown>
800209ec: 01 00 17 04  	<unknown>
800209f0: 01 00 17 04  	<unknown>
800209f4: 01 00 17 04  	<unknown>
800209f8: 01 00 17 04  	<unknown>
800209fc: 01 00 17 04  	<unknown>
80020a00: 01 00 17 04  	<unknown>
80020a04: 01 00 17 04  	<unknown>
80020a08: 01 00 17 04  	<unknown>
80020a0c: 01 00 17 04  	<unknown>
80020a10: 01 00 17 04  	<unknown>
80020a14: 01 00 17 04  	<unknown>
80020a18: 01 00 17 04  	<unknown>
80020a1c: 01 00 17 04  	<unknown>
80020a20: 01 00 17 04  	<unknown>
80020a24: 01 00 17 04  	<unknown>
80020a28: 01 00 17 04  	<unknown>
80020a2c: 01 00 17 04  	<unknown>
80020a30: 01 00 17 04  	<unknown>
80020a34: 01 00 17 04  	<unknown>
80020a38: 01 00 17 04  	<unknown>
80020a3c: 01 00 17 04  	<unknown>
80020a40: 01 00 17 04  	<unknown>
80020a44: 01 00 17 04  	<unknown>
80020a48: 01 00 17 04  	<unknown>
80020a4c: 01 00 17 04  	<unknown>
80020a50: 01 00 17 04  	<unknown>
80020a54: 01 00 17 04  	<unknown>
80020a58: 01 00 17 04  	<unknown>
80020a5c: 01 00 17 04  	<unknown>
80020a60: 01 00 17 04  	<unknown>
80020a64: 01 00 17 04  	<unknown>
80020a68: 01 00 17 04  	<unknown>
80020a6c: 01 00 17 04  	<unknown>
80020a70: 01 00 17 04  	<unknown>
80020a74: 01 00 17 04  	<unknown>
80020a78: 01 00 17 04  	<unknown>
80020a7c: 01 00 17 04  	<unknown>
80020a80: 01 00 17 04  	<unknown>
80020a84: 01 00 17 04  	<unknown>
80020a88: 01 00 17 04  	<unknown>
80020a8c: 01 00 17 04  	<unknown>
80020a90: 01 00 17 04  	<unknown>
80020a94: 01 00 17 04  	<unknown>
80020a98: 01 00 17 04  	<unknown>
80020a9c: 01 00 17 04  	<unknown>
80020aa0: 01 00 17 04  	<unknown>
80020aa4: 01 00 17 04  	<unknown>
80020aa8: 01 00 17 04  	<unknown>
80020aac: 01 00 17 04  	<unknown>
80020ab0: 01 00 17 04  	<unknown>
80020ab4: 01 00 17 04  	<unknown>
80020ab8: 01 00 17 04  	<unknown>
80020abc: 01 00 17 04  	<unknown>
80020ac0: 01 00 17 04  	<unknown>
80020ac4: 01 00 17 04  	<unknown>
80020ac8: 01 00 17 04  	<unknown>
80020acc: 01 00 17 04  	<unknown>
80020ad0: 01 00 17 04  	<unknown>
80020ad4: 01 00 17 04  	<unknown>
80020ad8: 01 00 17 04  	<unknown>
80020adc: 01 00 17 04  	<unknown>
80020ae0: 01 00 17 04  	<unknown>
80020ae4: 01 00 17 04  	<unknown>
80020ae8: 01 00 17 04  	<unknown>
80020aec: 01 00 17 04  	<unknown>
80020af0: 01 00 17 04  	<unknown>
80020af4: 01 00 17 04  	<unknown>
80020af8: 01 00 17 04  	<unknown>
80020afc: 01 00 17 04  	<unknown>
80020b00: 01 00 17 04  	<unknown>
80020b04: 01 00 17 04  	<unknown>
80020b08: 01 00 17 04  	<unknown>
80020b0c: 01 00 17 04  	<unknown>
80020b10: 01 00 17 04  	<unknown>
80020b14: 01 00 17 04  	<unknown>
80020b18: 01 00 17 04  	<unknown>
80020b1c: 01 00 17 04  	<unknown>
80020b20: 01 00 17 04  	<unknown>
80020b24: 01 00 17 04  	<unknown>
80020b28: 01 00 17 04  	<unknown>
80020b2c: 01 00 17 04  	<unknown>
80020b30: 01 00 17 04  	<unknown>
80020b34: 01 00 17 04  	<unknown>
80020b38: 01 00 17 04  	<unknown>
80020b3c: 01 00 17 04  	<unknown>
80020b40: 01 00 17 04  	<unknown>
80020b44: 01 00 17 04  	<unknown>
80020b48: 01 00 17 04  	<unknown>
80020b4c: 01 00 17 04  	<unknown>
80020b50: 01 00 17 04  	<unknown>
80020b54: 01 00 17 04  	<unknown>
80020b58: 01 00 17 04  	<unknown>
80020b5c: 01 00 17 04  	<unknown>
80020b60: 01 00 17 04  	<unknown>
80020b64: 01 00 17 04  	<unknown>
80020b68: 01 00 17 04  	<unknown>
80020b6c: 01 00 17 04  	<unknown>
80020b70: 01 00 17 04  	<unknown>
80020b74: 01 00 17 04  	<unknown>
80020b78: 01 00 17 04  	<unknown>
80020b7c: 01 00 17 04  	<unknown>
80020b80: 01 00 17 04  	<unknown>
80020b84: 01 00 17 04  	<unknown>
80020b88: 01 00 17 04  	<unknown>
80020b8c: 01 00 17 04  	<unknown>
80020b90: 01 00 17 04  	<unknown>
80020b94: 01 00 17 04  	<unknown>
80020b98: 01 00 17 04  	<unknown>
80020b9c: 01 00 17 04  	<unknown>
80020ba0: 01 00 17 04  	<unknown>
80020ba4: 01 00 17 04  	<unknown>
80020ba8: 01 00 17 04  	<unknown>
80020bac: 01 00 17 04  	<unknown>
80020bb0: 01 00 17 04  	<unknown>
80020bb4: 01 00 17 04  	<unknown>
80020bb8: 01 00 17 04  	<unknown>
80020bbc: 01 00 17 04  	<unknown>
80020bc0: 01 00 17 04  	<unknown>
80020bc4: 01 00 17 04  	<unknown>
80020bc8: 01 00 17 04  	<unknown>
80020bcc: 01 00 17 04  	<unknown>
80020bd0: 01 00 17 04  	<unknown>
80020bd4: 01 00 17 04  	<unknown>
80020bd8: 01 00 17 04  	<unknown>
80020bdc: 01 00 17 04  	<unknown>
80020be0: 01 00 17 04  	<unknown>
80020be4: 01 00 17 04  	<unknown>
80020be8: 01 00 17 04  	<unknown>
80020bec: 01 00 17 04  	<unknown>
80020bf0: 01 00 17 04  	<unknown>
80020bf4: 01 00 17 04  	<unknown>
80020bf8: 01 00 17 04  	<unknown>
80020bfc: 01 00 17 04  	<unknown>
80020c00: 01 00 17 04  	<unknown>
80020c04: 01 00 17 04  	<unknown>
80020c08: 01 00 17 04  	<unknown>
80020c0c: 01 00 17 04  	<unknown>
80020c10: 01 00 17 04  	<unknown>
80020c14: 01 00 17 04  	<unknown>
80020c18: 01 00 17 04  	<unknown>
80020c1c: 01 00 17 04  	<unknown>
80020c20: 01 00 17 04  	<unknown>
80020c24: 01 00 17 04  	<unknown>
80020c28: 01 00 17 04  	<unknown>
80020c2c: 01 00 17 04  	<unknown>
80020c30: 01 00 17 04  	<unknown>
80020c34: 01 00 17 04  	<unknown>
80020c38: 01 00 17 04  	<unknown>
80020c3c: 01 00 17 04  	<unknown>
80020c40: 01 00 17 04  	<unknown>
80020c44: 01 00 17 04  	<unknown>
80020c48: 01 00 17 04  	<unknown>
80020c4c: 01 00 17 04  	<unknown>
80020c50: 01 00 17 04  	<unknown>
80020c54: 01 00 17 04  	<unknown>
80020c58: 01 00 17 04  	<unknown>
80020c5c: 01 00 17 04  	<unknown>
80020c60: 01 00 17 04  	<unknown>
80020c64: 01 00 17 04  	<unknown>
80020c68: 01 00 17 04  	<unknown>
80020c6c: 01 00 17 04  	<unknown>
80020c70: 01 00 17 04  	<unknown>
80020c74: 01 00 17 04  	<unknown>
80020c78: 01 00 17 04  	<unknown>
80020c7c: 01 00 17 04  	<unknown>
80020c80: 01 00 17 04  	<unknown>
80020c84: 01 00 17 04  	<unknown>
80020c88: 01 00 17 04  	<unknown>
80020c8c: 01 00 17 04  	<unknown>
80020c90: 01 00 17 04  	<unknown>
80020c94: 01 00 17 04  	<unknown>
80020c98: 01 00 17 04  	<unknown>
80020c9c: 01 00 17 04  	<unknown>
80020ca0: 01 00 17 04  	<unknown>
80020ca4: 01 00 17 04  	<unknown>
80020ca8: 01 00 17 04  	<unknown>
80020cac: 01 00 17 04  	<unknown>
80020cb0: 01 00 17 04  	<unknown>
80020cb4: 01 00 17 04  	<unknown>
80020cb8: 01 00 17 04  	<unknown>
80020cbc: 01 00 17 04  	<unknown>
80020cc0: 01 00 17 04  	<unknown>
80020cc4: 01 00 17 04  	<unknown>
80020cc8: 01 00 17 04  	<unknown>
80020ccc: 01 00 17 04  	<unknown>
80020cd0: 01 00 17 04  	<unknown>
80020cd4: 01 00 17 04  	<unknown>
80020cd8: 01 00 17 04  	<unknown>
80020cdc: 01 00 17 04  	<unknown>
80020ce0: 01 00 17 04  	<unknown>
80020ce4: 01 00 17 04  	<unknown>
80020ce8: 01 00 17 04  	<unknown>
80020cec: 01 00 17 04  	<unknown>
80020cf0: 01 00 17 04  	<unknown>
80020cf4: 01 00 17 04  	<unknown>
80020cf8: 01 00 17 04  	<unknown>
80020cfc: 01 00 17 04  	<unknown>
80020d00: 01 00 17 04  	<unknown>
80020d04: 01 00 17 04  	<unknown>
80020d08: 01 00 17 04  	<unknown>
80020d0c: 01 00 17 04  	<unknown>
80020d10: 01 00 17 04  	<unknown>
80020d14: 01 00 17 04  	<unknown>
80020d18: 01 00 17 04  	<unknown>
80020d1c: 01 00 17 04  	<unknown>
80020d20: 01 00 17 04  	<unknown>
80020d24: 01 00 17 04  	<unknown>
80020d28: 01 00 17 04  	<unknown>
80020d2c: 01 00 17 04  	<unknown>
80020d30: 01 00 17 04  	<unknown>
80020d34: 01 00 17 04  	<unknown>
80020d38: 01 00 17 04  	<unknown>
80020d3c: 01 00 17 04  	<unknown>
80020d40: 01 00 17 04  	<unknown>
80020d44: 01 00 17 04  	<unknown>
80020d48: 01 00 17 04  	<unknown>
80020d4c: 01 00 17 04  	<unknown>
80020d50: 01 00 17 04  	<unknown>
80020d54: 01 00 17 04  	<unknown>
80020d58: 01 00 17 04  	<unknown>
80020d5c: 01 00 17 04  	<unknown>
80020d60: 01 00 17 04  	<unknown>
80020d64: 01 00 17 04  	<unknown>
80020d68: 01 00 17 04  	<unknown>
80020d6c: 01 00 17 04  	<unknown>
80020d70: 01 00 17 04  	<unknown>
80020d74: 01 00 17 04  	<unknown>
80020d78: 01 00 17 04  	<unknown>
80020d7c: 01 00 17 04  	<unknown>
80020d80: 01 00 17 04  	<unknown>
80020d84: 01 00 17 04  	<unknown>
80020d88: 01 00 17 04  	<unknown>
80020d8c: 01 00 17 04  	<unknown>
80020d90: 01 00 17 04  	<unknown>
80020d94: 01 00 17 04  	<unknown>
80020d98: 01 00 17 04  	<unknown>
80020d9c: 01 00 17 04  	<unknown>
80020da0: 01 00 17 04  	<unknown>
80020da4: 01 00 17 04  	<unknown>
80020da8: 01 00 17 04  	<unknown>
80020dac: 01 00 17 04  	<unknown>
80020db0: 01 00 17 04  	<unknown>
80020db4: 01 00 17 04  	<unknown>
80020db8: 01 00 17 04  	<unknown>
80020dbc: 01 00 17 04  	<unknown>
80020dc0: 01 00 17 04  	<unknown>
80020dc4: 01 00 17 04  	<unknown>
80020dc8: 01 00 17 04  	<unknown>
80020dcc: 01 00 17 04  	<unknown>
80020dd0: 01 00 17 04  	<unknown>
80020dd4: 01 00 17 04  	<unknown>
80020dd8: 01 00 17 04  	<unknown>
80020ddc: 01 00 17 04  	<unknown>
80020de0: 01 00 17 04  	<unknown>
80020de4: 01 00 17 04  	<unknown>
80020de8: 01 00 17 04  	<unknown>
80020dec: 01 00 17 04  	<unknown>
80020df0: 01 00 17 04  	<unknown>
80020df4: 01 00 17 04  	<unknown>
80020df8: 01 00 17 04  	<unknown>
80020dfc: 01 00 17 04  	<unknown>
80020e00: 01 00 17 04  	<unknown>
80020e04: 01 00 17 04  	<unknown>
80020e08: 01 00 17 04  	<unknown>
80020e0c: 01 00 17 04  	<unknown>
80020e10: 01 00 17 04  	<unknown>
80020e14: 01 00 17 04  	<unknown>
80020e18: 01 00 17 04  	<unknown>
80020e1c: 01 00 17 04  	<unknown>
80020e20: 01 00 17 04  	<unknown>
80020e24: 01 00 17 04  	<unknown>
80020e28: 01 00 17 04  	<unknown>
80020e2c: 01 00 17 04  	<unknown>
80020e30: 01 00 17 04  	<unknown>
80020e34: 01 00 17 04  	<unknown>
80020e38: 01 00 17 04  	<unknown>
80020e3c: 01 00 17 04  	<unknown>
80020e40: 01 00 17 04  	<unknown>
80020e44: 01 00 17 04  	<unknown>
80020e48: 01 00 17 04  	<unknown>
80020e4c: 01 00 17 04  	<unknown>
80020e50: 01 00 17 04  	<unknown>
80020e54: 01 00 17 04  	<unknown>
80020e58: 01 00 17 04  	<unknown>
80020e5c: 01 00 17 04  	<unknown>
80020e60: 01 00 17 04  	<unknown>
80020e64: 01 00 17 04  	<unknown>
80020e68: 01 00 17 04  	<unknown>
80020e6c: 01 00 17 04  	<unknown>
80020e70: 01 00 17 04  	<unknown>
80020e74: 01 00 17 04  	<unknown>
80020e78: 01 00 17 04  	<unknown>
80020e7c: 01 00 17 04  	<unknown>
80020e80: 01 00 17 04  	<unknown>
80020e84: 01 00 17 04  	<unknown>
80020e88: 01 00 17 04  	<unknown>
80020e8c: 01 00 17 04  	<unknown>
80020e90: 01 00 17 04  	<unknown>
80020e94: 01 00 17 04  	<unknown>
80020e98: 01 00 17 04  	<unknown>
80020e9c: 01 00 17 04  	<unknown>
80020ea0: 01 00 17 04  	<unknown>
80020ea4: 01 00 17 04  	<unknown>
80020ea8: 01 00 17 04  	<unknown>
80020eac: 01 00 17 04  	<unknown>
80020eb0: 01 00 17 04  	<unknown>
80020eb4: 01 00 17 04  	<unknown>
80020eb8: 01 00 17 04  	<unknown>
80020ebc: 01 00 17 04  	<unknown>
80020ec0: 01 00 17 04  	<unknown>
80020ec4: 01 00 17 04  	<unknown>
80020ec8: 01 00 17 04  	<unknown>
80020ecc: 01 00 17 04  	<unknown>
80020ed0: 01 00 17 04  	<unknown>
80020ed4: 01 00 17 04  	<unknown>
80020ed8: 01 00 17 04  	<unknown>
80020edc: 01 00 17 04  	<unknown>
80020ee0: 01 00 17 04  	<unknown>
80020ee4: 01 00 17 04  	<unknown>
80020ee8: 01 00 17 04  	<unknown>
80020eec: 01 00 17 04  	<unknown>
80020ef0: 01 00 17 04  	<unknown>
80020ef4: 01 00 17 04  	<unknown>
80020ef8: 01 00 17 04  	<unknown>
80020efc: 01 00 17 04  	<unknown>
80020f00: 01 00 17 04  	<unknown>
80020f04: 01 00 17 04  	<unknown>
80020f08: 01 00 17 04  	<unknown>
80020f0c: 01 00 17 04  	<unknown>
80020f10: 01 00 17 04  	<unknown>
80020f14: 01 00 17 04  	<unknown>
80020f18: 01 00 17 04  	<unknown>
80020f1c: 01 00 17 04  	<unknown>
80020f20: 01 00 17 04  	<unknown>
80020f24: 01 00 17 04  	<unknown>
80020f28: 01 00 17 04  	<unknown>
80020f2c: 01 00 17 04  	<unknown>
80020f30: 01 00 17 04  	<unknown>
80020f34: 01 00 17 04  	<unknown>
80020f38: 01 00 17 04  	<unknown>
80020f3c: 01 00 17 04  	<unknown>
80020f40: 01 00 17 04  	<unknown>
80020f44: 01 00 17 04  	<unknown>
80020f48: 01 00 17 04  	<unknown>
80020f4c: 01 00 17 04  	<unknown>
80020f50: 01 00 17 04  	<unknown>
80020f54: 01 00 17 04  	<unknown>
80020f58: 01 00 17 04  	<unknown>
80020f5c: 01 00 17 04  	<unknown>
80020f60: 01 00 17 04  	<unknown>
80020f64: 01 00 17 04  	<unknown>
80020f68: 01 00 17 04  	<unknown>
80020f6c: 01 00 17 04  	<unknown>
80020f70: 01 00 17 04  	<unknown>
80020f74: 01 00 17 04  	<unknown>
80020f78: 01 00 17 04  	<unknown>
80020f7c: 01 00 17 04  	<unknown>
80020f80: 01 00 17 04  	<unknown>
80020f84: 01 00 17 04  	<unknown>
80020f88: 01 00 17 04  	<unknown>
80020f8c: 01 00 17 04  	<unknown>
80020f90: 01 00 17 04  	<unknown>
80020f94: 01 00 17 04  	<unknown>
80020f98: 01 00 17 04  	<unknown>
80020f9c: 01 00 17 04  	<unknown>
80020fa0: 01 00 17 04  	<unknown>
80020fa4: 01 00 17 04  	<unknown>
80020fa8: 01 00 17 04  	<unknown>
80020fac: 01 00 17 04  	<unknown>
80020fb0: 01 00 17 04  	<unknown>
80020fb4: 01 00 17 04  	<unknown>
80020fb8: 01 00 17 04  	<unknown>
80020fbc: 01 00 17 04  	<unknown>
80020fc0: 01 00 17 04  	<unknown>
80020fc4: 01 00 17 04  	<unknown>
80020fc8: 01 00 17 04  	<unknown>
80020fcc: 01 00 17 04  	<unknown>
80020fd0: 01 00 17 04  	<unknown>
80020fd4: 01 00 17 04  	<unknown>
80020fd8: 01 00 17 04  	<unknown>
80020fdc: 01 00 17 04  	<unknown>
80020fe0: 01 00 17 04  	<unknown>
80020fe4: 01 00 17 04  	<unknown>
80020fe8: 01 00 17 04  	<unknown>
80020fec: 01 00 17 04  	<unknown>
80020ff0: 01 00 17 04  	<unknown>
80020ff4: 01 00 17 04  	<unknown>
80020ff8: 01 00 17 04  	<unknown>
80020ffc: 01 00 17 04  	<unknown>
80021000: e0 ff bd 27  	addiu	$sp, $sp, -0x20
80021004: 1c 00 bf af  	sw	$ra, 0x1c($sp)
80021008: 18 00 be af  	sw	$fp, 0x18($sp)
8002100c: 25 f0 a0 03  	move	$fp, $sp
80021010: 10 00 c4 af  	sw	$4, 0x10($fp)
80021014: 14 00 c5 af  	sw	$5, 0x14($fp)
80021018: 00 00 84 8c  	lw	$4, 0x0($4)
8002101c: 9b 9a 00 0c  	jal	0x26a6c <.text+0x6a6c>
80021020: 00 00 00 00  	nop
80021024: 25 e8 c0 03  	move	$sp, $fp
80021028: 18 00 be 8f  	lw	$fp, 0x18($sp)
8002102c: 1c 00 bf 8f  	lw	$ra, 0x1c($sp)
80021030: 20 00 bd 27  	addiu	$sp, $sp, 0x20
80021034: 08 00 e0 03  	jr	$ra
80021038: 00 00 00 00  	nop
8002103c: e0 ff bd 27  	addiu	$sp, $sp, -0x20
80021040: 1c 00 bf af  	sw	$ra, 0x1c($sp)
80021044: 18 00 be af  	sw	$fp, 0x18($sp)
80021048: 25 f0 a0 03  	move	$fp, $sp
8002104c: 10 00 c4 af  	sw	$4, 0x10($fp)
80021050: 14 00 c5 af  	sw	$5, 0x14($fp)
80021054: 13 91 00 0c  	jal	0x2444c <.text+0x444c>
80021058: 00 00 00 00  	nop
8002105c: 25 e8 c0 03  	move	$sp, $fp
80021060: 18 00 be 8f  	lw	$fp, 0x18($sp)
80021064: 1c 00 bf 8f  	lw	$ra, 0x1c($sp)
80021068: 20 00 bd 27  	addiu	$sp, $sp, 0x20
8002106c: 08 00 e0 03  	jr	$ra
80021070: 00 00 00 00  	nop
80021074: d0 ff bd 27  	addiu	$sp, $sp, -0x30
80021078: 2c 00 bf af  	sw	$ra, 0x2c($sp)
8002107c: 28 00 be af  	sw	$fp, 0x28($sp)
80021080: 25 f0 a0 03  	move	$fp, $sp
80021084: 14 00 c5 af  	sw	$5, 0x14($fp)
80021088: 25 08 80 00  	move	$1, $4
8002108c: 14 00 c4 8f  	lw	$4, 0x14($fp)
80021090: 18 00 c1 af  	sw	$1, 0x18($fp)
80021094: 20 00 c1 af  	sw	$1, 0x20($fp)
80021098: 24 00 c4 af  	sw	$4, 0x24($fp)
8002109c: 1c 00 c0 af  	sw	$zero, 0x1c($fp)
800210a0: 1c 00 c5 27  	addiu	$5, $fp, 0x1c
800210a4: 04 00 06 24  	addiu	$6, $zero, 0x4
800210a8: 38 8e 00 0c  	jal	0x238e0 <.text+0x38e0>
800210ac: 00 00 00 00  	nop
800210b0: 18 00 c4 8f  	lw	$4, 0x18($fp)
800210b4: 25 28 40 00  	move	$5, $2
800210b8: 25 30 60 00  	move	$6, $3
800210bc: df 86 00 0c  	jal	0x21b7c <.text+0x1b7c>
800210c0: 00 00 00 00  	nop
800210c4: 25 e8 c0 03  	move	$sp, $fp
800210c8: 28 00 be 8f  	lw	$fp, 0x28($sp)
800210cc: 2c 00 bf 8f  	lw	$ra, 0x2c($sp)
800210d0: 30 00 bd 27  	addiu	$sp, $sp, 0x30
800210d4: 08 00 e0 03  	jr	$ra
800210d8: 00 00 00 00  	nop
800210dc: d0 ff bd 27  	addiu	$sp, $sp, -0x30
800210e0: 2c 00 bf af  	sw	$ra, 0x2c($sp)
800210e4: 28 00 be af  	sw	$fp, 0x28($sp)
800210e8: 25 f0 a0 03  	move	$fp, $sp
800210ec: 14 00 c5 af  	sw	$5, 0x14($fp)
800210f0: 25 08 80 00  	move	$1, $4
800210f4: 14 00 c4 8f  	lw	$4, 0x14($fp)
800210f8: 18 00 c1 af  	sw	$1, 0x18($fp)
800210fc: 20 00 c1 af  	sw	$1, 0x20($fp)
80021100: 24 00 c4 af  	sw	$4, 0x24($fp)
80021104: 1c 00 c0 af  	sw	$zero, 0x1c($fp)
80021108: 1c 00 c5 27  	addiu	$5, $fp, 0x1c
8002110c: 04 00 06 24  	addiu	$6, $zero, 0x4
80021110: 38 8e 00 0c  	jal	0x238e0 <.text+0x38e0>
80021114: 00 00 00 00  	nop
80021118: 18 00 c4 8f  	lw	$4, 0x18($fp)
8002111c: 25 28 40 00  	move	$5, $2
80021120: 25 30 60 00  	move	$6, $3
80021124: 50 87 00 0c  	jal	0x21d40 <.text+0x1d40>
80021128: 00 00 00 00  	nop
8002112c: 25 e8 c0 03  	move	$sp, $fp
80021130: 28 00 be 8f  	lw	$fp, 0x28($sp)
80021134: 2c 00 bf 8f  	lw	$ra, 0x2c($sp)
80021138: 30 00 bd 27  	addiu	$sp, $sp, 0x30
8002113c: 08 00 e0 03  	jr	$ra
80021140: 00 00 00 00  	nop
80021144: c8 ff bd 27  	addiu	$sp, $sp, -0x38
80021148: 34 00 bf af  	sw	$ra, 0x34($sp)
8002114c: 30 00 be af  	sw	$fp, 0x30($sp)
80021150: 25 f0 a0 03  	move	$fp, $sp
80021154: 14 00 c4 af  	sw	$4, 0x14($fp)
80021158: 14 00 a1 8c  	lw	$1, 0x14($5)
8002115c: 2c 00 c1 af  	sw	$1, 0x2c($fp)
80021160: 10 00 a1 8c  	lw	$1, 0x10($5)
80021164: 28 00 c1 af  	sw	$1, 0x28($fp)
80021168: 0c 00 a1 8c  	lw	$1, 0xc($5)
8002116c: 24 00 c1 af  	sw	$1, 0x24($fp)
80021170: 08 00 a1 8c  	lw	$1, 0x8($5)
80021174: 20 00 c1 af  	sw	$1, 0x20($fp)
80021178: 04 00 a1 8c  	lw	$1, 0x4($5)
8002117c: 1c 00 c1 af  	sw	$1, 0x1c($fp)
80021180: 00 00 a1 8c  	lw	$1, 0x0($5)
80021184: 18 00 c1 af  	sw	$1, 0x18($fp)
80021188: 18 00 c5 27  	addiu	$5, $fp, 0x18
8002118c: 85 84 00 0c  	jal	0x21214 <.text+0x1214>
80021190: 00 00 00 00  	nop
80021194: 25 e8 c0 03  	move	$sp, $fp
80021198: 30 00 be 8f  	lw	$fp, 0x30($sp)
8002119c: 34 00 bf 8f  	lw	$ra, 0x34($sp)
800211a0: 38 00 bd 27  	addiu	$sp, $sp, 0x38
800211a4: 08 00 e0 03  	jr	$ra
800211a8: 00 00 00 00  	nop
800211ac: c8 ff bd 27  	addiu	$sp, $sp, -0x38
800211b0: 34 00 bf af  	sw	$ra, 0x34($sp)
800211b4: 30 00 be af  	sw	$fp, 0x30($sp)
800211b8: 25 f0 a0 03  	move	$fp, $sp
800211bc: 14 00 c4 af  	sw	$4, 0x14($fp)
800211c0: 14 00 a1 8c  	lw	$1, 0x14($5)
800211c4: 2c 00 c1 af  	sw	$1, 0x2c($fp)
800211c8: 10 00 a1 8c  	lw	$1, 0x10($5)
800211cc: 28 00 c1 af  	sw	$1, 0x28($fp)
800211d0: 0c 00 a1 8c  	lw	$1, 0xc($5)
800211d4: 24 00 c1 af  	sw	$1, 0x24($fp)
800211d8: 08 00 a1 8c  	lw	$1, 0x8($5)
800211dc: 20 00 c1 af  	sw	$1, 0x20($fp)
800211e0: 04 00 a1 8c  	lw	$1, 0x4($5)
800211e4: 1c 00 c1 af  	sw	$1, 0x1c($fp)
800211e8: 00 00 a1 8c  	lw	$1, 0x0($5)
800211ec: 18 00 c1 af  	sw	$1, 0x18($fp)
800211f0: 18 00 c5 27  	addiu	$5, $fp, 0x18
800211f4: bf 84 00 0c  	jal	0x212fc <.text+0x12fc>
800211f8: 00 00 00 00  	nop
800211fc: 25 e8 c0 03  	move	$sp, $fp
80021200: 30 00 be 8f  	lw	$fp, 0x30($sp)
80021204: 34 00 bf 8f  	lw	$ra, 0x34($sp)
80021208: 38 00 bd 27  	addiu	$sp, $sp, 0x38
8002120c: 08 00 e0 03  	jr	$ra
80021210: 00 00 00 00  	nop
80021214: b0 ff bd 27  	addiu	$sp, $sp, -0x50
80021218: 4c 00 bf af  	sw	$ra, 0x4c($sp)
8002121c: 48 00 be af  	sw	$fp, 0x48($sp)
80021220: 25 f0 a0 03  	move	$fp, $sp
80021224: 10 00 c5 af  	sw	$5, 0x10($fp)
80021228: 25 08 80 00  	move	$1, $4
8002122c: 10 00 c4 8f  	lw	$4, 0x10($fp)
80021230: 14 00 c1 af  	sw	$1, 0x14($fp)
80021234: 3c 00 c1 af  	sw	$1, 0x3c($fp)
80021238: f9 84 00 0c  	jal	0x213e4 <.text+0x13e4>
8002123c: 00 00 00 00  	nop
80021240: 1c 00 c2 af  	sw	$2, 0x1c($fp)
80021244: 20 00 c3 af  	sw	$3, 0x20($fp)
80021248: 1c 00 c1 8f  	lw	$1, 0x1c($fp)
8002124c: 0d 00 20 10  	beqz	$1, 0x80021284 <.text+0x1284>
80021250: 00 00 00 00  	nop
80021254: 97 84 00 08  	j	0x2125c <.text+0x125c>
80021258: 00 00 00 00  	nop
8002125c: 14 00 c4 8f  	lw	$4, 0x14($fp)
80021260: 1c 00 c5 8f  	lw	$5, 0x1c($fp)
80021264: 20 00 c6 8f  	lw	$6, 0x20($fp)
80021268: 40 00 c5 af  	sw	$5, 0x40($fp)
8002126c: 44 00 c6 af  	sw	$6, 0x44($fp)
80021270: df 86 00 0c  	jal	0x21b7c <.text+0x1b7c>
80021274: 00 00 00 00  	nop
80021278: 1b 00 c2 a3  	sb	$2, 0x1b($fp)
8002127c: b7 84 00 08  	j	0x212dc <.text+0x12dc>
80021280: 00 00 00 00  	nop
80021284: 14 00 c4 8f  	lw	$4, 0x14($fp)
80021288: 10 00 c1 8f  	lw	$1, 0x10($fp)
8002128c: 14 00 22 8c  	lw	$2, 0x14($1)
80021290: 38 00 c2 af  	sw	$2, 0x38($fp)
80021294: 10 00 22 8c  	lw	$2, 0x10($1)
80021298: 34 00 c2 af  	sw	$2, 0x34($fp)
8002129c: 0c 00 22 8c  	lw	$2, 0xc($1)
800212a0: 30 00 c2 af  	sw	$2, 0x30($fp)
800212a4: 08 00 22 8c  	lw	$2, 0x8($1)
800212a8: 2c 00 c2 af  	sw	$2, 0x2c($fp)
800212ac: 04 00 22 8c  	lw	$2, 0x4($1)
800212b0: 28 00 c2 af  	sw	$2, 0x28($fp)
800212b4: 00 00 21 8c  	lw	$1, 0x0($1)
800212b8: 24 00 c1 af  	sw	$1, 0x24($fp)
800212bc: 03 80 01 3c  	lui	$1, 0x8003
800212c0: 30 00 25 24  	addiu	$5, $1, 0x30
800212c4: 24 00 c6 27  	addiu	$6, $fp, 0x24
800212c8: 78 ab 00 0c  	jal	0x2ade0 <.text+0xade0>
800212cc: 00 00 00 00  	nop
800212d0: 1b 00 c2 a3  	sb	$2, 0x1b($fp)
800212d4: b7 84 00 08  	j	0x212dc <.text+0x12dc>
800212d8: 00 00 00 00  	nop
800212dc: 1b 00 c1 93  	lbu	$1, 0x1b($fp)
800212e0: 01 00 22 30  	andi	$2, $1, 0x1
800212e4: 25 e8 c0 03  	move	$sp, $fp
800212e8: 48 00 be 8f  	lw	$fp, 0x48($sp)
800212ec: 4c 00 bf 8f  	lw	$ra, 0x4c($sp)
800212f0: 50 00 bd 27  	addiu	$sp, $sp, 0x50
800212f4: 08 00 e0 03  	jr	$ra
800212f8: 00 00 00 00  	nop
800212fc: b0 ff bd 27  	addiu	$sp, $sp, -0x50
80021300: 4c 00 bf af  	sw	$ra, 0x4c($sp)
80021304: 48 00 be af  	sw	$fp, 0x48($sp)
80021308: 25 f0 a0 03  	move	$fp, $sp
8002130c: 10 00 c5 af  	sw	$5, 0x10($fp)
80021310: 25 08 80 00  	move	$1, $4
80021314: 10 00 c4 8f  	lw	$4, 0x10($fp)
80021318: 14 00 c1 af  	sw	$1, 0x14($fp)
8002131c: 3c 00 c1 af  	sw	$1, 0x3c($fp)
80021320: f9 84 00 0c  	jal	0x213e4 <.text+0x13e4>
80021324: 00 00 00 00  	nop
80021328: 1c 00 c2 af  	sw	$2, 0x1c($fp)
8002132c: 20 00 c3 af  	sw	$3, 0x20($fp)
80021330: 1c 00 c1 8f  	lw	$1, 0x1c($fp)
80021334: 0d 00 20 10  	beqz	$1, 0x8002136c <.text+0x136c>
80021338: 00 00 00 00  	nop
8002133c: d1 84 00 08  	j	0x21344 <.text+0x1344>
80021340: 00 00 00 00  	nop
80021344: 14 00 c4 8f  	lw	$4, 0x14($fp)
80021348: 1c 00 c5 8f  	lw	$5, 0x1c($fp)
8002134c: 20 00 c6 8f  	lw	$6, 0x20($fp)
80021350: 40 00 c5 af  	sw	$5, 0x40($fp)
80021354: 44 00 c6 af  	sw	$6, 0x44($fp)
80021358: 50 87 00 0c  	jal	0x21d40 <.text+0x1d40>
8002135c: 00 00 00 00  	nop
80021360: 1b 00 c2 a3  	sb	$2, 0x1b($fp)
80021364: f1 84 00 08  	j	0x213c4 <.text+0x13c4>
80021368: 00 00 00 00  	nop
8002136c: 14 00 c4 8f  	lw	$4, 0x14($fp)
80021370: 10 00 c1 8f  	lw	$1, 0x10($fp)
80021374: 14 00 22 8c  	lw	$2, 0x14($1)
80021378: 38 00 c2 af  	sw	$2, 0x38($fp)
8002137c: 10 00 22 8c  	lw	$2, 0x10($1)
80021380: 34 00 c2 af  	sw	$2, 0x34($fp)
80021384: 0c 00 22 8c  	lw	$2, 0xc($1)
80021388: 30 00 c2 af  	sw	$2, 0x30($fp)
8002138c: 08 00 22 8c  	lw	$2, 0x8($1)
80021390: 2c 00 c2 af  	sw	$2, 0x2c($fp)
80021394: 04 00 22 8c  	lw	$2, 0x4($1)
80021398: 28 00 c2 af  	sw	$2, 0x28($fp)
8002139c: 00 00 21 8c  	lw	$1, 0x0($1)
800213a0: 24 00 c1 af  	sw	$1, 0x24($fp)
800213a4: 03 80 01 3c  	lui	$1, 0x8003
800213a8: 48 00 25 24  	addiu	$5, $1, 0x48
800213ac: 24 00 c6 27  	addiu	$6, $fp, 0x24
800213b0: 78 ab 00 0c  	jal	0x2ade0 <.text+0xade0>
800213b4: 00 00 00 00  	nop
800213b8: 1b 00 c2 a3  	sb	$2, 0x1b($fp)
800213bc: f1 84 00 08  	j	0x213c4 <.text+0x13c4>
800213c0: 00 00 00 00  	nop
800213c4: 1b 00 c1 93  	lbu	$1, 0x1b($fp)
800213c8: 01 00 22 30  	andi	$2, $1, 0x1
800213cc: 25 e8 c0 03  	move	$sp, $fp
800213d0: 48 00 be 8f  	lw	$fp, 0x48($sp)
800213d4: 4c 00 bf 8f  	lw	$ra, 0x4c($sp)
800213d8: 50 00 bd 27  	addiu	$sp, $sp, 0x50
800213dc: 08 00 e0 03  	jr	$ra
800213e0: 00 00 00 00  	nop
800213e4: d0 ff bd 27  	addiu	$sp, $sp, -0x30
800213e8: 2c 00 bf af  	sw	$ra, 0x2c($sp)
800213ec: 28 00 be af  	sw	$fp, 0x28($sp)
800213f0: 25 f0 a0 03  	move	$fp, $sp
800213f4: 20 00 c4 af  	sw	$4, 0x20($fp)
800213f8: 1e 85 00 0c  	jal	0x21478 <.text+0x1478>
800213fc: 00 00 00 00  	nop
80021400: 18 00 c2 af  	sw	$2, 0x18($fp)
80021404: 1c 00 c3 af  	sw	$3, 0x1c($fp)
80021408: 18 00 c4 27  	addiu	$4, $fp, 0x18
8002140c: 6a bb 00 0c  	jal	0x2eda8 <.text+0xeda8>
80021410: 00 00 00 00  	nop
80021414: 00 00 01 24  	addiu	$1, $zero, 0x0
80021418: 27 00 c0 a3  	sb	$zero, 0x27($fp)
8002141c: 27 00 c1 93  	lbu	$1, 0x27($fp)
80021420: 01 00 21 30  	andi	$1, $1, 0x1
80021424: 06 00 20 14  	bnez	$1, 0x80021440 <.text+0x1440>
80021428: 00 00 00 00  	nop
8002142c: 0d 85 00 08  	j	0x21434 <.text+0x1434>
80021430: 00 00 00 00  	nop
80021434: 10 00 c0 af  	sw	$zero, 0x10($fp)
80021438: 16 85 00 08  	j	0x21458 <.text+0x1458>
8002143c: 00 00 00 00  	nop
80021440: 18 00 c2 8f  	lw	$2, 0x18($fp)
80021444: 1c 00 c1 8f  	lw	$1, 0x1c($fp)
80021448: 10 00 c2 af  	sw	$2, 0x10($fp)
8002144c: 14 00 c1 af  	sw	$1, 0x14($fp)
80021450: 16 85 00 08  	j	0x21458 <.text+0x1458>
80021454: 00 00 00 00  	nop
80021458: 10 00 c2 8f  	lw	$2, 0x10($fp)
8002145c: 14 00 c3 8f  	lw	$3, 0x14($fp)
80021460: 25 e8 c0 03  	move	$sp, $fp
80021464: 28 00 be 8f  	lw	$fp, 0x28($sp)
80021468: 2c 00 bf 8f  	lw	$ra, 0x2c($sp)
8002146c: 30 00 bd 27  	addiu	$sp, $sp, 0x30
80021470: 08 00 e0 03  	jr	$ra
80021474: 00 00 00 00  	nop
80021478: d8 ff bd 27  	addiu	$sp, $sp, -0x28
8002147c: 24 00 bf af  	sw	$ra, 0x24($sp)
80021480: 20 00 be af  	sw	$fp, 0x20($sp)
80021484: 25 f0 a0 03  	move	$fp, $sp
80021488: 25 08 80 00  	move	$1, $4
8002148c: 18 00 c1 af  	sw	$1, 0x18($fp)
80021490: 00 00 24 8c  	lw	$4, 0x0($1)
80021494: 04 00 23 8c  	lw	$3, 0x4($1)
80021498: 08 00 22 8c  	lw	$2, 0x8($1)
8002149c: 0c 00 21 8c  	lw	$1, 0xc($1)
800214a0: 08 00 c4 af  	sw	$4, 0x8($fp)
800214a4: 0c 00 c3 af  	sw	$3, 0xc($fp)
800214a8: 10 00 c2 af  	sw	$2, 0x10($fp)
800214ac: 14 00 c1 af  	sw	$1, 0x14($fp)
800214b0: 0c 00 c1 8f  	lw	$1, 0xc($fp)
800214b4: 09 00 20 10  	beqz	$1, 0x800214dc <.text+0x14dc>
800214b8: 00 00 00 00  	nop
800214bc: 31 85 00 08  	j	0x214c4 <.text+0x14c4>
800214c0: 00 00 00 00  	nop
800214c4: 0c 00 c1 8f  	lw	$1, 0xc($fp)
800214c8: 01 00 02 24  	addiu	$2, $zero, 0x1
800214cc: 0b 00 22 10  	beq	$1, $2, 0x800214fc <.text+0x14fc>
800214d0: 00 00 00 00  	nop
800214d4: 3c 85 00 08  	j	0x214f0 <.text+0x14f0>
800214d8: 00 00 00 00  	nop
800214dc: 14 00 c1 8f  	lw	$1, 0x14($fp)
800214e0: 1b 00 20 10  	beqz	$1, 0x80021550 <.text+0x1550>
800214e4: 00 00 00 00  	nop
800214e8: 3c 85 00 08  	j	0x214f0 <.text+0x14f0>
800214ec: 00 00 00 00  	nop
800214f0: 00 00 c0 af  	sw	$zero, 0x0($fp)
800214f4: 4c 85 00 08  	j	0x21530 <.text+0x1530>
800214f8: 00 00 00 00  	nop
800214fc: 14 00 c1 8f  	lw	$1, 0x14($fp)
80021500: fb ff 20 14  	bnez	$1, 0x800214f0 <.text+0x14f0>
80021504: 00 00 00 00  	nop
80021508: 44 85 00 08  	j	0x21510 <.text+0x1510>
8002150c: 00 00 00 00  	nop
80021510: 08 00 c1 8f  	lw	$1, 0x8($fp)
80021514: 1c 00 c1 af  	sw	$1, 0x1c($fp)
80021518: 00 00 22 8c  	lw	$2, 0x0($1)
8002151c: 04 00 21 8c  	lw	$1, 0x4($1)
80021520: 00 00 c2 af  	sw	$2, 0x0($fp)
80021524: 04 00 c1 af  	sw	$1, 0x4($fp)
80021528: 4c 85 00 08  	j	0x21530 <.text+0x1530>
8002152c: 00 00 00 00  	nop
80021530: 00 00 c2 8f  	lw	$2, 0x0($fp)
80021534: 04 00 c3 8f  	lw	$3, 0x4($fp)
80021538: 25 e8 c0 03  	move	$sp, $fp
8002153c: 20 00 be 8f  	lw	$fp, 0x20($sp)
80021540: 24 00 bf 8f  	lw	$ra, 0x24($sp)
80021544: 28 00 bd 27  	addiu	$sp, $sp, 0x28
80021548: 08 00 e0 03  	jr	$ra
8002154c: 00 00 00 00  	nop
80021550: 03 80 01 3c  	lui	$1, 0x8003
80021554: 60 00 21 24  	addiu	$1, $1, 0x60
80021558: 00 00 c1 af  	sw	$1, 0x0($fp)
8002155c: 04 00 c0 af  	sw	$zero, 0x4($fp)
80021560: 4c 85 00 08  	j	0x21530 <.text+0x1530>
80021564: 00 00 00 00  	nop
80021568: 98 ff bd 27  	addiu	$sp, $sp, -0x68
8002156c: 64 00 bf af  	sw	$ra, 0x64($sp)
80021570: 60 00 be af  	sw	$fp, 0x60($sp)
80021574: 25 f0 a0 03  	move	$fp, $sp
80021578: 18 00 c7 af  	sw	$7, 0x18($fp)
8002157c: 1c 00 c6 af  	sw	$6, 0x1c($fp)
80021580: 20 00 c5 af  	sw	$5, 0x20($fp)
80021584: 24 00 c4 af  	sw	$4, 0x24($fp)
80021588: 28 00 c4 af  	sw	$4, 0x28($fp)
8002158c: 78 00 c1 8f  	lw	$1, 0x78($fp)
80021590: 2c 00 c1 af  	sw	$1, 0x2c($fp)
80021594: 50 00 c5 af  	sw	$5, 0x50($fp)
80021598: 54 00 c6 af  	sw	$6, 0x54($fp)
8002159c: 58 00 c7 af  	sw	$7, 0x58($fp)
800215a0: 5c 00 c1 af  	sw	$1, 0x5c($fp)
800215a4: 2b 08 c1 00  	sltu	$1, $6, $1
800215a8: 0a 00 20 14  	bnez	$1, 0x800215d4 <.text+0x15d4>
800215ac: 00 00 00 00  	nop
800215b0: 6e 85 00 08  	j	0x215b8 <.text+0x15b8>
800215b4: 00 00 00 00  	nop
800215b8: 2c 00 c1 8f  	lw	$1, 0x2c($fp)
800215bc: 01 00 21 24  	addiu	$1, $1, 0x1
800215c0: 14 00 c1 af  	sw	$1, 0x14($fp)
800215c4: 16 00 20 10  	beqz	$1, 0x80021620 <.text+0x1620>
800215c8: 00 00 00 00  	nop
800215cc: 81 85 00 08  	j	0x21604 <.text+0x1604>
800215d0: 00 00 00 00  	nop
800215d4: 03 80 01 3c  	lui	$1, 0x8003
800215d8: f0 00 25 24  	addiu	$5, $1, 0xf0
800215dc: 30 00 c4 27  	addiu	$4, $fp, 0x30
800215e0: 10 00 c4 af  	sw	$4, 0x10($fp)
800215e4: 01 00 06 24  	addiu	$6, $zero, 0x1
800215e8: a1 85 00 0c  	jal	0x21684 <.text+0x1684>
800215ec: 00 00 00 00  	nop
800215f0: 10 00 c4 8f  	lw	$4, 0x10($fp)
800215f4: 03 80 01 3c  	lui	$1, 0x8003
800215f8: f8 00 25 24  	addiu	$5, $1, 0xf8
800215fc: f6 b4 00 0c  	jal	0x2d3d8 <.text+0xd3d8>
80021600: 00 00 00 00  	nop
80021604: 14 00 c1 8f  	lw	$1, 0x14($fp)
80021608: 1c 00 c2 8f  	lw	$2, 0x1c($fp)
8002160c: 2b 08 22 00  	sltu	$1, $1, $2
80021610: f0 ff 20 14  	bnez	$1, 0x800215d4 <.text+0x15d4>
80021614: 00 00 00 00  	nop
80021618: 8c 85 00 08  	j	0x21630 <.text+0x1630>
8002161c: 00 00 00 00  	nop
80021620: 03 80 01 3c  	lui	$1, 0x8003
80021624: d4 00 24 24  	addiu	$4, $1, 0xd4
80021628: be b2 00 0c  	jal	0x2caf8 <.text+0xcaf8>
8002162c: 00 00 00 00  	nop
80021630: 28 00 c2 8f  	lw	$2, 0x28($fp)
80021634: 2c 00 c1 8f  	lw	$1, 0x2c($fp)
80021638: 24 00 c3 8f  	lw	$3, 0x24($fp)
8002163c: 18 00 c4 8f  	lw	$4, 0x18($fp)
80021640: 1c 00 c5 8f  	lw	$5, 0x1c($fp)
80021644: 20 00 c6 8f  	lw	$6, 0x20($fp)
80021648: 48 00 c0 af  	sw	$zero, 0x48($fp)
8002164c: 00 00 66 ac  	sw	$6, 0x0($3)
80021650: 04 00 65 ac  	sw	$5, 0x4($3)
80021654: 48 00 c6 8f  	lw	$6, 0x48($fp)
80021658: 4c 00 c5 8f  	lw	$5, 0x4c($fp)
8002165c: 10 00 66 ac  	sw	$6, 0x10($3)
80021660: 14 00 65 ac  	sw	$5, 0x14($3)
80021664: 08 00 64 ac  	sw	$4, 0x8($3)
80021668: 0c 00 61 ac  	sw	$1, 0xc($3)
8002166c: 25 e8 c0 03  	move	$sp, $fp
80021670: 60 00 be 8f  	lw	$fp, 0x60($sp)
80021674: 64 00 bf 8f  	lw	$ra, 0x64($sp)
80021678: 68 00 bd 27  	addiu	$sp, $sp, 0x68
8002167c: 08 00 e0 03  	jr	$ra
80021680: 00 00 00 00  	nop
80021684: a8 ff bd 27  	addiu	$sp, $sp, -0x58
80021688: 54 00 bf af  	sw	$ra, 0x54($sp)
8002168c: 50 00 be af  	sw	$fp, 0x50($sp)
80021690: 25 f0 a0 03  	move	$fp, $sp
80021694: 18 00 c6 af  	sw	$6, 0x18($fp)
80021698: 1c 00 c5 af  	sw	$5, 0x1c($fp)
8002169c: 20 00 c4 af  	sw	$4, 0x20($fp)
800216a0: 24 00 c4 af  	sw	$4, 0x24($fp)
800216a4: 48 00 c5 af  	sw	$5, 0x48($fp)
800216a8: 4c 00 c6 af  	sw	$6, 0x4c($fp)
800216ac: 02 00 c1 2c  	sltiu	$1, $6, 0x2
800216b0: 18 00 20 10  	beqz	$1, 0x80021714 <.text+0x1714>
800216b4: 00 00 00 00  	nop
800216b8: b0 85 00 08  	j	0x216c0 <.text+0x16c0>
800216bc: 00 00 00 00  	nop
800216c0: 24 00 c2 8f  	lw	$2, 0x24($fp)
800216c4: 20 00 c1 8f  	lw	$1, 0x20($fp)
800216c8: 18 00 c3 8f  	lw	$3, 0x18($fp)
800216cc: 1c 00 c4 8f  	lw	$4, 0x1c($fp)
800216d0: 40 00 c0 af  	sw	$zero, 0x40($fp)
800216d4: 00 00 24 ac  	sw	$4, 0x0($1)
800216d8: 04 00 23 ac  	sw	$3, 0x4($1)
800216dc: 40 00 c4 8f  	lw	$4, 0x40($fp)
800216e0: 44 00 c3 8f  	lw	$3, 0x44($fp)
800216e4: 10 00 24 ac  	sw	$4, 0x10($1)
800216e8: 14 00 23 ac  	sw	$3, 0x14($1)
800216ec: 03 80 03 3c  	lui	$3, 0x8003
800216f0: 60 00 63 24  	addiu	$3, $3, 0x60
800216f4: 08 00 23 ac  	sw	$3, 0x8($1)
800216f8: 0c 00 20 ac  	sw	$zero, 0xc($1)
800216fc: 25 e8 c0 03  	move	$sp, $fp
80021700: 50 00 be 8f  	lw	$fp, 0x50($sp)
80021704: 54 00 bf 8f  	lw	$ra, 0x54($sp)
80021708: 58 00 bd 27  	addiu	$sp, $sp, 0x58
8002170c: 08 00 e0 03  	jr	$ra
80021710: 00 00 00 00  	nop
80021714: 03 80 01 3c  	lui	$1, 0x8003
80021718: f0 00 25 24  	addiu	$5, $1, 0xf0
8002171c: 28 00 c4 27  	addiu	$4, $fp, 0x28
80021720: 14 00 c4 af  	sw	$4, 0x14($fp)
80021724: 01 00 06 24  	addiu	$6, $zero, 0x1
80021728: a1 85 00 0c  	jal	0x21684 <.text+0x1684>
8002172c: 00 00 00 00  	nop
80021730: 14 00 c4 8f  	lw	$4, 0x14($fp)
80021734: 03 80 01 3c  	lui	$1, 0x8003
80021738: 08 01 25 24  	addiu	$5, $1, 0x108
8002173c: f6 b4 00 0c  	jal	0x2d3d8 <.text+0xd3d8>
80021740: 00 00 00 00  	nop
80021744: d8 ff bd 27  	addiu	$sp, $sp, -0x28
80021748: 24 00 bf af  	sw	$ra, 0x24($sp)
8002174c: 20 00 be af  	sw	$fp, 0x20($sp)
80021750: 25 f0 a0 03  	move	$fp, $sp
80021754: 14 00 c5 af  	sw	$5, 0x14($fp)
80021758: 25 08 80 00  	move	$1, $4
8002175c: 14 00 c4 8f  	lw	$4, 0x14($fp)
80021760: 18 00 c1 af  	sw	$1, 0x18($fp)
80021764: 1c 00 c4 af  	sw	$4, 0x1c($fp)
80021768: 03 80 01 3c  	lui	$1, 0x8003
8002176c: 18 01 25 24  	addiu	$5, $1, 0x118
80021770: 05 00 06 24  	addiu	$6, $zero, 0x5
80021774: 34 b1 00 0c  	jal	0x2c4d0 <.text+0xc4d0>
80021778: 00 00 00 00  	nop
8002177c: 25 e8 c0 03  	move	$sp, $fp
80021780: 20 00 be 8f  	lw	$fp, 0x20($sp)
80021784: 24 00 bf 8f  	lw	$ra, 0x24($sp)
80021788: 28 00 bd 27  	addiu	$sp, $sp, 0x28
8002178c: 08 00 e0 03  	jr	$ra
80021790: 00 00 00 00  	nop
80021794: a0 ff bd 27  	addiu	$sp, $sp, -0x60
80021798: 5c 00 bf af  	sw	$ra, 0x5c($sp)
8002179c: 58 00 be af  	sw	$fp, 0x58($sp)
800217a0: 25 f0 a0 03  	move	$fp, $sp
800217a4: 20 00 c4 af  	sw	$4, 0x20($fp)
800217a8: 20 00 c2 27  	addiu	$2, $fp, 0x20
800217ac: 44 00 c2 af  	sw	$2, 0x44($fp)
800217b0: 50 00 c2 af  	sw	$2, 0x50($fp)
800217b4: 02 80 01 3c  	lui	$1, 0x8002
800217b8: 00 10 21 24  	addiu	$1, $1, 0x1000
800217bc: 54 00 c1 af  	sw	$1, 0x54($fp)
800217c0: 48 00 c2 af  	sw	$2, 0x48($fp)
800217c4: 4c 00 c1 af  	sw	$1, 0x4c($fp)
800217c8: 48 00 c2 8f  	lw	$2, 0x48($fp)
800217cc: 4c 00 c1 8f  	lw	$1, 0x4c($fp)
800217d0: 3c 00 c2 af  	sw	$2, 0x3c($fp)
800217d4: 40 00 c1 af  	sw	$1, 0x40($fp)
800217d8: 25 10 a0 03  	move	$2, $sp
800217dc: 01 00 01 24  	addiu	$1, $zero, 0x1
800217e0: 10 00 41 ac  	sw	$1, 0x10($2)
800217e4: 03 80 01 3c  	lui	$1, 0x8003
800217e8: 20 01 25 24  	addiu	$5, $1, 0x120
800217ec: 24 00 c4 27  	addiu	$4, $fp, 0x24
800217f0: 1c 00 c4 af  	sw	$4, 0x1c($fp)
800217f4: 02 00 06 24  	addiu	$6, $zero, 0x2
800217f8: 3c 00 c7 27  	addiu	$7, $fp, 0x3c
800217fc: 5a 85 00 0c  	jal	0x21568 <.text+0x1568>
80021800: 00 00 00 00  	nop
80021804: 1c 00 c4 8f  	lw	$4, 0x1c($fp)
80021808: 83 87 00 0c  	jal	0x21e0c <.text+0x1e0c>
8002180c: 00 00 00 00  	nop
80021810: 06 86 00 08  	j	0x21818 <.text+0x1818>
80021814: 00 00 00 00  	nop
80021818: 06 86 00 08  	j	0x21818 <.text+0x1818>
8002181c: 00 00 00 00  	nop
80021820: 40 ff bd 27  	addiu	$sp, $sp, -0xc0
80021824: bc 00 bf af  	sw	$ra, 0xbc($sp)
80021828: b8 00 be af  	sw	$fp, 0xb8($sp)
8002182c: 25 f0 a0 03  	move	$fp, $sp
80021830: 2c 00 c7 af  	sw	$7, 0x2c($fp)
80021834: 98 00 c4 af  	sw	$4, 0x98($fp)
80021838: 9c 00 c5 af  	sw	$5, 0x9c($fp)
8002183c: a0 00 c6 af  	sw	$6, 0xa0($fp)
80021840: 03 80 01 3c  	lui	$1, 0x8003
80021844: 40 01 25 24  	addiu	$5, $1, 0x140
80021848: 30 00 c4 27  	addiu	$4, $fp, 0x30
8002184c: 18 00 c4 af  	sw	$4, 0x18($fp)
80021850: 01 00 06 24  	addiu	$6, $zero, 0x1
80021854: 24 00 c6 af  	sw	$6, 0x24($fp)
80021858: a1 85 00 0c  	jal	0x21684 <.text+0x1684>
8002185c: 00 00 00 00  	nop
80021860: 18 00 c4 8f  	lw	$4, 0x18($fp)
80021864: 83 87 00 0c  	jal	0x21e0c <.text+0x1e0c>
80021868: 00 00 00 00  	nop
8002186c: 24 00 c1 8f  	lw	$1, 0x24($fp)
80021870: 2c 00 c3 27  	addiu	$3, $fp, 0x2c
80021874: a4 00 c3 af  	sw	$3, 0xa4($fp)
80021878: b0 00 c3 af  	sw	$3, 0xb0($fp)
8002187c: 02 80 02 3c  	lui	$2, 0x8002
80021880: c0 76 42 24  	addiu	$2, $2, 0x76c0
80021884: b4 00 c2 af  	sw	$2, 0xb4($fp)
80021888: a8 00 c3 af  	sw	$3, 0xa8($fp)
8002188c: ac 00 c2 af  	sw	$2, 0xac($fp)
80021890: a8 00 c3 8f  	lw	$3, 0xa8($fp)
80021894: ac 00 c2 8f  	lw	$2, 0xac($fp)
80021898: 60 00 c3 af  	sw	$3, 0x60($fp)
8002189c: 64 00 c2 af  	sw	$2, 0x64($fp)
800218a0: 25 10 a0 03  	move	$2, $sp
800218a4: 10 00 41 ac  	sw	$1, 0x10($2)
800218a8: 03 80 01 3c  	lui	$1, 0x8003
800218ac: 58 01 25 24  	addiu	$5, $1, 0x158
800218b0: 48 00 c4 27  	addiu	$4, $fp, 0x48
800218b4: 1c 00 c4 af  	sw	$4, 0x1c($fp)
800218b8: 02 00 06 24  	addiu	$6, $zero, 0x2
800218bc: 60 00 c7 27  	addiu	$7, $fp, 0x60
800218c0: 5a 85 00 0c  	jal	0x21568 <.text+0x1568>
800218c4: 00 00 00 00  	nop
800218c8: 1c 00 c4 8f  	lw	$4, 0x1c($fp)
800218cc: 83 87 00 0c  	jal	0x21e0c <.text+0x1e0c>
800218d0: 00 00 00 00  	nop
800218d4: 24 00 c6 8f  	lw	$6, 0x24($fp)
800218d8: 03 80 01 3c  	lui	$1, 0x8003
800218dc: 70 01 25 24  	addiu	$5, $1, 0x170
800218e0: 68 00 c4 27  	addiu	$4, $fp, 0x68
800218e4: 20 00 c4 af  	sw	$4, 0x20($fp)
800218e8: a1 85 00 0c  	jal	0x21684 <.text+0x1684>
800218ec: 00 00 00 00  	nop
800218f0: 20 00 c4 8f  	lw	$4, 0x20($fp)
800218f4: b0 87 00 0c  	jal	0x21ec0 <.text+0x1ec0>
800218f8: 00 00 00 00  	nop
800218fc: 24 00 c6 8f  	lw	$6, 0x24($fp)
80021900: 03 80 01 3c  	lui	$1, 0x8003
80021904: 7c 01 25 24  	addiu	$5, $1, 0x17c
80021908: 80 00 c4 27  	addiu	$4, $fp, 0x80
8002190c: 28 00 c4 af  	sw	$4, 0x28($fp)
80021910: a1 85 00 0c  	jal	0x21684 <.text+0x1684>
80021914: 00 00 00 00  	nop
80021918: 28 00 c4 8f  	lw	$4, 0x28($fp)
8002191c: 83 87 00 0c  	jal	0x21e0c <.text+0x1e0c>
80021920: 00 00 00 00  	nop
80021924: 25 e8 c0 03  	move	$sp, $fp
80021928: b8 00 be 8f  	lw	$fp, 0xb8($sp)
8002192c: bc 00 bf 8f  	lw	$ra, 0xbc($sp)
80021930: c0 00 bd 27  	addiu	$sp, $sp, 0xc0
80021934: 08 00 e0 03  	jr	$ra
80021938: 00 00 00 00  	nop
8002193c: e0 ff bd 27  	addiu	$sp, $sp, -0x20
80021940: 1c 00 bf af  	sw	$ra, 0x1c($sp)
80021944: 18 00 be af  	sw	$fp, 0x18($sp)
80021948: 25 f0 a0 03  	move	$fp, $sp
8002194c: 14 00 c4 af  	sw	$4, 0x14($fp)
80021950: 03 91 00 0c  	jal	0x2440c <.text+0x440c>
80021954: 00 00 00 00  	nop
80021958: 25 e8 c0 03  	move	$sp, $fp
8002195c: 18 00 be 8f  	lw	$fp, 0x18($sp)
80021960: 1c 00 bf 8f  	lw	$ra, 0x1c($sp)
80021964: 20 00 bd 27  	addiu	$sp, $sp, 0x20
80021968: 08 00 e0 03  	jr	$ra
8002196c: 00 00 00 00  	nop
80021970: f0 ff bd 27  	addiu	$sp, $sp, -0x10
80021974: 0c 00 bf af  	sw	$ra, 0xc($sp)
80021978: 08 00 be af  	sw	$fp, 0x8($sp)
8002197c: 25 f0 a0 03  	move	$fp, $sp
80021980: 04 00 c4 af  	sw	$4, 0x4($fp)
80021984: 04 00 82 8c  	lw	$2, 0x4($4)
80021988: 25 e8 c0 03  	move	$sp, $fp
8002198c: 08 00 be 8f  	lw	$fp, 0x8($sp)
80021990: 0c 00 bf 8f  	lw	$ra, 0xc($sp)
80021994: 10 00 bd 27  	addiu	$sp, $sp, 0x10
80021998: 08 00 e0 03  	jr	$ra
8002199c: 00 00 00 00  	nop
800219a0: e8 ff bd 27  	addiu	$sp, $sp, -0x18
800219a4: 14 00 bf af  	sw	$ra, 0x14($sp)
800219a8: 10 00 be af  	sw	$fp, 0x10($sp)
800219ac: 25 f0 a0 03  	move	$fp, $sp
800219b0: 23 91 00 0c  	jal	0x2448c <.text+0x448c>
800219b4: 00 00 00 00  	nop
800219b8: 04 00 40 14  	bnez	$2, 0x800219cc <.text+0x19cc>
800219bc: 00 00 00 00  	nop
800219c0: 72 86 00 08  	j	0x219c8 <.text+0x19c8>
800219c4: 00 00 00 00  	nop
800219c8: 0d 00 00 00  	break
800219cc: 77 86 00 0c  	jal	0x219dc <.text+0x19dc>
800219d0: 00 00 00 00  	nop
800219d4: 72 86 00 08  	j	0x219c8 <.text+0x19c8>
800219d8: 00 00 00 00  	nop
800219dc: e8 ff bd 27  	addiu	$sp, $sp, -0x18
800219e0: 14 00 bf af  	sw	$ra, 0x14($sp)
800219e4: 10 00 be af  	sw	$fp, 0x10($sp)
800219e8: 25 f0 a0 03  	move	$fp, $sp
800219ec: 7d 86 00 08  	j	0x219f4 <.text+0x19f4>
800219f0: 00 00 00 00  	nop
800219f4: 03 80 01 3c  	lui	$1, 0x8003
800219f8: 84 01 24 24  	addiu	$4, $1, 0x184
800219fc: 52 00 05 24  	addiu	$5, $zero, 0x52
80021a00: 57 b5 00 0c  	jal	0x2d55c <.text+0xd55c>
80021a04: 00 00 00 00  	nop
80021a08: f0 ff bd 27  	addiu	$sp, $sp, -0x10
80021a0c: 0c 00 bf af  	sw	$ra, 0xc($sp)
80021a10: 08 00 be af  	sw	$fp, 0x8($sp)
80021a14: 25 f0 a0 03  	move	$fp, $sp
80021a18: 04 00 c4 af  	sw	$4, 0x4($fp)
80021a1c: 00 00 81 90  	lbu	$1, 0x0($4)
80021a20: 01 00 21 30  	andi	$1, $1, 0x1
80021a24: 07 00 20 14  	bnez	$1, 0x80021a44 <.text+0x1a44>
80021a28: 00 00 00 00  	nop
80021a2c: 8d 86 00 08  	j	0x21a34 <.text+0x1a34>
80021a30: 00 00 00 00  	nop
80021a34: 01 00 01 24  	addiu	$1, $zero, 0x1
80021a38: 03 00 c1 a3  	sb	$1, 0x3($fp)
80021a3c: 95 86 00 08  	j	0x21a54 <.text+0x1a54>
80021a40: 00 00 00 00  	nop
80021a44: 00 00 01 24  	addiu	$1, $zero, 0x0
80021a48: 03 00 c0 a3  	sb	$zero, 0x3($fp)
80021a4c: 95 86 00 08  	j	0x21a54 <.text+0x1a54>
80021a50: 00 00 00 00  	nop
80021a54: 03 00 c1 93  	lbu	$1, 0x3($fp)
80021a58: 01 00 22 30  	andi	$2, $1, 0x1
80021a5c: 25 e8 c0 03  	move	$sp, $fp
80021a60: 08 00 be 8f  	lw	$fp, 0x8($sp)
80021a64: 0c 00 bf 8f  	lw	$ra, 0xc($sp)
80021a68: 10 00 bd 27  	addiu	$sp, $sp, 0x10
80021a6c: 08 00 e0 03  	jr	$ra
80021a70: 00 00 00 00  	nop
80021a74: e0 ff bd 27  	addiu	$sp, $sp, -0x20
80021a78: 1c 00 bf af  	sw	$ra, 0x1c($sp)
80021a7c: 18 00 be af  	sw	$fp, 0x18($sp)
80021a80: 25 f0 a0 03  	move	$fp, $sp
80021a84: 14 00 c4 af  	sw	$4, 0x14($fp)
80021a88: 82 86 00 0c  	jal	0x21a08 <.text+0x1a08>
80021a8c: 00 00 00 00  	nop
80021a90: 01 00 42 38  	xori	$2, $2, 0x1
80021a94: 25 e8 c0 03  	move	$sp, $fp
80021a98: 18 00 be 8f  	lw	$fp, 0x18($sp)
80021a9c: 1c 00 bf 8f  	lw	$ra, 0x1c($sp)
80021aa0: 20 00 bd 27  	addiu	$sp, $sp, 0x20
80021aa4: 08 00 e0 03  	jr	$ra
80021aa8: 00 00 00 00  	nop
80021aac: f0 ff bd 27  	addiu	$sp, $sp, -0x10
80021ab0: 0c 00 bf af  	sw	$ra, 0xc($sp)
80021ab4: 08 00 be af  	sw	$fp, 0x8($sp)
80021ab8: 25 f0 a0 03  	move	$fp, $sp
80021abc: 25 18 a0 00  	move	$3, $5
80021ac0: 25 10 80 00  	move	$2, $4
80021ac4: 00 00 c2 af  	sw	$2, 0x0($fp)
80021ac8: 04 00 c3 af  	sw	$3, 0x4($fp)
80021acc: 25 e8 c0 03  	move	$sp, $fp
80021ad0: 08 00 be 8f  	lw	$fp, 0x8($sp)
80021ad4: 0c 00 bf 8f  	lw	$ra, 0xc($sp)
80021ad8: 10 00 bd 27  	addiu	$sp, $sp, 0x10
80021adc: 08 00 e0 03  	jr	$ra
80021ae0: 00 00 00 00  	nop
80021ae4: d8 ff bd 27  	addiu	$sp, $sp, -0x28
80021ae8: 24 00 bf af  	sw	$ra, 0x24($sp)
80021aec: 20 00 be af  	sw	$fp, 0x20($sp)
80021af0: 25 f0 a0 03  	move	$fp, $sp
80021af4: 10 00 c4 af  	sw	$4, 0x10($fp)
80021af8: ff 00 a1 30  	andi	$1, $5, 0xff
80021afc: 25 10 a0 00  	move	$2, $5
80021b00: 14 00 c2 af  	sw	$2, 0x14($fp)
80021b04: 18 00 c4 af  	sw	$4, 0x18($fp)
80021b08: 1f 00 c5 a3  	sb	$5, 0x1f($fp)
80021b0c: 0a 00 02 24  	addiu	$2, $zero, 0xa
80021b10: 08 00 22 14  	bne	$1, $2, 0x80021b34 <.text+0x1b34>
80021b14: 00 00 00 00  	nop
80021b18: c8 86 00 08  	j	0x21b20 <.text+0x1b20>
80021b1c: 00 00 00 00  	nop
80021b20: 0d 00 04 24  	addiu	$4, $zero, 0xd
80021b24: 14 87 00 0c  	jal	0x21c50 <.text+0x1c50>
80021b28: 00 00 00 00  	nop
80021b2c: cd 86 00 08  	j	0x21b34 <.text+0x1b34>
80021b30: 00 00 00 00  	nop
80021b34: 10 00 c1 8f  	lw	$1, 0x10($fp)
80021b38: 00 00 21 8c  	lw	$1, 0x0($1)
80021b3c: 00 00 21 90  	lbu	$1, 0x0($1)
80021b40: 20 00 21 30  	andi	$1, $1, 0x20
80021b44: fb ff 20 10  	beqz	$1, 0x80021b34 <.text+0x1b34>
80021b48: 00 00 00 00  	nop
80021b4c: d5 86 00 08  	j	0x21b54 <.text+0x1b54>
80021b50: 00 00 00 00  	nop
80021b54: 14 00 c1 8f  	lw	$1, 0x14($fp)
80021b58: 10 00 c2 8f  	lw	$2, 0x10($fp)
80021b5c: 04 00 42 8c  	lw	$2, 0x4($2)
80021b60: 00 00 41 a0  	sb	$1, 0x0($2)
80021b64: 25 e8 c0 03  	move	$sp, $fp
80021b68: 20 00 be 8f  	lw	$fp, 0x20($sp)
80021b6c: 24 00 bf 8f  	lw	$ra, 0x24($sp)
80021b70: 28 00 bd 27  	addiu	$sp, $sp, 0x28
80021b74: 08 00 e0 03  	jr	$ra
80021b78: 00 00 00 00  	nop
80021b7c: b8 ff bd 27  	addiu	$sp, $sp, -0x48
80021b80: 44 00 bf af  	sw	$ra, 0x44($sp)
80021b84: 40 00 be af  	sw	$fp, 0x40($sp)
80021b88: 25 f0 a0 03  	move	$fp, $sp
80021b8c: 14 00 c6 af  	sw	$6, 0x14($fp)
80021b90: 25 08 a0 00  	move	$1, $5
80021b94: 14 00 c5 8f  	lw	$5, 0x14($fp)
80021b98: 18 00 c1 af  	sw	$1, 0x18($fp)
80021b9c: 25 08 80 00  	move	$1, $4
80021ba0: 18 00 c4 8f  	lw	$4, 0x18($fp)
80021ba4: 1c 00 c1 af  	sw	$1, 0x1c($fp)
80021ba8: 30 00 c1 af  	sw	$1, 0x30($fp)
80021bac: 34 00 c4 af  	sw	$4, 0x34($fp)
80021bb0: 38 00 c5 af  	sw	$5, 0x38($fp)
80021bb4: eb 90 00 0c  	jal	0x243ac <.text+0x43ac>
80021bb8: 00 00 00 00  	nop
80021bbc: 25 20 40 00  	move	$4, $2
80021bc0: 25 28 60 00  	move	$5, $3
80021bc4: dd 90 00 0c  	jal	0x24374 <.text+0x4374>
80021bc8: 00 00 00 00  	nop
80021bcc: 24 00 c2 af  	sw	$2, 0x24($fp)
80021bd0: 28 00 c3 af  	sw	$3, 0x28($fp)
80021bd4: f7 86 00 08  	j	0x21bdc <.text+0x1bdc>
80021bd8: 00 00 00 00  	nop
80021bdc: 24 00 c4 27  	addiu	$4, $fp, 0x24
80021be0: 4f 86 00 0c  	jal	0x2193c <.text+0x193c>
80021be4: 00 00 00 00  	nop
80021be8: 01 00 41 30  	andi	$1, $2, 0x1
80021bec: 2e 00 c1 a3  	sb	$1, 0x2e($fp)
80021bf0: 2f 00 c3 a3  	sb	$3, 0x2f($fp)
80021bf4: 2e 00 c1 93  	lbu	$1, 0x2e($fp)
80021bf8: 01 00 21 30  	andi	$1, $1, 0x1
80021bfc: 0d 00 20 14  	bnez	$1, 0x80021c34 <.text+0x1c34>
80021c00: 00 00 00 00  	nop
80021c04: 03 87 00 08  	j	0x21c0c <.text+0x1c0c>
80021c08: 00 00 00 00  	nop
80021c0c: 00 00 01 24  	addiu	$1, $zero, 0x0
80021c10: 23 00 c0 a3  	sb	$zero, 0x23($fp)
80021c14: 23 00 c1 93  	lbu	$1, 0x23($fp)
80021c18: 01 00 22 30  	andi	$2, $1, 0x1
80021c1c: 25 e8 c0 03  	move	$sp, $fp
80021c20: 40 00 be 8f  	lw	$fp, 0x40($sp)
80021c24: 44 00 bf 8f  	lw	$ra, 0x44($sp)
80021c28: 48 00 bd 27  	addiu	$sp, $sp, 0x48
80021c2c: 08 00 e0 03  	jr	$ra
80021c30: 00 00 00 00  	nop
80021c34: 1c 00 c4 8f  	lw	$4, 0x1c($fp)
80021c38: 2f 00 c5 93  	lbu	$5, 0x2f($fp)
80021c3c: 3f 00 c5 a3  	sb	$5, 0x3f($fp)
80021c40: b9 86 00 0c  	jal	0x21ae4 <.text+0x1ae4>
80021c44: 00 00 00 00  	nop
80021c48: f7 86 00 08  	j	0x21bdc <.text+0x1bdc>
80021c4c: 00 00 00 00  	nop
80021c50: d8 ff bd 27  	addiu	$sp, $sp, -0x28
80021c54: 24 00 bf af  	sw	$ra, 0x24($sp)
80021c58: 20 00 be af  	sw	$fp, 0x20($sp)
80021c5c: 25 f0 a0 03  	move	$fp, $sp
80021c60: ff 00 81 30  	andi	$1, $4, 0xff
80021c64: 25 10 80 00  	move	$2, $4
80021c68: 18 00 c2 af  	sw	$2, 0x18($fp)
80021c6c: 1f 00 c4 a3  	sb	$4, 0x1f($fp)
80021c70: 0a 00 02 24  	addiu	$2, $zero, 0xa
80021c74: 08 00 22 14  	bne	$1, $2, 0x80021c98 <.text+0x1c98>
80021c78: 00 00 00 00  	nop
80021c7c: 21 87 00 08  	j	0x21c84 <.text+0x1c84>
80021c80: 00 00 00 00  	nop
80021c84: 0d 00 04 24  	addiu	$4, $zero, 0xd
80021c88: 14 87 00 0c  	jal	0x21c50 <.text+0x1c50>
80021c8c: 00 00 00 00  	nop
80021c90: 26 87 00 08  	j	0x21c98 <.text+0x1c98>
80021c94: 00 00 00 00  	nop
80021c98: 00 b8 01 3c  	lui	$1, 0xb800
80021c9c: fd 03 21 34  	ori	$1, $1, 0x3fd
80021ca0: 14 00 c1 af  	sw	$1, 0x14($fp)
80021ca4: 00 00 01 24  	addiu	$1, $zero, 0x0
80021ca8: 0b 00 00 14  	bnez	$zero, 0x80021cd8 <.text+0x1cd8>
80021cac: 00 00 00 00  	nop
80021cb0: 2e 87 00 08  	j	0x21cb8 <.text+0x1cb8>
80021cb4: 00 00 00 00  	nop
80021cb8: 14 00 c4 8f  	lw	$4, 0x14($fp)
80021cbc: ee 8e 00 0c  	jal	0x23bb8 <.text+0x3bb8>
80021cc0: 00 00 00 00  	nop
80021cc4: 20 00 41 30  	andi	$1, $2, 0x20
80021cc8: f3 ff 20 10  	beqz	$1, 0x80021c98 <.text+0x1c98>
80021ccc: 00 00 00 00  	nop
80021cd0: 3a 87 00 08  	j	0x21ce8 <.text+0x1ce8>
80021cd4: 00 00 00 00  	nop
80021cd8: 03 80 01 3c  	lui	$1, 0x8003
80021cdc: 28 02 24 24  	addiu	$4, $1, 0x228
80021ce0: be b2 00 0c  	jal	0x2caf8 <.text+0xcaf8>
80021ce4: 00 00 00 00  	nop
80021ce8: 00 b8 01 3c  	lui	$1, 0xb800
80021cec: f8 03 21 34  	ori	$1, $1, 0x3f8
80021cf0: 10 00 c1 af  	sw	$1, 0x10($fp)
80021cf4: 00 00 01 24  	addiu	$1, $zero, 0x0
80021cf8: 0d 00 00 14  	bnez	$zero, 0x80021d30 <.text+0x1d30>
80021cfc: 00 00 00 00  	nop
80021d00: 42 87 00 08  	j	0x21d08 <.text+0x1d08>
80021d04: 00 00 00 00  	nop
80021d08: 18 00 c5 8f  	lw	$5, 0x18($fp)
80021d0c: 10 00 c4 8f  	lw	$4, 0x10($fp)
80021d10: 0a 8f 00 0c  	jal	0x23c28 <.text+0x3c28>
80021d14: 00 00 00 00  	nop
80021d18: 25 e8 c0 03  	move	$sp, $fp
80021d1c: 20 00 be 8f  	lw	$fp, 0x20($sp)
80021d20: 24 00 bf 8f  	lw	$ra, 0x24($sp)
80021d24: 28 00 bd 27  	addiu	$sp, $sp, 0x28
80021d28: 08 00 e0 03  	jr	$ra
80021d2c: 00 00 00 00  	nop
80021d30: 03 80 01 3c  	lui	$1, 0x8003
80021d34: 38 02 24 24  	addiu	$4, $1, 0x238
80021d38: be b2 00 0c  	jal	0x2caf8 <.text+0xcaf8>
80021d3c: 00 00 00 00  	nop
80021d40: c0 ff bd 27  	addiu	$sp, $sp, -0x40
80021d44: 3c 00 bf af  	sw	$ra, 0x3c($sp)
80021d48: 38 00 be af  	sw	$fp, 0x38($sp)
80021d4c: 25 f0 a0 03  	move	$fp, $sp
80021d50: 10 00 c6 af  	sw	$6, 0x10($fp)
80021d54: 25 08 a0 00  	move	$1, $5
80021d58: 10 00 c5 8f  	lw	$5, 0x10($fp)
80021d5c: 14 00 c1 af  	sw	$1, 0x14($fp)
80021d60: 25 08 80 00  	move	$1, $4
80021d64: 14 00 c4 8f  	lw	$4, 0x14($fp)
80021d68: 28 00 c1 af  	sw	$1, 0x28($fp)
80021d6c: 2c 00 c4 af  	sw	$4, 0x2c($fp)
80021d70: 30 00 c5 af  	sw	$5, 0x30($fp)
80021d74: eb 90 00 0c  	jal	0x243ac <.text+0x43ac>
80021d78: 00 00 00 00  	nop
80021d7c: 25 20 40 00  	move	$4, $2
80021d80: 25 28 60 00  	move	$5, $3
80021d84: dd 90 00 0c  	jal	0x24374 <.text+0x4374>
80021d88: 00 00 00 00  	nop
80021d8c: 1c 00 c2 af  	sw	$2, 0x1c($fp)
80021d90: 20 00 c3 af  	sw	$3, 0x20($fp)
80021d94: 67 87 00 08  	j	0x21d9c <.text+0x1d9c>
80021d98: 00 00 00 00  	nop
80021d9c: 1c 00 c4 27  	addiu	$4, $fp, 0x1c
80021da0: 4f 86 00 0c  	jal	0x2193c <.text+0x193c>
80021da4: 00 00 00 00  	nop
80021da8: 01 00 41 30  	andi	$1, $2, 0x1
80021dac: 26 00 c1 a3  	sb	$1, 0x26($fp)
80021db0: 27 00 c3 a3  	sb	$3, 0x27($fp)
80021db4: 26 00 c1 93  	lbu	$1, 0x26($fp)
80021db8: 01 00 21 30  	andi	$1, $1, 0x1
80021dbc: 0d 00 20 14  	bnez	$1, 0x80021df4 <.text+0x1df4>
80021dc0: 00 00 00 00  	nop
80021dc4: 73 87 00 08  	j	0x21dcc <.text+0x1dcc>
80021dc8: 00 00 00 00  	nop
80021dcc: 00 00 01 24  	addiu	$1, $zero, 0x0
80021dd0: 1b 00 c0 a3  	sb	$zero, 0x1b($fp)
80021dd4: 1b 00 c1 93  	lbu	$1, 0x1b($fp)
80021dd8: 01 00 22 30  	andi	$2, $1, 0x1
80021ddc: 25 e8 c0 03  	move	$sp, $fp
80021de0: 38 00 be 8f  	lw	$fp, 0x38($sp)
80021de4: 3c 00 bf 8f  	lw	$ra, 0x3c($sp)
80021de8: 40 00 bd 27  	addiu	$sp, $sp, 0x40
80021dec: 08 00 e0 03  	jr	$ra
80021df0: 00 00 00 00  	nop
80021df4: 27 00 c4 93  	lbu	$4, 0x27($fp)
80021df8: 37 00 c4 a3  	sb	$4, 0x37($fp)
80021dfc: 14 87 00 0c  	jal	0x21c50 <.text+0x1c50>
80021e00: 00 00 00 00  	nop
80021e04: 67 87 00 08  	j	0x21d9c <.text+0x1d9c>
80021e08: 00 00 00 00  	nop
80021e0c: c0 ff bd 27  	addiu	$sp, $sp, -0x40
80021e10: 3c 00 bf af  	sw	$ra, 0x3c($sp)
80021e14: 38 00 be af  	sw	$fp, 0x38($sp)
80021e18: 25 f0 a0 03  	move	$fp, $sp
80021e1c: 14 00 81 8c  	lw	$1, 0x14($4)
80021e20: 30 00 c1 af  	sw	$1, 0x30($fp)
80021e24: 10 00 81 8c  	lw	$1, 0x10($4)
80021e28: 2c 00 c1 af  	sw	$1, 0x2c($fp)
80021e2c: 0c 00 81 8c  	lw	$1, 0xc($4)
80021e30: 28 00 c1 af  	sw	$1, 0x28($fp)
80021e34: 08 00 81 8c  	lw	$1, 0x8($4)
80021e38: 24 00 c1 af  	sw	$1, 0x24($fp)
80021e3c: 04 00 81 8c  	lw	$1, 0x4($4)
80021e40: 20 00 c1 af  	sw	$1, 0x20($fp)
80021e44: 00 00 81 8c  	lw	$1, 0x0($4)
80021e48: 1c 00 c1 af  	sw	$1, 0x1c($fp)
80021e4c: 1b 00 c4 27  	addiu	$4, $fp, 0x1b
80021e50: 1c 00 c5 27  	addiu	$5, $fp, 0x1c
80021e54: 6b 84 00 0c  	jal	0x211ac <.text+0x11ac>
80021e58: 00 00 00 00  	nop
80021e5c: 36 00 c2 a3  	sb	$2, 0x36($fp)
80021e60: 36 00 c1 93  	lbu	$1, 0x36($fp)
80021e64: 01 00 21 30  	andi	$1, $1, 0x1
80021e68: 0f 00 20 10  	beqz	$1, 0x80021ea8 <.text+0x1ea8>
80021e6c: 00 00 00 00  	nop
80021e70: 9e 87 00 08  	j	0x21e78 <.text+0x1e78>
80021e74: 00 00 00 00  	nop
80021e78: 03 80 01 3c  	lui	$1, 0x8003
80021e7c: 48 02 21 24  	addiu	$1, $1, 0x248
80021e80: 25 10 a0 03  	move	$2, $sp
80021e84: 10 00 41 ac  	sw	$1, 0x10($2)
80021e88: 03 80 01 3c  	lui	$1, 0x8003
80021e8c: d6 01 24 24  	addiu	$4, $1, 0x1d6
80021e90: 03 80 01 3c  	lui	$1, 0x8003
80021e94: 04 02 27 24  	addiu	$7, $1, 0x204
80021e98: 2b 00 05 24  	addiu	$5, $zero, 0x2b
80021e9c: 37 00 c6 27  	addiu	$6, $fp, 0x37
80021ea0: 82 bd 00 0c  	jal	0x2f608 <.text+0xf608>
80021ea4: 00 00 00 00  	nop
80021ea8: 25 e8 c0 03  	move	$sp, $fp
80021eac: 38 00 be 8f  	lw	$fp, 0x38($sp)
80021eb0: 3c 00 bf 8f  	lw	$ra, 0x3c($sp)
80021eb4: 40 00 bd 27  	addiu	$sp, $sp, 0x40
80021eb8: 08 00 e0 03  	jr	$ra
80021ebc: 00 00 00 00  	nop
80021ec0: 88 ff bd 27  	addiu	$sp, $sp, -0x78
80021ec4: 74 00 bf af  	sw	$ra, 0x74($sp)
80021ec8: 70 00 be af  	sw	$fp, 0x70($sp)
80021ecc: 25 f0 a0 03  	move	$fp, $sp
80021ed0: 1c 00 c4 af  	sw	$4, 0x1c($fp)
80021ed4: 03 80 01 3c  	lui	$1, 0x8003
80021ed8: 68 02 24 24  	addiu	$4, $1, 0x268
80021edc: 21 88 00 0c  	jal	0x22084 <.text+0x2084>
80021ee0: 00 00 00 00  	nop
80021ee4: 25 08 40 00  	move	$1, $2
80021ee8: 20 00 c1 af  	sw	$1, 0x20($fp)
80021eec: 50 00 c2 af  	sw	$2, 0x50($fp)
80021ef0: 60 00 c2 af  	sw	$2, 0x60($fp)
80021ef4: bf 87 00 08  	j	0x21efc <.text+0x1efc>
80021ef8: 00 00 00 00  	nop
80021efc: 20 00 c4 8f  	lw	$4, 0x20($fp)
80021f00: 02 00 01 24  	addiu	$1, $zero, 0x2
80021f04: 5e 00 c1 a3  	sb	$1, 0x5e($fp)
80021f08: 00 00 05 24  	addiu	$5, $zero, 0x0
80021f0c: 5f 00 c0 a3  	sb	$zero, 0x5f($fp)
80021f10: 5e 00 c7 93  	lbu	$7, 0x5e($fp)
80021f14: 5f 00 c1 93  	lbu	$1, 0x5f($fp)
80021f18: 25 10 a0 03  	move	$2, $sp
80021f1c: 10 00 41 ac  	sw	$1, 0x10($2)
80021f20: 01 00 06 24  	addiu	$6, $zero, 0x1
80021f24: d3 8f 00 0c  	jal	0x23f4c <.text+0x3f4c>
80021f28: 00 00 00 00  	nop
80021f2c: 01 00 41 30  	andi	$1, $2, 0x1
80021f30: 5c 00 c1 a3  	sb	$1, 0x5c($fp)
80021f34: 5d 00 c3 a3  	sb	$3, 0x5d($fp)
80021f38: 5c 00 c4 27  	addiu	$4, $fp, 0x5c
80021f3c: 9d 86 00 0c  	jal	0x21a74 <.text+0x1a74>
80021f40: 00 00 00 00  	nop
80021f44: 12 00 40 10  	beqz	$2, 0x80021f90 <.text+0x1f90>
80021f48: 00 00 00 00  	nop
80021f4c: d5 87 00 08  	j	0x21f54 <.text+0x1f54>
80021f50: 00 00 00 00  	nop
80021f54: 20 00 c4 8f  	lw	$4, 0x20($fp)
80021f58: 6c 00 c4 af  	sw	$4, 0x6c($fp)
80021f5c: 00 00 01 24  	addiu	$1, $zero, 0x0
80021f60: 6b 00 c0 a3  	sb	$zero, 0x6b($fp)
80021f64: 6b 00 c5 93  	lbu	$5, 0x6b($fp)
80021f68: 24 90 00 0c  	jal	0x24090 <.text+0x4090>
80021f6c: 00 00 00 00  	nop
80021f70: e2 ff 40 10  	beqz	$2, 0x80021efc <.text+0x1efc>
80021f74: 00 00 00 00  	nop
80021f78: e0 87 00 08  	j	0x21f80 <.text+0x1f80>
80021f7c: 00 00 00 00  	nop
80021f80: a9 90 00 0c  	jal	0x242a4 <.text+0x42a4>
80021f84: 00 00 00 00  	nop
80021f88: d5 87 00 08  	j	0x21f54 <.text+0x1f54>
80021f8c: 00 00 00 00  	nop
80021f90: 20 00 c2 8f  	lw	$2, 0x20($fp)
80021f94: 04 00 41 24  	addiu	$1, $2, 0x4
80021f98: 64 00 c1 af  	sw	$1, 0x64($fp)
80021f9c: 54 00 c2 af  	sw	$2, 0x54($fp)
80021fa0: 58 00 c1 af  	sw	$1, 0x58($fp)
80021fa4: 54 00 c2 8f  	lw	$2, 0x54($fp)
80021fa8: 58 00 c1 8f  	lw	$1, 0x58($fp)
80021fac: 48 00 c2 af  	sw	$2, 0x48($fp)
80021fb0: 4c 00 c1 af  	sw	$1, 0x4c($fp)
80021fb4: 48 00 c2 8f  	lw	$2, 0x48($fp)
80021fb8: 4c 00 c1 8f  	lw	$1, 0x4c($fp)
80021fbc: 24 00 c2 af  	sw	$2, 0x24($fp)
80021fc0: 28 00 c1 af  	sw	$1, 0x28($fp)
80021fc4: 24 00 c4 27  	addiu	$4, $fp, 0x24
80021fc8: 7a 8e 00 0c  	jal	0x239e8 <.text+0x39e8>
80021fcc: 00 00 00 00  	nop
80021fd0: 1c 00 c1 8f  	lw	$1, 0x1c($fp)
80021fd4: 25 20 40 00  	move	$4, $2
80021fd8: 14 00 22 8c  	lw	$2, 0x14($1)
80021fdc: 40 00 c2 af  	sw	$2, 0x40($fp)
80021fe0: 10 00 22 8c  	lw	$2, 0x10($1)
80021fe4: 3c 00 c2 af  	sw	$2, 0x3c($fp)
80021fe8: 0c 00 22 8c  	lw	$2, 0xc($1)
80021fec: 38 00 c2 af  	sw	$2, 0x38($fp)
80021ff0: 08 00 22 8c  	lw	$2, 0x8($1)
80021ff4: 34 00 c2 af  	sw	$2, 0x34($fp)
80021ff8: 04 00 22 8c  	lw	$2, 0x4($1)
80021ffc: 30 00 c2 af  	sw	$2, 0x30($fp)
80022000: 00 00 21 8c  	lw	$1, 0x0($1)
80022004: 2c 00 c1 af  	sw	$1, 0x2c($fp)
80022008: 2c 00 c5 27  	addiu	$5, $fp, 0x2c
8002200c: 51 84 00 0c  	jal	0x21144 <.text+0x1144>
80022010: 00 00 00 00  	nop
80022014: 46 00 c2 a3  	sb	$2, 0x46($fp)
80022018: 46 00 c1 93  	lbu	$1, 0x46($fp)
8002201c: 01 00 21 30  	andi	$1, $1, 0x1
80022020: 0f 00 20 10  	beqz	$1, 0x80022060 <.text+0x2060>
80022024: 00 00 00 00  	nop
80022028: 0c 88 00 08  	j	0x22030 <.text+0x2030>
8002202c: 00 00 00 00  	nop
80022030: 03 80 01 3c  	lui	$1, 0x8003
80022034: 58 02 21 24  	addiu	$1, $1, 0x258
80022038: 25 10 a0 03  	move	$2, $sp
8002203c: 10 00 41 ac  	sw	$1, 0x10($2)
80022040: 03 80 01 3c  	lui	$1, 0x8003
80022044: d6 01 24 24  	addiu	$4, $1, 0x1d6
80022048: 03 80 01 3c  	lui	$1, 0x8003
8002204c: 04 02 27 24  	addiu	$7, $1, 0x204
80022050: 2b 00 05 24  	addiu	$5, $zero, 0x2b
80022054: 47 00 c6 27  	addiu	$6, $fp, 0x47
80022058: 82 bd 00 0c  	jal	0x2f608 <.text+0xf608>
8002205c: 00 00 00 00  	nop
80022060: 24 00 c4 27  	addiu	$4, $fp, 0x24
80022064: 40 8d 00 0c  	jal	0x23500 <.text+0x3500>
80022068: 00 00 00 00  	nop
8002206c: 25 e8 c0 03  	move	$sp, $fp
80022070: 70 00 be 8f  	lw	$fp, 0x70($sp)
80022074: 74 00 bf 8f  	lw	$ra, 0x74($sp)
80022078: 78 00 bd 27  	addiu	$sp, $sp, 0x78
8002207c: 08 00 e0 03  	jr	$ra
80022080: 00 00 00 00  	nop
80022084: e0 ff bd 27  	addiu	$sp, $sp, -0x20
80022088: 1c 00 bf af  	sw	$ra, 0x1c($sp)
8002208c: 18 00 be af  	sw	$fp, 0x18($sp)
80022090: 25 f0 a0 03  	move	$fp, $sp
80022094: 10 00 c4 af  	sw	$4, 0x10($fp)
80022098: 03 80 01 3c  	lui	$1, 0x8003
8002209c: 08 30 24 24  	addiu	$4, $1, 0x3008
800220a0: 14 00 c4 af  	sw	$4, 0x14($fp)
800220a4: 28 8f 00 0c  	jal	0x23ca0 <.text+0x3ca0>
800220a8: 00 00 00 00  	nop
800220ac: 25 e8 c0 03  	move	$sp, $fp
800220b0: 18 00 be 8f  	lw	$fp, 0x18($sp)
800220b4: 1c 00 bf 8f  	lw	$ra, 0x1c($sp)
800220b8: 20 00 bd 27  	addiu	$sp, $sp, 0x20
800220bc: 08 00 e0 03  	jr	$ra
800220c0: 00 00 00 00  	nop
800220c4: 58 ff bd 27  	addiu	$sp, $sp, -0xa8
800220c8: a4 00 bf af  	sw	$ra, 0xa4($sp)
800220cc: a0 00 be af  	sw	$fp, 0xa0($sp)
800220d0: 25 f0 a0 03  	move	$fp, $sp
800220d4: 34 00 c6 af  	sw	$6, 0x34($fp)
800220d8: 38 00 c5 af  	sw	$5, 0x38($fp)
800220dc: 3c 00 c4 af  	sw	$4, 0x3c($fp)
800220e0: b8 00 c1 8f  	lw	$1, 0xb8($fp)
800220e4: 88 00 c4 af  	sw	$4, 0x88($fp)
800220e8: 8c 00 c5 af  	sw	$5, 0x8c($fp)
800220ec: 90 00 c6 af  	sw	$6, 0x90($fp)
800220f0: 96 00 c7 a3  	sb	$7, 0x96($fp)
800220f4: 97 00 c1 a3  	sb	$1, 0x97($fp)
800220f8: 56 00 c7 a3  	sb	$7, 0x56($fp)
800220fc: 57 00 c1 a3  	sb	$1, 0x57($fp)
80022100: 56 00 c1 93  	lbu	$1, 0x56($fp)
80022104: 40 00 c1 af  	sw	$1, 0x40($fp)
80022108: 40 00 c1 8f  	lw	$1, 0x40($fp)
8002210c: 80 08 01 00  	sll	$1, $1, 0x2
80022110: 03 80 02 3c  	lui	$2, 0x8003
80022114: 21 08 22 00  	addu	$1, $1, $2
80022118: 68 02 21 8c  	lw	$1, 0x268($1)
8002211c: 08 00 20 00  	jr	$1
80022120: 00 00 00 00  	nop
80022124: 0d 00 00 00  	break
80022128: 57 00 c1 93  	lbu	$1, 0x57($fp)
8002212c: 30 00 c1 af  	sw	$1, 0x30($fp)
80022130: 5d 00 20 10  	beqz	$1, 0x800222a8 <.text+0x22a8>
80022134: 00 00 00 00  	nop
80022138: 50 88 00 08  	j	0x22140 <.text+0x2140>
8002213c: 00 00 00 00  	nop
80022140: 30 00 c1 8f  	lw	$1, 0x30($fp)
80022144: 02 00 02 24  	addiu	$2, $zero, 0x2
80022148: 68 00 22 10  	beq	$1, $2, 0x800222ec <.text+0x22ec>
8002214c: 00 00 00 00  	nop
80022150: 56 88 00 08  	j	0x22158 <.text+0x2158>
80022154: 00 00 00 00  	nop
80022158: 30 00 c1 8f  	lw	$1, 0x30($fp)
8002215c: 04 00 02 24  	addiu	$2, $zero, 0x4
80022160: 74 00 22 10  	beq	$1, $2, 0x80022334 <.text+0x2334>
80022164: 00 00 00 00  	nop
80022168: a4 88 00 08  	j	0x22290 <.text+0x2290>
8002216c: 00 00 00 00  	nop
80022170: 57 00 c1 93  	lbu	$1, 0x57($fp)
80022174: 2c 00 c1 af  	sw	$1, 0x2c($fp)
80022178: 8b 00 20 10  	beqz	$1, 0x800223a8 <.text+0x23a8>
8002217c: 00 00 00 00  	nop
80022180: 62 88 00 08  	j	0x22188 <.text+0x2188>
80022184: 00 00 00 00  	nop
80022188: 2c 00 c1 8f  	lw	$1, 0x2c($fp)
8002218c: 02 00 02 24  	addiu	$2, $zero, 0x2
80022190: 97 00 22 10  	beq	$1, $2, 0x800223f0 <.text+0x23f0>
80022194: 00 00 00 00  	nop
80022198: 68 88 00 08  	j	0x221a0 <.text+0x21a0>
8002219c: 00 00 00 00  	nop
800221a0: 2c 00 c1 8f  	lw	$1, 0x2c($fp)
800221a4: 04 00 02 24  	addiu	$2, $zero, 0x4
800221a8: a4 00 22 10  	beq	$1, $2, 0x8002243c <.text+0x243c>
800221ac: 00 00 00 00  	nop
800221b0: a4 88 00 08  	j	0x22290 <.text+0x2290>
800221b4: 00 00 00 00  	nop
800221b8: 57 00 c1 93  	lbu	$1, 0x57($fp)
800221bc: 28 00 c1 af  	sw	$1, 0x28($fp)
800221c0: b1 00 20 10  	beqz	$1, 0x80022488 <.text+0x2488>
800221c4: 00 00 00 00  	nop
800221c8: 74 88 00 08  	j	0x221d0 <.text+0x21d0>
800221cc: 00 00 00 00  	nop
800221d0: 28 00 c1 8f  	lw	$1, 0x28($fp)
800221d4: 02 00 02 24  	addiu	$2, $zero, 0x2
800221d8: bd 00 22 10  	beq	$1, $2, 0x800224d0 <.text+0x24d0>
800221dc: 00 00 00 00  	nop
800221e0: 7a 88 00 08  	j	0x221e8 <.text+0x21e8>
800221e4: 00 00 00 00  	nop
800221e8: 28 00 c1 8f  	lw	$1, 0x28($fp)
800221ec: 04 00 02 24  	addiu	$2, $zero, 0x4
800221f0: c9 00 22 10  	beq	$1, $2, 0x80022518 <.text+0x2518>
800221f4: 00 00 00 00  	nop
800221f8: a4 88 00 08  	j	0x22290 <.text+0x2290>
800221fc: 00 00 00 00  	nop
80022200: 57 00 c1 93  	lbu	$1, 0x57($fp)
80022204: 24 00 c1 af  	sw	$1, 0x24($fp)
80022208: d6 00 20 10  	beqz	$1, 0x80022564 <.text+0x2564>
8002220c: 00 00 00 00  	nop
80022210: 86 88 00 08  	j	0x22218 <.text+0x2218>
80022214: 00 00 00 00  	nop
80022218: 24 00 c1 8f  	lw	$1, 0x24($fp)
8002221c: 02 00 02 24  	addiu	$2, $zero, 0x2
80022220: e3 00 22 10  	beq	$1, $2, 0x800225b0 <.text+0x25b0>
80022224: 00 00 00 00  	nop
80022228: 8c 88 00 08  	j	0x22230 <.text+0x2230>
8002222c: 00 00 00 00  	nop
80022230: 24 00 c1 8f  	lw	$1, 0x24($fp)
80022234: 04 00 02 24  	addiu	$2, $zero, 0x4
80022238: f0 00 22 10  	beq	$1, $2, 0x800225fc <.text+0x25fc>
8002223c: 00 00 00 00  	nop
80022240: a4 88 00 08  	j	0x22290 <.text+0x2290>
80022244: 00 00 00 00  	nop
80022248: 57 00 c1 93  	lbu	$1, 0x57($fp)
8002224c: 20 00 c1 af  	sw	$1, 0x20($fp)
80022250: fd 00 20 10  	beqz	$1, 0x80022648 <.text+0x2648>
80022254: 00 00 00 00  	nop
80022258: 98 88 00 08  	j	0x22260 <.text+0x2260>
8002225c: 00 00 00 00  	nop
80022260: 20 00 c1 8f  	lw	$1, 0x20($fp)
80022264: 02 00 02 24  	addiu	$2, $zero, 0x2
80022268: 0a 01 22 10  	beq	$1, $2, 0x80022694 <.text+0x2694>
8002226c: 00 00 00 00  	nop
80022270: 9e 88 00 08  	j	0x22278 <.text+0x2278>
80022274: 00 00 00 00  	nop
80022278: 20 00 c1 8f  	lw	$1, 0x20($fp)
8002227c: 04 00 02 24  	addiu	$2, $zero, 0x4
80022280: 17 01 22 10  	beq	$1, $2, 0x800226e0 <.text+0x26e0>
80022284: 00 00 00 00  	nop
80022288: a4 88 00 08  	j	0x22290 <.text+0x2290>
8002228c: 00 00 00 00  	nop
80022290: 57 00 c1 93  	lbu	$1, 0x57($fp)
80022294: 01 00 02 24  	addiu	$2, $zero, 0x1
80022298: 37 01 22 10  	beq	$1, $2, 0x80022778 <.text+0x2778>
8002229c: 00 00 00 00  	nop
800222a0: ea 89 00 08  	j	0x227a8 <.text+0x27a8>
800222a4: 00 00 00 00  	nop
800222a8: 38 00 c1 8f  	lw	$1, 0x38($fp)
800222ac: 34 00 c6 8f  	lw	$6, 0x34($fp)
800222b0: 3c 00 c4 8f  	lw	$4, 0x3c($fp)
800222b4: 25 28 20 00  	move	$5, $1
800222b8: 00 00 82 c0  	ll	$2, 0x0($4)
800222bc: 05 00 45 14  	bne	$2, $5, 0x800222d4 <.text+0x22d4>
800222c0: 00 00 00 00  	nop
800222c4: 25 18 c0 00  	move	$3, $6
800222c8: 00 00 83 e0  	sc	$3, 0x0($4)
800222cc: fa ff 60 10  	beqz	$3, 0x800222b8 <.text+0x22b8>
800222d0: 00 00 00 00  	nop
800222d4: 26 08 41 00  	xor	$1, $2, $1
800222d8: 01 00 21 2c  	sltiu	$1, $1, 0x1
800222dc: 4c 00 c2 af  	sw	$2, 0x4c($fp)
800222e0: 50 00 c1 a3  	sb	$1, 0x50($fp)
800222e4: e0 88 00 08  	j	0x22380 <.text+0x2380>
800222e8: 00 00 00 00  	nop
800222ec: 38 00 c1 8f  	lw	$1, 0x38($fp)
800222f0: 34 00 c6 8f  	lw	$6, 0x34($fp)
800222f4: 3c 00 c4 8f  	lw	$4, 0x3c($fp)
800222f8: 25 28 20 00  	move	$5, $1
800222fc: 00 00 82 c0  	ll	$2, 0x0($4)
80022300: 05 00 45 14  	bne	$2, $5, 0x80022318 <.text+0x2318>
80022304: 00 00 00 00  	nop
80022308: 25 18 c0 00  	move	$3, $6
8002230c: 00 00 83 e0  	sc	$3, 0x0($4)
80022310: fa ff 60 10  	beqz	$3, 0x800222fc <.text+0x22fc>
80022314: 00 00 00 00  	nop
80022318: 26 08 41 00  	xor	$1, $2, $1
8002231c: 01 00 21 2c  	sltiu	$1, $1, 0x1
80022320: 0f 00 00 00  	sync
80022324: 4c 00 c2 af  	sw	$2, 0x4c($fp)
80022328: 50 00 c1 a3  	sb	$1, 0x50($fp)
8002232c: e0 88 00 08  	j	0x22380 <.text+0x2380>
80022330: 00 00 00 00  	nop
80022334: 38 00 c1 8f  	lw	$1, 0x38($fp)
80022338: 34 00 c6 8f  	lw	$6, 0x34($fp)
8002233c: 3c 00 c4 8f  	lw	$4, 0x3c($fp)
80022340: 0f 00 00 00  	sync
80022344: 25 28 20 00  	move	$5, $1
80022348: 00 00 82 c0  	ll	$2, 0x0($4)
8002234c: 05 00 45 14  	bne	$2, $5, 0x80022364 <.text+0x2364>
80022350: 00 00 00 00  	nop
80022354: 25 18 c0 00  	move	$3, $6
80022358: 00 00 83 e0  	sc	$3, 0x0($4)
8002235c: fa ff 60 10  	beqz	$3, 0x80022348 <.text+0x2348>
80022360: 00 00 00 00  	nop
80022364: 26 08 41 00  	xor	$1, $2, $1
80022368: 01 00 21 2c  	sltiu	$1, $1, 0x1
8002236c: 0f 00 00 00  	sync
80022370: 4c 00 c2 af  	sw	$2, 0x4c($fp)
80022374: 50 00 c1 a3  	sb	$1, 0x50($fp)
80022378: e0 88 00 08  	j	0x22380 <.text+0x2380>
8002237c: 00 00 00 00  	nop
80022380: 4c 00 c1 8f  	lw	$1, 0x4c($fp)
80022384: 1c 00 c1 af  	sw	$1, 0x1c($fp)
80022388: 98 00 c1 af  	sw	$1, 0x98($fp)
8002238c: 50 00 c1 93  	lbu	$1, 0x50($fp)
80022390: 01 00 21 30  	andi	$1, $1, 0x1
80022394: 9f 00 c1 a3  	sb	$1, 0x9f($fp)
80022398: ea 00 20 14  	bnez	$1, 0x80022744 <.text+0x2744>
8002239c: 00 00 00 00  	nop
800223a0: cb 89 00 08  	j	0x2272c <.text+0x272c>
800223a4: 00 00 00 00  	nop
800223a8: 38 00 c1 8f  	lw	$1, 0x38($fp)
800223ac: 34 00 c6 8f  	lw	$6, 0x34($fp)
800223b0: 3c 00 c4 8f  	lw	$4, 0x3c($fp)
800223b4: 0f 00 00 00  	sync
800223b8: 25 28 20 00  	move	$5, $1
800223bc: 00 00 82 c0  	ll	$2, 0x0($4)
800223c0: 05 00 45 14  	bne	$2, $5, 0x800223d8 <.text+0x23d8>
800223c4: 00 00 00 00  	nop
800223c8: 25 18 c0 00  	move	$3, $6
800223cc: 00 00 83 e0  	sc	$3, 0x0($4)
800223d0: fa ff 60 10  	beqz	$3, 0x800223bc <.text+0x23bc>
800223d4: 00 00 00 00  	nop
800223d8: 26 08 41 00  	xor	$1, $2, $1
800223dc: 01 00 21 2c  	sltiu	$1, $1, 0x1
800223e0: 4c 00 c2 af  	sw	$2, 0x4c($fp)
800223e4: 50 00 c1 a3  	sb	$1, 0x50($fp)
800223e8: e0 88 00 08  	j	0x22380 <.text+0x2380>
800223ec: 00 00 00 00  	nop
800223f0: 38 00 c1 8f  	lw	$1, 0x38($fp)
800223f4: 34 00 c6 8f  	lw	$6, 0x34($fp)
800223f8: 3c 00 c4 8f  	lw	$4, 0x3c($fp)
800223fc: 0f 00 00 00  	sync
80022400: 25 28 20 00  	move	$5, $1
80022404: 00 00 82 c0  	ll	$2, 0x0($4)
80022408: 05 00 45 14  	bne	$2, $5, 0x80022420 <.text+0x2420>
8002240c: 00 00 00 00  	nop
80022410: 25 18 c0 00  	move	$3, $6
80022414: 00 00 83 e0  	sc	$3, 0x0($4)
80022418: fa ff 60 10  	beqz	$3, 0x80022404 <.text+0x2404>
8002241c: 00 00 00 00  	nop
80022420: 26 08 41 00  	xor	$1, $2, $1
80022424: 01 00 21 2c  	sltiu	$1, $1, 0x1
80022428: 0f 00 00 00  	sync
8002242c: 4c 00 c2 af  	sw	$2, 0x4c($fp)
80022430: 50 00 c1 a3  	sb	$1, 0x50($fp)
80022434: e0 88 00 08  	j	0x22380 <.text+0x2380>
80022438: 00 00 00 00  	nop
8002243c: 38 00 c1 8f  	lw	$1, 0x38($fp)
80022440: 34 00 c6 8f  	lw	$6, 0x34($fp)
80022444: 3c 00 c4 8f  	lw	$4, 0x3c($fp)
80022448: 0f 00 00 00  	sync
8002244c: 25 28 20 00  	move	$5, $1
80022450: 00 00 82 c0  	ll	$2, 0x0($4)
80022454: 05 00 45 14  	bne	$2, $5, 0x8002246c <.text+0x246c>
80022458: 00 00 00 00  	nop
8002245c: 25 18 c0 00  	move	$3, $6
80022460: 00 00 83 e0  	sc	$3, 0x0($4)
80022464: fa ff 60 10  	beqz	$3, 0x80022450 <.text+0x2450>
80022468: 00 00 00 00  	nop
8002246c: 26 08 41 00  	xor	$1, $2, $1
80022470: 01 00 21 2c  	sltiu	$1, $1, 0x1
80022474: 0f 00 00 00  	sync
80022478: 4c 00 c2 af  	sw	$2, 0x4c($fp)
8002247c: 50 00 c1 a3  	sb	$1, 0x50($fp)
80022480: e0 88 00 08  	j	0x22380 <.text+0x2380>
80022484: 00 00 00 00  	nop
80022488: 38 00 c1 8f  	lw	$1, 0x38($fp)
8002248c: 34 00 c6 8f  	lw	$6, 0x34($fp)
80022490: 3c 00 c4 8f  	lw	$4, 0x3c($fp)
80022494: 25 28 20 00  	move	$5, $1
80022498: 00 00 82 c0  	ll	$2, 0x0($4)
8002249c: 05 00 45 14  	bne	$2, $5, 0x800224b4 <.text+0x24b4>
800224a0: 00 00 00 00  	nop
800224a4: 25 18 c0 00  	move	$3, $6
800224a8: 00 00 83 e0  	sc	$3, 0x0($4)
800224ac: fa ff 60 10  	beqz	$3, 0x80022498 <.text+0x2498>
800224b0: 00 00 00 00  	nop
800224b4: 26 08 41 00  	xor	$1, $2, $1
800224b8: 01 00 21 2c  	sltiu	$1, $1, 0x1
800224bc: 0f 00 00 00  	sync
800224c0: 4c 00 c2 af  	sw	$2, 0x4c($fp)
800224c4: 50 00 c1 a3  	sb	$1, 0x50($fp)
800224c8: e0 88 00 08  	j	0x22380 <.text+0x2380>
800224cc: 00 00 00 00  	nop
800224d0: 38 00 c1 8f  	lw	$1, 0x38($fp)
800224d4: 34 00 c6 8f  	lw	$6, 0x34($fp)
800224d8: 3c 00 c4 8f  	lw	$4, 0x3c($fp)
800224dc: 25 28 20 00  	move	$5, $1
800224e0: 00 00 82 c0  	ll	$2, 0x0($4)
800224e4: 05 00 45 14  	bne	$2, $5, 0x800224fc <.text+0x24fc>
800224e8: 00 00 00 00  	nop
800224ec: 25 18 c0 00  	move	$3, $6
800224f0: 00 00 83 e0  	sc	$3, 0x0($4)
800224f4: fa ff 60 10  	beqz	$3, 0x800224e0 <.text+0x24e0>
800224f8: 00 00 00 00  	nop
800224fc: 26 08 41 00  	xor	$1, $2, $1
80022500: 01 00 21 2c  	sltiu	$1, $1, 0x1
80022504: 0f 00 00 00  	sync
80022508: 4c 00 c2 af  	sw	$2, 0x4c($fp)
8002250c: 50 00 c1 a3  	sb	$1, 0x50($fp)
80022510: e0 88 00 08  	j	0x22380 <.text+0x2380>
80022514: 00 00 00 00  	nop
80022518: 38 00 c1 8f  	lw	$1, 0x38($fp)
8002251c: 34 00 c6 8f  	lw	$6, 0x34($fp)
80022520: 3c 00 c4 8f  	lw	$4, 0x3c($fp)
80022524: 0f 00 00 00  	sync
80022528: 25 28 20 00  	move	$5, $1
8002252c: 00 00 82 c0  	ll	$2, 0x0($4)
80022530: 05 00 45 14  	bne	$2, $5, 0x80022548 <.text+0x2548>
80022534: 00 00 00 00  	nop
80022538: 25 18 c0 00  	move	$3, $6
8002253c: 00 00 83 e0  	sc	$3, 0x0($4)
80022540: fa ff 60 10  	beqz	$3, 0x8002252c <.text+0x252c>
80022544: 00 00 00 00  	nop
80022548: 26 08 41 00  	xor	$1, $2, $1
8002254c: 01 00 21 2c  	sltiu	$1, $1, 0x1
80022550: 0f 00 00 00  	sync
80022554: 4c 00 c2 af  	sw	$2, 0x4c($fp)
80022558: 50 00 c1 a3  	sb	$1, 0x50($fp)
8002255c: e0 88 00 08  	j	0x22380 <.text+0x2380>
80022560: 00 00 00 00  	nop
80022564: 38 00 c1 8f  	lw	$1, 0x38($fp)
80022568: 34 00 c6 8f  	lw	$6, 0x34($fp)
8002256c: 3c 00 c4 8f  	lw	$4, 0x3c($fp)
80022570: 0f 00 00 00  	sync
80022574: 25 28 20 00  	move	$5, $1
80022578: 00 00 82 c0  	ll	$2, 0x0($4)
8002257c: 05 00 45 14  	bne	$2, $5, 0x80022594 <.text+0x2594>
80022580: 00 00 00 00  	nop
80022584: 25 18 c0 00  	move	$3, $6
80022588: 00 00 83 e0  	sc	$3, 0x0($4)
8002258c: fa ff 60 10  	beqz	$3, 0x80022578 <.text+0x2578>
80022590: 00 00 00 00  	nop
80022594: 26 08 41 00  	xor	$1, $2, $1
80022598: 01 00 21 2c  	sltiu	$1, $1, 0x1
8002259c: 0f 00 00 00  	sync
800225a0: 4c 00 c2 af  	sw	$2, 0x4c($fp)
800225a4: 50 00 c1 a3  	sb	$1, 0x50($fp)
800225a8: e0 88 00 08  	j	0x22380 <.text+0x2380>
800225ac: 00 00 00 00  	nop
800225b0: 38 00 c1 8f  	lw	$1, 0x38($fp)
800225b4: 34 00 c6 8f  	lw	$6, 0x34($fp)
800225b8: 3c 00 c4 8f  	lw	$4, 0x3c($fp)
800225bc: 0f 00 00 00  	sync
800225c0: 25 28 20 00  	move	$5, $1
800225c4: 00 00 82 c0  	ll	$2, 0x0($4)
800225c8: 05 00 45 14  	bne	$2, $5, 0x800225e0 <.text+0x25e0>
800225cc: 00 00 00 00  	nop
800225d0: 25 18 c0 00  	move	$3, $6
800225d4: 00 00 83 e0  	sc	$3, 0x0($4)
800225d8: fa ff 60 10  	beqz	$3, 0x800225c4 <.text+0x25c4>
800225dc: 00 00 00 00  	nop
800225e0: 26 08 41 00  	xor	$1, $2, $1
800225e4: 01 00 21 2c  	sltiu	$1, $1, 0x1
800225e8: 0f 00 00 00  	sync
800225ec: 4c 00 c2 af  	sw	$2, 0x4c($fp)
800225f0: 50 00 c1 a3  	sb	$1, 0x50($fp)
800225f4: e0 88 00 08  	j	0x22380 <.text+0x2380>
800225f8: 00 00 00 00  	nop
800225fc: 38 00 c1 8f  	lw	$1, 0x38($fp)
80022600: 34 00 c6 8f  	lw	$6, 0x34($fp)
80022604: 3c 00 c4 8f  	lw	$4, 0x3c($fp)
80022608: 0f 00 00 00  	sync
8002260c: 25 28 20 00  	move	$5, $1
80022610: 00 00 82 c0  	ll	$2, 0x0($4)
80022614: 05 00 45 14  	bne	$2, $5, 0x8002262c <.text+0x262c>
80022618: 00 00 00 00  	nop
8002261c: 25 18 c0 00  	move	$3, $6
80022620: 00 00 83 e0  	sc	$3, 0x0($4)
80022624: fa ff 60 10  	beqz	$3, 0x80022610 <.text+0x2610>
80022628: 00 00 00 00  	nop
8002262c: 26 08 41 00  	xor	$1, $2, $1
80022630: 01 00 21 2c  	sltiu	$1, $1, 0x1
80022634: 0f 00 00 00  	sync
80022638: 4c 00 c2 af  	sw	$2, 0x4c($fp)
8002263c: 50 00 c1 a3  	sb	$1, 0x50($fp)
80022640: e0 88 00 08  	j	0x22380 <.text+0x2380>
80022644: 00 00 00 00  	nop
80022648: 38 00 c1 8f  	lw	$1, 0x38($fp)
8002264c: 34 00 c6 8f  	lw	$6, 0x34($fp)
80022650: 3c 00 c4 8f  	lw	$4, 0x3c($fp)
80022654: 0f 00 00 00  	sync
80022658: 25 28 20 00  	move	$5, $1
8002265c: 00 00 82 c0  	ll	$2, 0x0($4)
80022660: 05 00 45 14  	bne	$2, $5, 0x80022678 <.text+0x2678>
80022664: 00 00 00 00  	nop
80022668: 25 18 c0 00  	move	$3, $6
8002266c: 00 00 83 e0  	sc	$3, 0x0($4)
80022670: fa ff 60 10  	beqz	$3, 0x8002265c <.text+0x265c>
80022674: 00 00 00 00  	nop
80022678: 26 08 41 00  	xor	$1, $2, $1
8002267c: 01 00 21 2c  	sltiu	$1, $1, 0x1
80022680: 0f 00 00 00  	sync
80022684: 4c 00 c2 af  	sw	$2, 0x4c($fp)
80022688: 50 00 c1 a3  	sb	$1, 0x50($fp)
8002268c: e0 88 00 08  	j	0x22380 <.text+0x2380>
80022690: 00 00 00 00  	nop
80022694: 38 00 c1 8f  	lw	$1, 0x38($fp)
80022698: 34 00 c6 8f  	lw	$6, 0x34($fp)
8002269c: 3c 00 c4 8f  	lw	$4, 0x3c($fp)
800226a0: 0f 00 00 00  	sync
800226a4: 25 28 20 00  	move	$5, $1
800226a8: 00 00 82 c0  	ll	$2, 0x0($4)
800226ac: 05 00 45 14  	bne	$2, $5, 0x800226c4 <.text+0x26c4>
800226b0: 00 00 00 00  	nop
800226b4: 25 18 c0 00  	move	$3, $6
800226b8: 00 00 83 e0  	sc	$3, 0x0($4)
800226bc: fa ff 60 10  	beqz	$3, 0x800226a8 <.text+0x26a8>
800226c0: 00 00 00 00  	nop
800226c4: 26 08 41 00  	xor	$1, $2, $1
800226c8: 01 00 21 2c  	sltiu	$1, $1, 0x1
800226cc: 0f 00 00 00  	sync
800226d0: 4c 00 c2 af  	sw	$2, 0x4c($fp)
800226d4: 50 00 c1 a3  	sb	$1, 0x50($fp)
800226d8: e0 88 00 08  	j	0x22380 <.text+0x2380>
800226dc: 00 00 00 00  	nop
800226e0: 38 00 c1 8f  	lw	$1, 0x38($fp)
800226e4: 34 00 c6 8f  	lw	$6, 0x34($fp)
800226e8: 3c 00 c4 8f  	lw	$4, 0x3c($fp)
800226ec: 0f 00 00 00  	sync
800226f0: 25 28 20 00  	move	$5, $1
800226f4: 00 00 82 c0  	ll	$2, 0x0($4)
800226f8: 05 00 45 14  	bne	$2, $5, 0x80022710 <.text+0x2710>
800226fc: 00 00 00 00  	nop
80022700: 25 18 c0 00  	move	$3, $6
80022704: 00 00 83 e0  	sc	$3, 0x0($4)
80022708: fa ff 60 10  	beqz	$3, 0x800226f4 <.text+0x26f4>
8002270c: 00 00 00 00  	nop
80022710: 26 08 41 00  	xor	$1, $2, $1
80022714: 01 00 21 2c  	sltiu	$1, $1, 0x1
80022718: 0f 00 00 00  	sync
8002271c: 4c 00 c2 af  	sw	$2, 0x4c($fp)
80022720: 50 00 c1 a3  	sb	$1, 0x50($fp)
80022724: e0 88 00 08  	j	0x22380 <.text+0x2380>
80022728: 00 00 00 00  	nop
8002272c: 1c 00 c1 8f  	lw	$1, 0x1c($fp)
80022730: 48 00 c1 af  	sw	$1, 0x48($fp)
80022734: 01 00 01 24  	addiu	$1, $zero, 0x1
80022738: 44 00 c1 af  	sw	$1, 0x44($fp)
8002273c: d6 89 00 08  	j	0x22758 <.text+0x2758>
80022740: 00 00 00 00  	nop
80022744: 1c 00 c1 8f  	lw	$1, 0x1c($fp)
80022748: 48 00 c1 af  	sw	$1, 0x48($fp)
8002274c: 44 00 c0 af  	sw	$zero, 0x44($fp)
80022750: d6 89 00 08  	j	0x22758 <.text+0x2758>
80022754: 00 00 00 00  	nop
80022758: 44 00 c2 8f  	lw	$2, 0x44($fp)
8002275c: 48 00 c3 8f  	lw	$3, 0x48($fp)
80022760: 25 e8 c0 03  	move	$sp, $fp
80022764: a0 00 be 8f  	lw	$fp, 0xa0($sp)
80022768: a4 00 bf 8f  	lw	$ra, 0xa4($sp)
8002276c: a8 00 bd 27  	addiu	$sp, $sp, 0xa8
80022770: 08 00 e0 03  	jr	$ra
80022774: 00 00 00 00  	nop
80022778: 03 80 01 3c  	lui	$1, 0x8003
8002277c: c4 02 25 24  	addiu	$5, $1, 0x2c4
80022780: 70 00 c4 27  	addiu	$4, $fp, 0x70
80022784: 18 00 c4 af  	sw	$4, 0x18($fp)
80022788: 01 00 06 24  	addiu	$6, $zero, 0x1
8002278c: a1 85 00 0c  	jal	0x21684 <.text+0x1684>
80022790: 00 00 00 00  	nop
80022794: 18 00 c4 8f  	lw	$4, 0x18($fp)
80022798: 03 80 01 3c  	lui	$1, 0x8003
8002279c: 44 03 25 24  	addiu	$5, $1, 0x344
800227a0: f6 b4 00 0c  	jal	0x2d3d8 <.text+0xd3d8>
800227a4: 00 00 00 00  	nop
800227a8: 03 80 01 3c  	lui	$1, 0x8003
800227ac: 94 03 25 24  	addiu	$5, $1, 0x394
800227b0: 58 00 c4 27  	addiu	$4, $fp, 0x58
800227b4: 14 00 c4 af  	sw	$4, 0x14($fp)
800227b8: 01 00 06 24  	addiu	$6, $zero, 0x1
800227bc: a1 85 00 0c  	jal	0x21684 <.text+0x1684>
800227c0: 00 00 00 00  	nop
800227c4: 14 00 c4 8f  	lw	$4, 0x14($fp)
800227c8: 03 80 01 3c  	lui	$1, 0x8003
800227cc: 9c 03 25 24  	addiu	$5, $1, 0x39c
800227d0: f6 b4 00 0c  	jal	0x2d3d8 <.text+0xd3d8>
800227d4: 00 00 00 00  	nop
800227d8: 38 ff bd 27  	addiu	$sp, $sp, -0xc8
800227dc: c4 00 bf af  	sw	$ra, 0xc4($sp)
800227e0: c0 00 be af  	sw	$fp, 0xc0($sp)
800227e4: 25 f0 a0 03  	move	$fp, $sp
800227e8: 6c 00 c4 af  	sw	$4, 0x6c($fp)
800227ec: d8 00 c1 8f  	lw	$1, 0xd8($fp)
800227f0: 25 10 c0 00  	move	$2, $6
800227f4: 70 00 c2 af  	sw	$2, 0x70($fp)
800227f8: 25 10 a0 00  	move	$2, $5
800227fc: 74 00 c2 af  	sw	$2, 0x74($fp)
80022800: b4 00 c4 af  	sw	$4, 0xb4($fp)
80022804: ba 00 c5 a3  	sb	$5, 0xba($fp)
80022808: bb 00 c6 a3  	sb	$6, 0xbb($fp)
8002280c: bc 00 c7 a3  	sb	$7, 0xbc($fp)
80022810: bd 00 c1 a3  	sb	$1, 0xbd($fp)
80022814: 82 00 c7 a3  	sb	$7, 0x82($fp)
80022818: 83 00 c1 a3  	sb	$1, 0x83($fp)
8002281c: 82 00 c1 93  	lbu	$1, 0x82($fp)
80022820: 78 00 c1 af  	sw	$1, 0x78($fp)
80022824: 78 00 c1 8f  	lw	$1, 0x78($fp)
80022828: 80 08 01 00  	sll	$1, $1, 0x2
8002282c: 03 80 02 3c  	lui	$2, 0x8003
80022830: 21 08 22 00  	addu	$1, $1, $2
80022834: 7c 02 21 8c  	lw	$1, 0x27c($1)
80022838: 08 00 20 00  	jr	$1
8002283c: 00 00 00 00  	nop
80022840: 0d 00 00 00  	break
80022844: 83 00 c1 93  	lbu	$1, 0x83($fp)
80022848: 68 00 c1 af  	sw	$1, 0x68($fp)
8002284c: 5d 00 20 10  	beqz	$1, 0x800229c4 <.text+0x29c4>
80022850: 00 00 00 00  	nop
80022854: 17 8a 00 08  	j	0x2285c <.text+0x285c>
80022858: 00 00 00 00  	nop
8002285c: 68 00 c1 8f  	lw	$1, 0x68($fp)
80022860: 02 00 02 24  	addiu	$2, $zero, 0x2
80022864: 7a 00 22 10  	beq	$1, $2, 0x80022a50 <.text+0x2a50>
80022868: 00 00 00 00  	nop
8002286c: 1d 8a 00 08  	j	0x22874 <.text+0x2874>
80022870: 00 00 00 00  	nop
80022874: 68 00 c1 8f  	lw	$1, 0x68($fp)
80022878: 04 00 02 24  	addiu	$2, $zero, 0x4
8002287c: 98 00 22 10  	beq	$1, $2, 0x80022ae0 <.text+0x2ae0>
80022880: 00 00 00 00  	nop
80022884: 6b 8a 00 08  	j	0x229ac <.text+0x29ac>
80022888: 00 00 00 00  	nop
8002288c: 83 00 c1 93  	lbu	$1, 0x83($fp)
80022890: 64 00 c1 af  	sw	$1, 0x64($fp)
80022894: c1 00 20 10  	beqz	$1, 0x80022b9c <.text+0x2b9c>
80022898: 00 00 00 00  	nop
8002289c: 29 8a 00 08  	j	0x228a4 <.text+0x28a4>
800228a0: 00 00 00 00  	nop
800228a4: 64 00 c1 8f  	lw	$1, 0x64($fp)
800228a8: 02 00 02 24  	addiu	$2, $zero, 0x2
800228ac: df 00 22 10  	beq	$1, $2, 0x80022c2c <.text+0x2c2c>
800228b0: 00 00 00 00  	nop
800228b4: 2f 8a 00 08  	j	0x228bc <.text+0x28bc>
800228b8: 00 00 00 00  	nop
800228bc: 64 00 c1 8f  	lw	$1, 0x64($fp)
800228c0: 04 00 02 24  	addiu	$2, $zero, 0x4
800228c4: fe 00 22 10  	beq	$1, $2, 0x80022cc0 <.text+0x2cc0>
800228c8: 00 00 00 00  	nop
800228cc: 6b 8a 00 08  	j	0x229ac <.text+0x29ac>
800228d0: 00 00 00 00  	nop
800228d4: 83 00 c1 93  	lbu	$1, 0x83($fp)
800228d8: 60 00 c1 af  	sw	$1, 0x60($fp)
800228dc: 1d 01 20 10  	beqz	$1, 0x80022d54 <.text+0x2d54>
800228e0: 00 00 00 00  	nop
800228e4: 3b 8a 00 08  	j	0x228ec <.text+0x28ec>
800228e8: 00 00 00 00  	nop
800228ec: 60 00 c1 8f  	lw	$1, 0x60($fp)
800228f0: 02 00 02 24  	addiu	$2, $zero, 0x2
800228f4: 3b 01 22 10  	beq	$1, $2, 0x80022de4 <.text+0x2de4>
800228f8: 00 00 00 00  	nop
800228fc: 41 8a 00 08  	j	0x22904 <.text+0x2904>
80022900: 00 00 00 00  	nop
80022904: 60 00 c1 8f  	lw	$1, 0x60($fp)
80022908: 04 00 02 24  	addiu	$2, $zero, 0x4
8002290c: 59 01 22 10  	beq	$1, $2, 0x80022e74 <.text+0x2e74>
80022910: 00 00 00 00  	nop
80022914: 6b 8a 00 08  	j	0x229ac <.text+0x29ac>
80022918: 00 00 00 00  	nop
8002291c: 83 00 c1 93  	lbu	$1, 0x83($fp)
80022920: 5c 00 c1 af  	sw	$1, 0x5c($fp)
80022924: 78 01 20 10  	beqz	$1, 0x80022f08 <.text+0x2f08>
80022928: 00 00 00 00  	nop
8002292c: 4d 8a 00 08  	j	0x22934 <.text+0x2934>
80022930: 00 00 00 00  	nop
80022934: 5c 00 c1 8f  	lw	$1, 0x5c($fp)
80022938: 02 00 02 24  	addiu	$2, $zero, 0x2
8002293c: 97 01 22 10  	beq	$1, $2, 0x80022f9c <.text+0x2f9c>
80022940: 00 00 00 00  	nop
80022944: 53 8a 00 08  	j	0x2294c <.text+0x294c>
80022948: 00 00 00 00  	nop
8002294c: 5c 00 c1 8f  	lw	$1, 0x5c($fp)
80022950: 04 00 02 24  	addiu	$2, $zero, 0x4
80022954: b6 01 22 10  	beq	$1, $2, 0x80023030 <.text+0x3030>
80022958: 00 00 00 00  	nop
8002295c: 6b 8a 00 08  	j	0x229ac <.text+0x29ac>
80022960: 00 00 00 00  	nop
80022964: 83 00 c1 93  	lbu	$1, 0x83($fp)
80022968: 58 00 c1 af  	sw	$1, 0x58($fp)
8002296c: d5 01 20 10  	beqz	$1, 0x800230c4 <.text+0x30c4>
80022970: 00 00 00 00  	nop
80022974: 5f 8a 00 08  	j	0x2297c <.text+0x297c>
80022978: 00 00 00 00  	nop
8002297c: 58 00 c1 8f  	lw	$1, 0x58($fp)
80022980: 02 00 02 24  	addiu	$2, $zero, 0x2
80022984: f4 01 22 10  	beq	$1, $2, 0x80023158 <.text+0x3158>
80022988: 00 00 00 00  	nop
8002298c: 65 8a 00 08  	j	0x22994 <.text+0x2994>
80022990: 00 00 00 00  	nop
80022994: 58 00 c1 8f  	lw	$1, 0x58($fp)
80022998: 04 00 02 24  	addiu	$2, $zero, 0x4
8002299c: 13 02 22 10  	beq	$1, $2, 0x800231ec <.text+0x31ec>
800229a0: 00 00 00 00  	nop
800229a4: 6b 8a 00 08  	j	0x229ac <.text+0x29ac>
800229a8: 00 00 00 00  	nop
800229ac: 83 00 c1 93  	lbu	$1, 0x83($fp)
800229b0: 01 00 02 24  	addiu	$2, $zero, 0x1
800229b4: 46 02 22 10  	beq	$1, $2, 0x800232d0 <.text+0x32d0>
800229b8: 00 00 00 00  	nop
800229bc: c0 8c 00 08  	j	0x23300 <.text+0x3300>
800229c0: 00 00 00 00  	nop
800229c4: 70 00 c1 8f  	lw	$1, 0x70($fp)
800229c8: 74 00 c2 8f  	lw	$2, 0x74($fp)
800229cc: 6c 00 c3 8f  	lw	$3, 0x6c($fp)
800229d0: fc ff 04 24  	addiu	$4, $zero, -0x4
800229d4: 24 20 64 00  	and	$4, $3, $4
800229d8: 03 00 63 30  	andi	$3, $3, 0x3
800229dc: c0 48 03 00  	sll	$9, $3, 0x3
800229e0: ff 00 03 34  	ori	$3, $zero, 0xff
800229e4: 04 28 23 01  	sllv	$5, $3, $9
800229e8: 27 38 05 00  	nor	$7, $zero, $5
800229ec: ff 00 42 30  	andi	$2, $2, 0xff
800229f0: 04 30 22 01  	sllv	$6, $2, $9
800229f4: ff 00 21 30  	andi	$1, $1, 0xff
800229f8: 04 40 21 01  	sllv	$8, $1, $9
800229fc: 00 00 82 c0  	ll	$2, 0x0($4)
80022a00: 24 18 45 00  	and	$3, $2, $5
80022a04: 06 00 66 14  	bne	$3, $6, 0x80022a20 <.text+0x2a20>
80022a08: 00 00 00 00  	nop
80022a0c: 24 10 47 00  	and	$2, $2, $7
80022a10: 25 10 48 00  	or	$2, $2, $8
80022a14: 00 00 82 e0  	sc	$2, 0x0($4)
80022a18: f8 ff 40 10  	beqz	$2, 0x800229fc <.text+0x29fc>
80022a1c: 00 00 00 00  	nop
80022a20: 06 08 23 01  	srlv	$1, $3, $9
80022a24: 20 0c 01 7c  	seb	$1, $1
80022a28: 54 00 c1 af  	sw	$1, 0x54($fp)
80022a2c: 54 00 c2 8f  	lw	$2, 0x54($fp)
80022a30: 74 00 c1 8f  	lw	$1, 0x74($fp)
80022a34: 20 0c 01 7c  	seb	$1, $1
80022a38: 26 08 41 00  	xor	$1, $2, $1
80022a3c: 01 00 21 2c  	sltiu	$1, $1, 0x1
80022a40: 80 00 c2 a3  	sb	$2, 0x80($fp)
80022a44: 81 00 c1 a3  	sb	$1, 0x81($fp)
80022a48: dd 8a 00 08  	j	0x22b74 <.text+0x2b74>
80022a4c: 00 00 00 00  	nop
80022a50: 70 00 c1 8f  	lw	$1, 0x70($fp)
80022a54: 74 00 c2 8f  	lw	$2, 0x74($fp)
80022a58: 6c 00 c3 8f  	lw	$3, 0x6c($fp)
80022a5c: fc ff 04 24  	addiu	$4, $zero, -0x4
80022a60: 24 20 64 00  	and	$4, $3, $4
80022a64: 03 00 63 30  	andi	$3, $3, 0x3
80022a68: c0 48 03 00  	sll	$9, $3, 0x3
80022a6c: ff 00 03 34  	ori	$3, $zero, 0xff
80022a70: 04 28 23 01  	sllv	$5, $3, $9
80022a74: 27 38 05 00  	nor	$7, $zero, $5
80022a78: ff 00 42 30  	andi	$2, $2, 0xff
80022a7c: 04 30 22 01  	sllv	$6, $2, $9
80022a80: ff 00 21 30  	andi	$1, $1, 0xff
80022a84: 04 40 21 01  	sllv	$8, $1, $9
80022a88: 00 00 82 c0  	ll	$2, 0x0($4)
80022a8c: 24 18 45 00  	and	$3, $2, $5
80022a90: 06 00 66 14  	bne	$3, $6, 0x80022aac <.text+0x2aac>
80022a94: 00 00 00 00  	nop
80022a98: 24 10 47 00  	and	$2, $2, $7
80022a9c: 25 10 48 00  	or	$2, $2, $8
80022aa0: 00 00 82 e0  	sc	$2, 0x0($4)
80022aa4: f8 ff 40 10  	beqz	$2, 0x80022a88 <.text+0x2a88>
80022aa8: 00 00 00 00  	nop
80022aac: 06 08 23 01  	srlv	$1, $3, $9
80022ab0: 20 0c 01 7c  	seb	$1, $1
80022ab4: 50 00 c1 af  	sw	$1, 0x50($fp)
80022ab8: 50 00 c2 8f  	lw	$2, 0x50($fp)
80022abc: 74 00 c1 8f  	lw	$1, 0x74($fp)
80022ac0: 20 0c 01 7c  	seb	$1, $1
80022ac4: 26 08 41 00  	xor	$1, $2, $1
80022ac8: 01 00 21 2c  	sltiu	$1, $1, 0x1
80022acc: 0f 00 00 00  	sync
80022ad0: 80 00 c2 a3  	sb	$2, 0x80($fp)
80022ad4: 81 00 c1 a3  	sb	$1, 0x81($fp)
80022ad8: dd 8a 00 08  	j	0x22b74 <.text+0x2b74>
80022adc: 00 00 00 00  	nop
80022ae0: 70 00 c1 8f  	lw	$1, 0x70($fp)
80022ae4: 74 00 c2 8f  	lw	$2, 0x74($fp)
80022ae8: 6c 00 c3 8f  	lw	$3, 0x6c($fp)
80022aec: 0f 00 00 00  	sync
80022af0: fc ff 04 24  	addiu	$4, $zero, -0x4
80022af4: 24 20 64 00  	and	$4, $3, $4
80022af8: 03 00 63 30  	andi	$3, $3, 0x3
80022afc: c0 48 03 00  	sll	$9, $3, 0x3
80022b00: ff 00 03 34  	ori	$3, $zero, 0xff
80022b04: 04 28 23 01  	sllv	$5, $3, $9
80022b08: 27 38 05 00  	nor	$7, $zero, $5
80022b0c: ff 00 42 30  	andi	$2, $2, 0xff
80022b10: 04 30 22 01  	sllv	$6, $2, $9
80022b14: ff 00 21 30  	andi	$1, $1, 0xff
80022b18: 04 40 21 01  	sllv	$8, $1, $9
80022b1c: 00 00 82 c0  	ll	$2, 0x0($4)
80022b20: 24 18 45 00  	and	$3, $2, $5
80022b24: 06 00 66 14  	bne	$3, $6, 0x80022b40 <.text+0x2b40>
80022b28: 00 00 00 00  	nop
80022b2c: 24 10 47 00  	and	$2, $2, $7
80022b30: 25 10 48 00  	or	$2, $2, $8
80022b34: 00 00 82 e0  	sc	$2, 0x0($4)
80022b38: f8 ff 40 10  	beqz	$2, 0x80022b1c <.text+0x2b1c>
80022b3c: 00 00 00 00  	nop
80022b40: 06 08 23 01  	srlv	$1, $3, $9
80022b44: 20 0c 01 7c  	seb	$1, $1
80022b48: 4c 00 c1 af  	sw	$1, 0x4c($fp)
80022b4c: 4c 00 c2 8f  	lw	$2, 0x4c($fp)
80022b50: 74 00 c1 8f  	lw	$1, 0x74($fp)
80022b54: 20 0c 01 7c  	seb	$1, $1
80022b58: 26 08 41 00  	xor	$1, $2, $1
80022b5c: 01 00 21 2c  	sltiu	$1, $1, 0x1
80022b60: 0f 00 00 00  	sync
80022b64: 80 00 c2 a3  	sb	$2, 0x80($fp)
80022b68: 81 00 c1 a3  	sb	$1, 0x81($fp)
80022b6c: dd 8a 00 08  	j	0x22b74 <.text+0x2b74>
80022b70: 00 00 00 00  	nop
80022b74: 80 00 c1 93  	lbu	$1, 0x80($fp)
80022b78: 48 00 c1 af  	sw	$1, 0x48($fp)
80022b7c: be 00 c1 a3  	sb	$1, 0xbe($fp)
80022b80: 81 00 c1 93  	lbu	$1, 0x81($fp)
80022b84: 01 00 21 30  	andi	$1, $1, 0x1
80022b88: bf 00 c1 a3  	sb	$1, 0xbf($fp)
80022b8c: c2 01 20 14  	bnez	$1, 0x80023298 <.text+0x3298>
80022b90: 00 00 00 00  	nop
80022b94: a0 8c 00 08  	j	0x23280 <.text+0x3280>
80022b98: 00 00 00 00  	nop
80022b9c: 70 00 c1 8f  	lw	$1, 0x70($fp)
80022ba0: 74 00 c2 8f  	lw	$2, 0x74($fp)
80022ba4: 6c 00 c3 8f  	lw	$3, 0x6c($fp)
80022ba8: 0f 00 00 00  	sync
80022bac: fc ff 04 24  	addiu	$4, $zero, -0x4
80022bb0: 24 20 64 00  	and	$4, $3, $4
80022bb4: 03 00 63 30  	andi	$3, $3, 0x3
80022bb8: c0 48 03 00  	sll	$9, $3, 0x3
80022bbc: ff 00 03 34  	ori	$3, $zero, 0xff
80022bc0: 04 28 23 01  	sllv	$5, $3, $9
80022bc4: 27 38 05 00  	nor	$7, $zero, $5
80022bc8: ff 00 42 30  	andi	$2, $2, 0xff
80022bcc: 04 30 22 01  	sllv	$6, $2, $9
80022bd0: ff 00 21 30  	andi	$1, $1, 0xff
80022bd4: 04 40 21 01  	sllv	$8, $1, $9
80022bd8: 00 00 82 c0  	ll	$2, 0x0($4)
80022bdc: 24 18 45 00  	and	$3, $2, $5
80022be0: 06 00 66 14  	bne	$3, $6, 0x80022bfc <.text+0x2bfc>
80022be4: 00 00 00 00  	nop
80022be8: 24 10 47 00  	and	$2, $2, $7
80022bec: 25 10 48 00  	or	$2, $2, $8
80022bf0: 00 00 82 e0  	sc	$2, 0x0($4)
80022bf4: f8 ff 40 10  	beqz	$2, 0x80022bd8 <.text+0x2bd8>
80022bf8: 00 00 00 00  	nop
80022bfc: 06 08 23 01  	srlv	$1, $3, $9
80022c00: 20 0c 01 7c  	seb	$1, $1
80022c04: 44 00 c1 af  	sw	$1, 0x44($fp)
80022c08: 44 00 c2 8f  	lw	$2, 0x44($fp)
80022c0c: 74 00 c1 8f  	lw	$1, 0x74($fp)
80022c10: 20 0c 01 7c  	seb	$1, $1
80022c14: 26 08 41 00  	xor	$1, $2, $1
80022c18: 01 00 21 2c  	sltiu	$1, $1, 0x1
80022c1c: 80 00 c2 a3  	sb	$2, 0x80($fp)
80022c20: 81 00 c1 a3  	sb	$1, 0x81($fp)
80022c24: dd 8a 00 08  	j	0x22b74 <.text+0x2b74>
80022c28: 00 00 00 00  	nop
80022c2c: 70 00 c1 8f  	lw	$1, 0x70($fp)
80022c30: 74 00 c2 8f  	lw	$2, 0x74($fp)
80022c34: 6c 00 c3 8f  	lw	$3, 0x6c($fp)
80022c38: 0f 00 00 00  	sync
80022c3c: fc ff 04 24  	addiu	$4, $zero, -0x4
80022c40: 24 20 64 00  	and	$4, $3, $4
80022c44: 03 00 63 30  	andi	$3, $3, 0x3
80022c48: c0 48 03 00  	sll	$9, $3, 0x3
80022c4c: ff 00 03 34  	ori	$3, $zero, 0xff
80022c50: 04 28 23 01  	sllv	$5, $3, $9
80022c54: 27 38 05 00  	nor	$7, $zero, $5
80022c58: ff 00 42 30  	andi	$2, $2, 0xff
80022c5c: 04 30 22 01  	sllv	$6, $2, $9
80022c60: ff 00 21 30  	andi	$1, $1, 0xff
80022c64: 04 40 21 01  	sllv	$8, $1, $9
80022c68: 00 00 82 c0  	ll	$2, 0x0($4)
80022c6c: 24 18 45 00  	and	$3, $2, $5
80022c70: 06 00 66 14  	bne	$3, $6, 0x80022c8c <.text+0x2c8c>
80022c74: 00 00 00 00  	nop
80022c78: 24 10 47 00  	and	$2, $2, $7
80022c7c: 25 10 48 00  	or	$2, $2, $8
80022c80: 00 00 82 e0  	sc	$2, 0x0($4)
80022c84: f8 ff 40 10  	beqz	$2, 0x80022c68 <.text+0x2c68>
80022c88: 00 00 00 00  	nop
80022c8c: 06 08 23 01  	srlv	$1, $3, $9
80022c90: 20 0c 01 7c  	seb	$1, $1
80022c94: 40 00 c1 af  	sw	$1, 0x40($fp)
80022c98: 40 00 c2 8f  	lw	$2, 0x40($fp)
80022c9c: 74 00 c1 8f  	lw	$1, 0x74($fp)
80022ca0: 20 0c 01 7c  	seb	$1, $1
80022ca4: 26 08 41 00  	xor	$1, $2, $1
80022ca8: 01 00 21 2c  	sltiu	$1, $1, 0x1
80022cac: 0f 00 00 00  	sync
80022cb0: 80 00 c2 a3  	sb	$2, 0x80($fp)
80022cb4: 81 00 c1 a3  	sb	$1, 0x81($fp)
80022cb8: dd 8a 00 08  	j	0x22b74 <.text+0x2b74>
80022cbc: 00 00 00 00  	nop
80022cc0: 70 00 c1 8f  	lw	$1, 0x70($fp)
80022cc4: 74 00 c2 8f  	lw	$2, 0x74($fp)
80022cc8: 6c 00 c3 8f  	lw	$3, 0x6c($fp)
80022ccc: 0f 00 00 00  	sync
80022cd0: fc ff 04 24  	addiu	$4, $zero, -0x4
80022cd4: 24 20 64 00  	and	$4, $3, $4
80022cd8: 03 00 63 30  	andi	$3, $3, 0x3
80022cdc: c0 48 03 00  	sll	$9, $3, 0x3
80022ce0: ff 00 03 34  	ori	$3, $zero, 0xff
80022ce4: 04 28 23 01  	sllv	$5, $3, $9
80022ce8: 27 38 05 00  	nor	$7, $zero, $5
80022cec: ff 00 42 30  	andi	$2, $2, 0xff
80022cf0: 04 30 22 01  	sllv	$6, $2, $9
80022cf4: ff 00 21 30  	andi	$1, $1, 0xff
80022cf8: 04 40 21 01  	sllv	$8, $1, $9
80022cfc: 00 00 82 c0  	ll	$2, 0x0($4)
80022d00: 24 18 45 00  	and	$3, $2, $5
80022d04: 06 00 66 14  	bne	$3, $6, 0x80022d20 <.text+0x2d20>
80022d08: 00 00 00 00  	nop
80022d0c: 24 10 47 00  	and	$2, $2, $7
80022d10: 25 10 48 00  	or	$2, $2, $8
80022d14: 00 00 82 e0  	sc	$2, 0x0($4)
80022d18: f8 ff 40 10  	beqz	$2, 0x80022cfc <.text+0x2cfc>
80022d1c: 00 00 00 00  	nop
80022d20: 06 08 23 01  	srlv	$1, $3, $9
80022d24: 20 0c 01 7c  	seb	$1, $1
80022d28: 3c 00 c1 af  	sw	$1, 0x3c($fp)
80022d2c: 3c 00 c2 8f  	lw	$2, 0x3c($fp)
80022d30: 74 00 c1 8f  	lw	$1, 0x74($fp)
80022d34: 20 0c 01 7c  	seb	$1, $1
80022d38: 26 08 41 00  	xor	$1, $2, $1
80022d3c: 01 00 21 2c  	sltiu	$1, $1, 0x1
80022d40: 0f 00 00 00  	sync
80022d44: 80 00 c2 a3  	sb	$2, 0x80($fp)
80022d48: 81 00 c1 a3  	sb	$1, 0x81($fp)
80022d4c: dd 8a 00 08  	j	0x22b74 <.text+0x2b74>
80022d50: 00 00 00 00  	nop
80022d54: 70 00 c1 8f  	lw	$1, 0x70($fp)
80022d58: 74 00 c2 8f  	lw	$2, 0x74($fp)
80022d5c: 6c 00 c3 8f  	lw	$3, 0x6c($fp)
80022d60: fc ff 04 24  	addiu	$4, $zero, -0x4
80022d64: 24 20 64 00  	and	$4, $3, $4
80022d68: 03 00 63 30  	andi	$3, $3, 0x3
80022d6c: c0 48 03 00  	sll	$9, $3, 0x3
80022d70: ff 00 03 34  	ori	$3, $zero, 0xff
80022d74: 04 28 23 01  	sllv	$5, $3, $9
80022d78: 27 38 05 00  	nor	$7, $zero, $5
80022d7c: ff 00 42 30  	andi	$2, $2, 0xff
80022d80: 04 30 22 01  	sllv	$6, $2, $9
80022d84: ff 00 21 30  	andi	$1, $1, 0xff
80022d88: 04 40 21 01  	sllv	$8, $1, $9
80022d8c: 00 00 82 c0  	ll	$2, 0x0($4)
80022d90: 24 18 45 00  	and	$3, $2, $5
80022d94: 06 00 66 14  	bne	$3, $6, 0x80022db0 <.text+0x2db0>
80022d98: 00 00 00 00  	nop
80022d9c: 24 10 47 00  	and	$2, $2, $7
80022da0: 25 10 48 00  	or	$2, $2, $8
80022da4: 00 00 82 e0  	sc	$2, 0x0($4)
80022da8: f8 ff 40 10  	beqz	$2, 0x80022d8c <.text+0x2d8c>
80022dac: 00 00 00 00  	nop
80022db0: 06 08 23 01  	srlv	$1, $3, $9
80022db4: 20 0c 01 7c  	seb	$1, $1
80022db8: 38 00 c1 af  	sw	$1, 0x38($fp)
80022dbc: 38 00 c2 8f  	lw	$2, 0x38($fp)
80022dc0: 74 00 c1 8f  	lw	$1, 0x74($fp)
80022dc4: 20 0c 01 7c  	seb	$1, $1
80022dc8: 26 08 41 00  	xor	$1, $2, $1
80022dcc: 01 00 21 2c  	sltiu	$1, $1, 0x1
80022dd0: 0f 00 00 00  	sync
80022dd4: 80 00 c2 a3  	sb	$2, 0x80($fp)
80022dd8: 81 00 c1 a3  	sb	$1, 0x81($fp)
80022ddc: dd 8a 00 08  	j	0x22b74 <.text+0x2b74>
80022de0: 00 00 00 00  	nop
80022de4: 70 00 c1 8f  	lw	$1, 0x70($fp)
80022de8: 74 00 c2 8f  	lw	$2, 0x74($fp)
80022dec: 6c 00 c3 8f  	lw	$3, 0x6c($fp)
80022df0: fc ff 04 24  	addiu	$4, $zero, -0x4
80022df4: 24 20 64 00  	and	$4, $3, $4
80022df8: 03 00 63 30  	andi	$3, $3, 0x3
80022dfc: c0 48 03 00  	sll	$9, $3, 0x3
80022e00: ff 00 03 34  	ori	$3, $zero, 0xff
80022e04: 04 28 23 01  	sllv	$5, $3, $9
80022e08: 27 38 05 00  	nor	$7, $zero, $5
80022e0c: ff 00 42 30  	andi	$2, $2, 0xff
80022e10: 04 30 22 01  	sllv	$6, $2, $9
80022e14: ff 00 21 30  	andi	$1, $1, 0xff
80022e18: 04 40 21 01  	sllv	$8, $1, $9
80022e1c: 00 00 82 c0  	ll	$2, 0x0($4)
80022e20: 24 18 45 00  	and	$3, $2, $5
80022e24: 06 00 66 14  	bne	$3, $6, 0x80022e40 <.text+0x2e40>
80022e28: 00 00 00 00  	nop
80022e2c: 24 10 47 00  	and	$2, $2, $7
80022e30: 25 10 48 00  	or	$2, $2, $8
80022e34: 00 00 82 e0  	sc	$2, 0x0($4)
80022e38: f8 ff 40 10  	beqz	$2, 0x80022e1c <.text+0x2e1c>
80022e3c: 00 00 00 00  	nop
80022e40: 06 08 23 01  	srlv	$1, $3, $9
80022e44: 20 0c 01 7c  	seb	$1, $1
80022e48: 34 00 c1 af  	sw	$1, 0x34($fp)
80022e4c: 34 00 c2 8f  	lw	$2, 0x34($fp)
80022e50: 74 00 c1 8f  	lw	$1, 0x74($fp)
80022e54: 20 0c 01 7c  	seb	$1, $1
80022e58: 26 08 41 00  	xor	$1, $2, $1
80022e5c: 01 00 21 2c  	sltiu	$1, $1, 0x1
80022e60: 0f 00 00 00  	sync
80022e64: 80 00 c2 a3  	sb	$2, 0x80($fp)
80022e68: 81 00 c1 a3  	sb	$1, 0x81($fp)
80022e6c: dd 8a 00 08  	j	0x22b74 <.text+0x2b74>
80022e70: 00 00 00 00  	nop
80022e74: 70 00 c1 8f  	lw	$1, 0x70($fp)
80022e78: 74 00 c2 8f  	lw	$2, 0x74($fp)
80022e7c: 6c 00 c3 8f  	lw	$3, 0x6c($fp)
80022e80: 0f 00 00 00  	sync
80022e84: fc ff 04 24  	addiu	$4, $zero, -0x4
80022e88: 24 20 64 00  	and	$4, $3, $4
80022e8c: 03 00 63 30  	andi	$3, $3, 0x3
80022e90: c0 48 03 00  	sll	$9, $3, 0x3
80022e94: ff 00 03 34  	ori	$3, $zero, 0xff
80022e98: 04 28 23 01  	sllv	$5, $3, $9
80022e9c: 27 38 05 00  	nor	$7, $zero, $5
80022ea0: ff 00 42 30  	andi	$2, $2, 0xff
80022ea4: 04 30 22 01  	sllv	$6, $2, $9
80022ea8: ff 00 21 30  	andi	$1, $1, 0xff
80022eac: 04 40 21 01  	sllv	$8, $1, $9
80022eb0: 00 00 82 c0  	ll	$2, 0x0($4)
80022eb4: 24 18 45 00  	and	$3, $2, $5
80022eb8: 06 00 66 14  	bne	$3, $6, 0x80022ed4 <.text+0x2ed4>
80022ebc: 00 00 00 00  	nop
80022ec0: 24 10 47 00  	and	$2, $2, $7
80022ec4: 25 10 48 00  	or	$2, $2, $8
80022ec8: 00 00 82 e0  	sc	$2, 0x0($4)
80022ecc: f8 ff 40 10  	beqz	$2, 0x80022eb0 <.text+0x2eb0>
80022ed0: 00 00 00 00  	nop
80022ed4: 06 08 23 01  	srlv	$1, $3, $9
80022ed8: 20 0c 01 7c  	seb	$1, $1
80022edc: 30 00 c1 af  	sw	$1, 0x30($fp)
80022ee0: 30 00 c2 8f  	lw	$2, 0x30($fp)
80022ee4: 74 00 c1 8f  	lw	$1, 0x74($fp)
80022ee8: 20 0c 01 7c  	seb	$1, $1
80022eec: 26 08 41 00  	xor	$1, $2, $1
80022ef0: 01 00 21 2c  	sltiu	$1, $1, 0x1
80022ef4: 0f 00 00 00  	sync
80022ef8: 80 00 c2 a3  	sb	$2, 0x80($fp)
80022efc: 81 00 c1 a3  	sb	$1, 0x81($fp)
80022f00: dd 8a 00 08  	j	0x22b74 <.text+0x2b74>
80022f04: 00 00 00 00  	nop
80022f08: 70 00 c1 8f  	lw	$1, 0x70($fp)
80022f0c: 74 00 c2 8f  	lw	$2, 0x74($fp)
80022f10: 6c 00 c3 8f  	lw	$3, 0x6c($fp)
80022f14: 0f 00 00 00  	sync
80022f18: fc ff 04 24  	addiu	$4, $zero, -0x4
80022f1c: 24 20 64 00  	and	$4, $3, $4
80022f20: 03 00 63 30  	andi	$3, $3, 0x3
80022f24: c0 48 03 00  	sll	$9, $3, 0x3
80022f28: ff 00 03 34  	ori	$3, $zero, 0xff
80022f2c: 04 28 23 01  	sllv	$5, $3, $9
80022f30: 27 38 05 00  	nor	$7, $zero, $5
80022f34: ff 00 42 30  	andi	$2, $2, 0xff
80022f38: 04 30 22 01  	sllv	$6, $2, $9
80022f3c: ff 00 21 30  	andi	$1, $1, 0xff
80022f40: 04 40 21 01  	sllv	$8, $1, $9
80022f44: 00 00 82 c0  	ll	$2, 0x0($4)
80022f48: 24 18 45 00  	and	$3, $2, $5
80022f4c: 06 00 66 14  	bne	$3, $6, 0x80022f68 <.text+0x2f68>
80022f50: 00 00 00 00  	nop
80022f54: 24 10 47 00  	and	$2, $2, $7
80022f58: 25 10 48 00  	or	$2, $2, $8
80022f5c: 00 00 82 e0  	sc	$2, 0x0($4)
80022f60: f8 ff 40 10  	beqz	$2, 0x80022f44 <.text+0x2f44>
80022f64: 00 00 00 00  	nop
80022f68: 06 08 23 01  	srlv	$1, $3, $9
80022f6c: 20 0c 01 7c  	seb	$1, $1
80022f70: 2c 00 c1 af  	sw	$1, 0x2c($fp)
80022f74: 2c 00 c2 8f  	lw	$2, 0x2c($fp)
80022f78: 74 00 c1 8f  	lw	$1, 0x74($fp)
80022f7c: 20 0c 01 7c  	seb	$1, $1
80022f80: 26 08 41 00  	xor	$1, $2, $1
80022f84: 01 00 21 2c  	sltiu	$1, $1, 0x1
80022f88: 0f 00 00 00  	sync
80022f8c: 80 00 c2 a3  	sb	$2, 0x80($fp)
80022f90: 81 00 c1 a3  	sb	$1, 0x81($fp)
80022f94: dd 8a 00 08  	j	0x22b74 <.text+0x2b74>
80022f98: 00 00 00 00  	nop
80022f9c: 70 00 c1 8f  	lw	$1, 0x70($fp)
80022fa0: 74 00 c2 8f  	lw	$2, 0x74($fp)
80022fa4: 6c 00 c3 8f  	lw	$3, 0x6c($fp)
80022fa8: 0f 00 00 00  	sync
80022fac: fc ff 04 24  	addiu	$4, $zero, -0x4
80022fb0: 24 20 64 00  	and	$4, $3, $4
80022fb4: 03 00 63 30  	andi	$3, $3, 0x3
80022fb8: c0 48 03 00  	sll	$9, $3, 0x3
80022fbc: ff 00 03 34  	ori	$3, $zero, 0xff
80022fc0: 04 28 23 01  	sllv	$5, $3, $9
80022fc4: 27 38 05 00  	nor	$7, $zero, $5
80022fc8: ff 00 42 30  	andi	$2, $2, 0xff
80022fcc: 04 30 22 01  	sllv	$6, $2, $9
80022fd0: ff 00 21 30  	andi	$1, $1, 0xff
80022fd4: 04 40 21 01  	sllv	$8, $1, $9
80022fd8: 00 00 82 c0  	ll	$2, 0x0($4)
80022fdc: 24 18 45 00  	and	$3, $2, $5
80022fe0: 06 00 66 14  	bne	$3, $6, 0x80022ffc <.text+0x2ffc>
80022fe4: 00 00 00 00  	nop
80022fe8: 24 10 47 00  	and	$2, $2, $7
80022fec: 25 10 48 00  	or	$2, $2, $8
80022ff0: 00 00 82 e0  	sc	$2, 0x0($4)
80022ff4: f8 ff 40 10  	beqz	$2, 0x80022fd8 <.text+0x2fd8>
80022ff8: 00 00 00 00  	nop
80022ffc: 06 08 23 01  	srlv	$1, $3, $9
80023000: 20 0c 01 7c  	seb	$1, $1
80023004: 28 00 c1 af  	sw	$1, 0x28($fp)
80023008: 28 00 c2 8f  	lw	$2, 0x28($fp)
8002300c: 74 00 c1 8f  	lw	$1, 0x74($fp)
80023010: 20 0c 01 7c  	seb	$1, $1
80023014: 26 08 41 00  	xor	$1, $2, $1
80023018: 01 00 21 2c  	sltiu	$1, $1, 0x1
8002301c: 0f 00 00 00  	sync
80023020: 80 00 c2 a3  	sb	$2, 0x80($fp)
80023024: 81 00 c1 a3  	sb	$1, 0x81($fp)
80023028: dd 8a 00 08  	j	0x22b74 <.text+0x2b74>
8002302c: 00 00 00 00  	nop
80023030: 70 00 c1 8f  	lw	$1, 0x70($fp)
80023034: 74 00 c2 8f  	lw	$2, 0x74($fp)
80023038: 6c 00 c3 8f  	lw	$3, 0x6c($fp)
8002303c: 0f 00 00 00  	sync
80023040: fc ff 04 24  	addiu	$4, $zero, -0x4
80023044: 24 20 64 00  	and	$4, $3, $4
80023048: 03 00 63 30  	andi	$3, $3, 0x3
8002304c: c0 48 03 00  	sll	$9, $3, 0x3
80023050: ff 00 03 34  	ori	$3, $zero, 0xff
80023054: 04 28 23 01  	sllv	$5, $3, $9
80023058: 27 38 05 00  	nor	$7, $zero, $5
8002305c: ff 00 42 30  	andi	$2, $2, 0xff
80023060: 04 30 22 01  	sllv	$6, $2, $9
80023064: ff 00 21 30  	andi	$1, $1, 0xff
80023068: 04 40 21 01  	sllv	$8, $1, $9
8002306c: 00 00 82 c0  	ll	$2, 0x0($4)
80023070: 24 18 45 00  	and	$3, $2, $5
80023074: 06 00 66 14  	bne	$3, $6, 0x80023090 <.text+0x3090>
80023078: 00 00 00 00  	nop
8002307c: 24 10 47 00  	and	$2, $2, $7
80023080: 25 10 48 00  	or	$2, $2, $8
80023084: 00 00 82 e0  	sc	$2, 0x0($4)
80023088: f8 ff 40 10  	beqz	$2, 0x8002306c <.text+0x306c>
8002308c: 00 00 00 00  	nop
80023090: 06 08 23 01  	srlv	$1, $3, $9
80023094: 20 0c 01 7c  	seb	$1, $1
80023098: 24 00 c1 af  	sw	$1, 0x24($fp)
8002309c: 24 00 c2 8f  	lw	$2, 0x24($fp)
800230a0: 74 00 c1 8f  	lw	$1, 0x74($fp)
800230a4: 20 0c 01 7c  	seb	$1, $1
800230a8: 26 08 41 00  	xor	$1, $2, $1
800230ac: 01 00 21 2c  	sltiu	$1, $1, 0x1
800230b0: 0f 00 00 00  	sync
800230b4: 80 00 c2 a3  	sb	$2, 0x80($fp)
800230b8: 81 00 c1 a3  	sb	$1, 0x81($fp)
800230bc: dd 8a 00 08  	j	0x22b74 <.text+0x2b74>
800230c0: 00 00 00 00  	nop
800230c4: 70 00 c1 8f  	lw	$1, 0x70($fp)
800230c8: 74 00 c2 8f  	lw	$2, 0x74($fp)
800230cc: 6c 00 c3 8f  	lw	$3, 0x6c($fp)
800230d0: 0f 00 00 00  	sync
800230d4: fc ff 04 24  	addiu	$4, $zero, -0x4
800230d8: 24 20 64 00  	and	$4, $3, $4
800230dc: 03 00 63 30  	andi	$3, $3, 0x3
800230e0: c0 48 03 00  	sll	$9, $3, 0x3
800230e4: ff 00 03 34  	ori	$3, $zero, 0xff
800230e8: 04 28 23 01  	sllv	$5, $3, $9
800230ec: 27 38 05 00  	nor	$7, $zero, $5
800230f0: ff 00 42 30  	andi	$2, $2, 0xff
800230f4: 04 30 22 01  	sllv	$6, $2, $9
800230f8: ff 00 21 30  	andi	$1, $1, 0xff
800230fc: 04 40 21 01  	sllv	$8, $1, $9
80023100: 00 00 82 c0  	ll	$2, 0x0($4)
80023104: 24 18 45 00  	and	$3, $2, $5
80023108: 06 00 66 14  	bne	$3, $6, 0x80023124 <.text+0x3124>
8002310c: 00 00 00 00  	nop
80023110: 24 10 47 00  	and	$2, $2, $7
80023114: 25 10 48 00  	or	$2, $2, $8
80023118: 00 00 82 e0  	sc	$2, 0x0($4)
8002311c: f8 ff 40 10  	beqz	$2, 0x80023100 <.text+0x3100>
80023120: 00 00 00 00  	nop
80023124: 06 08 23 01  	srlv	$1, $3, $9
80023128: 20 0c 01 7c  	seb	$1, $1
8002312c: 20 00 c1 af  	sw	$1, 0x20($fp)
80023130: 20 00 c2 8f  	lw	$2, 0x20($fp)
80023134: 74 00 c1 8f  	lw	$1, 0x74($fp)
80023138: 20 0c 01 7c  	seb	$1, $1
8002313c: 26 08 41 00  	xor	$1, $2, $1
80023140: 01 00 21 2c  	sltiu	$1, $1, 0x1
80023144: 0f 00 00 00  	sync
80023148: 80 00 c2 a3  	sb	$2, 0x80($fp)
8002314c: 81 00 c1 a3  	sb	$1, 0x81($fp)
80023150: dd 8a 00 08  	j	0x22b74 <.text+0x2b74>
80023154: 00 00 00 00  	nop
80023158: 70 00 c1 8f  	lw	$1, 0x70($fp)
8002315c: 74 00 c2 8f  	lw	$2, 0x74($fp)
80023160: 6c 00 c3 8f  	lw	$3, 0x6c($fp)
80023164: 0f 00 00 00  	sync
80023168: fc ff 04 24  	addiu	$4, $zero, -0x4
8002316c: 24 20 64 00  	and	$4, $3, $4
80023170: 03 00 63 30  	andi	$3, $3, 0x3
80023174: c0 48 03 00  	sll	$9, $3, 0x3
80023178: ff 00 03 34  	ori	$3, $zero, 0xff
8002317c: 04 28 23 01  	sllv	$5, $3, $9
80023180: 27 38 05 00  	nor	$7, $zero, $5
80023184: ff 00 42 30  	andi	$2, $2, 0xff
80023188: 04 30 22 01  	sllv	$6, $2, $9
8002318c: ff 00 21 30  	andi	$1, $1, 0xff
80023190: 04 40 21 01  	sllv	$8, $1, $9
80023194: 00 00 82 c0  	ll	$2, 0x0($4)
80023198: 24 18 45 00  	and	$3, $2, $5
8002319c: 06 00 66 14  	bne	$3, $6, 0x800231b8 <.text+0x31b8>
800231a0: 00 00 00 00  	nop
800231a4: 24 10 47 00  	and	$2, $2, $7
800231a8: 25 10 48 00  	or	$2, $2, $8
800231ac: 00 00 82 e0  	sc	$2, 0x0($4)
800231b0: f8 ff 40 10  	beqz	$2, 0x80023194 <.text+0x3194>
800231b4: 00 00 00 00  	nop
800231b8: 06 08 23 01  	srlv	$1, $3, $9
800231bc: 20 0c 01 7c  	seb	$1, $1
800231c0: 1c 00 c1 af  	sw	$1, 0x1c($fp)
800231c4: 1c 00 c2 8f  	lw	$2, 0x1c($fp)
800231c8: 74 00 c1 8f  	lw	$1, 0x74($fp)
800231cc: 20 0c 01 7c  	seb	$1, $1
800231d0: 26 08 41 00  	xor	$1, $2, $1
800231d4: 01 00 21 2c  	sltiu	$1, $1, 0x1
800231d8: 0f 00 00 00  	sync
800231dc: 80 00 c2 a3  	sb	$2, 0x80($fp)
800231e0: 81 00 c1 a3  	sb	$1, 0x81($fp)
800231e4: dd 8a 00 08  	j	0x22b74 <.text+0x2b74>
800231e8: 00 00 00 00  	nop
800231ec: 70 00 c1 8f  	lw	$1, 0x70($fp)
800231f0: 74 00 c2 8f  	lw	$2, 0x74($fp)
800231f4: 6c 00 c3 8f  	lw	$3, 0x6c($fp)
800231f8: 0f 00 00 00  	sync
800231fc: fc ff 04 24  	addiu	$4, $zero, -0x4
80023200: 24 20 64 00  	and	$4, $3, $4
80023204: 03 00 63 30  	andi	$3, $3, 0x3
80023208: c0 48 03 00  	sll	$9, $3, 0x3
8002320c: ff 00 03 34  	ori	$3, $zero, 0xff
80023210: 04 28 23 01  	sllv	$5, $3, $9
80023214: 27 38 05 00  	nor	$7, $zero, $5
80023218: ff 00 42 30  	andi	$2, $2, 0xff
8002321c: 04 30 22 01  	sllv	$6, $2, $9
80023220: ff 00 21 30  	andi	$1, $1, 0xff
80023224: 04 40 21 01  	sllv	$8, $1, $9
80023228: 00 00 82 c0  	ll	$2, 0x0($4)
8002322c: 24 18 45 00  	and	$3, $2, $5
80023230: 06 00 66 14  	bne	$3, $6, 0x8002324c <.text+0x324c>
80023234: 00 00 00 00  	nop
80023238: 24 10 47 00  	and	$2, $2, $7
8002323c: 25 10 48 00  	or	$2, $2, $8
80023240: 00 00 82 e0  	sc	$2, 0x0($4)
80023244: f8 ff 40 10  	beqz	$2, 0x80023228 <.text+0x3228>
80023248: 00 00 00 00  	nop
8002324c: 06 08 23 01  	srlv	$1, $3, $9
80023250: 20 0c 01 7c  	seb	$1, $1
80023254: 18 00 c1 af  	sw	$1, 0x18($fp)
80023258: 18 00 c2 8f  	lw	$2, 0x18($fp)
8002325c: 74 00 c1 8f  	lw	$1, 0x74($fp)
80023260: 20 0c 01 7c  	seb	$1, $1
80023264: 26 08 41 00  	xor	$1, $2, $1
80023268: 01 00 21 2c  	sltiu	$1, $1, 0x1
8002326c: 0f 00 00 00  	sync
80023270: 80 00 c2 a3  	sb	$2, 0x80($fp)
80023274: 81 00 c1 a3  	sb	$1, 0x81($fp)
80023278: dd 8a 00 08  	j	0x22b74 <.text+0x2b74>
8002327c: 00 00 00 00  	nop
80023280: 48 00 c1 8f  	lw	$1, 0x48($fp)
80023284: 7f 00 c1 a3  	sb	$1, 0x7f($fp)
80023288: 01 00 01 24  	addiu	$1, $zero, 0x1
8002328c: 7e 00 c1 a3  	sb	$1, 0x7e($fp)
80023290: ac 8c 00 08  	j	0x232b0 <.text+0x32b0>
80023294: 00 00 00 00  	nop
80023298: 48 00 c1 8f  	lw	$1, 0x48($fp)
8002329c: 7f 00 c1 a3  	sb	$1, 0x7f($fp)
800232a0: 00 00 01 24  	addiu	$1, $zero, 0x0
800232a4: 7e 00 c0 a3  	sb	$zero, 0x7e($fp)
800232a8: ac 8c 00 08  	j	0x232b0 <.text+0x32b0>
800232ac: 00 00 00 00  	nop
800232b0: 7e 00 c2 93  	lbu	$2, 0x7e($fp)
800232b4: 7f 00 c3 93  	lbu	$3, 0x7f($fp)
800232b8: 25 e8 c0 03  	move	$sp, $fp
800232bc: c0 00 be 8f  	lw	$fp, 0xc0($sp)
800232c0: c4 00 bf 8f  	lw	$ra, 0xc4($sp)
800232c4: c8 00 bd 27  	addiu	$sp, $sp, 0xc8
800232c8: 08 00 e0 03  	jr	$ra
800232cc: 00 00 00 00  	nop
800232d0: 03 80 01 3c  	lui	$1, 0x8003
800232d4: c4 02 25 24  	addiu	$5, $1, 0x2c4
800232d8: 9c 00 c4 27  	addiu	$4, $fp, 0x9c
800232dc: 14 00 c4 af  	sw	$4, 0x14($fp)
800232e0: 01 00 06 24  	addiu	$6, $zero, 0x1
800232e4: a1 85 00 0c  	jal	0x21684 <.text+0x1684>
800232e8: 00 00 00 00  	nop
800232ec: 14 00 c4 8f  	lw	$4, 0x14($fp)
800232f0: 03 80 01 3c  	lui	$1, 0x8003
800232f4: ac 03 25 24  	addiu	$5, $1, 0x3ac
800232f8: f6 b4 00 0c  	jal	0x2d3d8 <.text+0xd3d8>
800232fc: 00 00 00 00  	nop
80023300: 03 80 01 3c  	lui	$1, 0x8003
80023304: 94 03 25 24  	addiu	$5, $1, 0x394
80023308: 84 00 c4 27  	addiu	$4, $fp, 0x84
8002330c: 10 00 c4 af  	sw	$4, 0x10($fp)
80023310: 01 00 06 24  	addiu	$6, $zero, 0x1
80023314: a1 85 00 0c  	jal	0x21684 <.text+0x1684>
80023318: 00 00 00 00  	nop
8002331c: 10 00 c4 8f  	lw	$4, 0x10($fp)
80023320: 03 80 01 3c  	lui	$1, 0x8003
80023324: bc 03 25 24  	addiu	$5, $1, 0x3bc
80023328: f6 b4 00 0c  	jal	0x2d3d8 <.text+0xd3d8>
8002332c: 00 00 00 00  	nop
80023330: 98 ff bd 27  	addiu	$sp, $sp, -0x68
80023334: 64 00 bf af  	sw	$ra, 0x64($sp)
80023338: 60 00 be af  	sw	$fp, 0x60($sp)
8002333c: 25 f0 a0 03  	move	$fp, $sp
80023340: 18 00 c4 af  	sw	$4, 0x18($fp)
80023344: 1c 00 c4 af  	sw	$4, 0x1c($fp)
80023348: 00 00 01 24  	addiu	$1, $zero, 0x0
8002334c: 08 00 00 14  	bnez	$zero, 0x80023370 <.text+0x3370>
80023350: 00 00 00 00  	nop
80023354: d7 8c 00 08  	j	0x2335c <.text+0x335c>
80023358: 00 00 00 00  	nop
8002335c: 00 00 01 24  	addiu	$1, $zero, 0x0
80023360: 07 00 00 14  	bnez	$zero, 0x80023380 <.text+0x3380>
80023364: 00 00 00 00  	nop
80023368: e4 8c 00 08  	j	0x23390 <.text+0x3390>
8002336c: 00 00 00 00  	nop
80023370: 03 80 01 3c  	lui	$1, 0x8003
80023374: e0 03 24 24  	addiu	$4, $1, 0x3e0
80023378: be b2 00 0c  	jal	0x2caf8 <.text+0xcaf8>
8002337c: 00 00 00 00  	nop
80023380: 03 80 01 3c  	lui	$1, 0x8003
80023384: f0 03 24 24  	addiu	$4, $1, 0x3f0
80023388: be b2 00 0c  	jal	0x2caf8 <.text+0xcaf8>
8002338c: 00 00 00 00  	nop
80023390: 00 b8 01 3c  	lui	$1, 0xb800
80023394: fd 03 22 34  	ori	$2, $1, 0x3fd
80023398: 24 00 c2 af  	sw	$2, 0x24($fp)
8002339c: f8 03 21 34  	ori	$1, $1, 0x3f8
800233a0: 28 00 c1 af  	sw	$1, 0x28($fp)
800233a4: 24 00 c2 8f  	lw	$2, 0x24($fp)
800233a8: 10 00 c2 af  	sw	$2, 0x10($fp)
800233ac: 28 00 c1 8f  	lw	$1, 0x28($fp)
800233b0: 14 00 c1 af  	sw	$1, 0x14($fp)
800233b4: 38 00 c2 af  	sw	$2, 0x38($fp)
800233b8: 3c 00 c1 af  	sw	$1, 0x3c($fp)
800233bc: 44 00 c2 af  	sw	$2, 0x44($fp)
800233c0: 48 00 c1 af  	sw	$1, 0x48($fp)
800233c4: 00 00 04 24  	addiu	$4, $zero, 0x0
800233c8: 14 90 00 0c  	jal	0x24050 <.text+0x4050>
800233cc: 00 00 00 00  	nop
800233d0: 10 00 c4 8f  	lw	$4, 0x10($fp)
800233d4: 14 00 c1 8f  	lw	$1, 0x14($fp)
800233d8: 18 00 c3 8f  	lw	$3, 0x18($fp)
800233dc: 25 28 40 00  	move	$5, $2
800233e0: 1c 00 c2 8f  	lw	$2, 0x1c($fp)
800233e4: 4f 00 c5 a3  	sb	$5, 0x4f($fp)
800233e8: 4f 00 c5 93  	lbu	$5, 0x4f($fp)
800233ec: 43 00 c5 a3  	sb	$5, 0x43($fp)
800233f0: 58 00 c4 af  	sw	$4, 0x58($fp)
800233f4: 5c 00 c1 af  	sw	$1, 0x5c($fp)
800233f8: 50 00 c4 af  	sw	$4, 0x50($fp)
800233fc: 54 00 c1 af  	sw	$1, 0x54($fp)
80023400: 50 00 c4 8f  	lw	$4, 0x50($fp)
80023404: 54 00 c1 8f  	lw	$1, 0x54($fp)
80023408: 43 00 c5 93  	lbu	$5, 0x43($fp)
8002340c: 2c 00 c5 a3  	sb	$5, 0x2c($fp)
80023410: 30 00 c4 af  	sw	$4, 0x30($fp)
80023414: 34 00 c1 af  	sw	$1, 0x34($fp)
80023418: 34 00 c1 8f  	lw	$1, 0x34($fp)
8002341c: 08 00 61 ac  	sw	$1, 0x8($3)
80023420: 30 00 c1 8f  	lw	$1, 0x30($fp)
80023424: 04 00 61 ac  	sw	$1, 0x4($3)
80023428: 2c 00 c1 8f  	lw	$1, 0x2c($fp)
8002342c: 00 00 61 ac  	sw	$1, 0x0($3)
80023430: 25 e8 c0 03  	move	$sp, $fp
80023434: 60 00 be 8f  	lw	$fp, 0x60($sp)
80023438: 64 00 bf 8f  	lw	$ra, 0x64($sp)
8002343c: 68 00 bd 27  	addiu	$sp, $sp, 0x68
80023440: 08 00 e0 03  	jr	$ra
80023444: 00 00 00 00  	nop
80023448: f0 ff bd 27  	addiu	$sp, $sp, -0x10
8002344c: 0c 00 bf af  	sw	$ra, 0xc($sp)
80023450: 08 00 be af  	sw	$fp, 0x8($sp)
80023454: 25 f0 a0 03  	move	$fp, $sp
80023458: 04 00 c4 af  	sw	$4, 0x4($fp)
8002345c: 25 e8 c0 03  	move	$sp, $fp
80023460: 08 00 be 8f  	lw	$fp, 0x8($sp)
80023464: 0c 00 bf 8f  	lw	$ra, 0xc($sp)
80023468: 10 00 bd 27  	addiu	$sp, $sp, 0x10
8002346c: 08 00 e0 03  	jr	$ra
80023470: 00 00 00 00  	nop
80023474: e0 ff bd 27  	addiu	$sp, $sp, -0x20
80023478: 1c 00 bf af  	sw	$ra, 0x1c($sp)
8002347c: 18 00 be af  	sw	$fp, 0x18($sp)
80023480: 25 f0 a0 03  	move	$fp, $sp
80023484: 14 00 c4 af  	sw	$4, 0x14($fp)
80023488: 59 92 00 0c  	jal	0x24964 <.text+0x4964>
8002348c: 00 00 00 00  	nop
80023490: 25 e8 c0 03  	move	$sp, $fp
80023494: 18 00 be 8f  	lw	$fp, 0x18($sp)
80023498: 1c 00 bf 8f  	lw	$ra, 0x1c($sp)
8002349c: 20 00 bd 27  	addiu	$sp, $sp, 0x20
800234a0: 08 00 e0 03  	jr	$ra
800234a4: 00 00 00 00  	nop
800234a8: f0 ff bd 27  	addiu	$sp, $sp, -0x10
800234ac: 0c 00 bf af  	sw	$ra, 0xc($sp)
800234b0: 08 00 be af  	sw	$fp, 0x8($sp)
800234b4: 25 f0 a0 03  	move	$fp, $sp
800234b8: 04 00 c4 af  	sw	$4, 0x4($fp)
800234bc: 25 e8 c0 03  	move	$sp, $fp
800234c0: 08 00 be 8f  	lw	$fp, 0x8($sp)
800234c4: 0c 00 bf 8f  	lw	$ra, 0xc($sp)
800234c8: 10 00 bd 27  	addiu	$sp, $sp, 0x10
800234cc: 08 00 e0 03  	jr	$ra
800234d0: 00 00 00 00  	nop
800234d4: f0 ff bd 27  	addiu	$sp, $sp, -0x10
800234d8: 0c 00 bf af  	sw	$ra, 0xc($sp)
800234dc: 08 00 be af  	sw	$fp, 0x8($sp)
800234e0: 25 f0 a0 03  	move	$fp, $sp
800234e4: 04 00 c4 af  	sw	$4, 0x4($fp)
800234e8: 25 e8 c0 03  	move	$sp, $fp
800234ec: 08 00 be 8f  	lw	$fp, 0x8($sp)
800234f0: 0c 00 bf 8f  	lw	$ra, 0xc($sp)
800234f4: 10 00 bd 27  	addiu	$sp, $sp, 0x10
800234f8: 08 00 e0 03  	jr	$ra
800234fc: 00 00 00 00  	nop
80023500: e0 ff bd 27  	addiu	$sp, $sp, -0x20
80023504: 1c 00 bf af  	sw	$ra, 0x1c($sp)
80023508: 18 00 be af  	sw	$fp, 0x18($sp)
8002350c: 25 f0 a0 03  	move	$fp, $sp
80023510: 14 00 c4 af  	sw	$4, 0x14($fp)
80023514: 4d 8d 00 0c  	jal	0x23534 <.text+0x3534>
80023518: 00 00 00 00  	nop
8002351c: 25 e8 c0 03  	move	$sp, $fp
80023520: 18 00 be 8f  	lw	$fp, 0x18($sp)
80023524: 1c 00 bf 8f  	lw	$ra, 0x1c($sp)
80023528: 20 00 bd 27  	addiu	$sp, $sp, 0x20
8002352c: 08 00 e0 03  	jr	$ra
80023530: 00 00 00 00  	nop
80023534: e0 ff bd 27  	addiu	$sp, $sp, -0x20
80023538: 1c 00 bf af  	sw	$ra, 0x1c($sp)
8002353c: 18 00 be af  	sw	$fp, 0x18($sp)
80023540: 25 f0 a0 03  	move	$fp, $sp
80023544: 14 00 c4 af  	sw	$4, 0x14($fp)
80023548: 5a 8d 00 0c  	jal	0x23568 <.text+0x3568>
8002354c: 00 00 00 00  	nop
80023550: 25 e8 c0 03  	move	$sp, $fp
80023554: 18 00 be 8f  	lw	$fp, 0x18($sp)
80023558: 1c 00 bf 8f  	lw	$ra, 0x1c($sp)
8002355c: 20 00 bd 27  	addiu	$sp, $sp, 0x20
80023560: 08 00 e0 03  	jr	$ra
80023564: 00 00 00 00  	nop
80023568: e0 ff bd 27  	addiu	$sp, $sp, -0x20
8002356c: 1c 00 bf af  	sw	$ra, 0x1c($sp)
80023570: 18 00 be af  	sw	$fp, 0x18($sp)
80023574: 25 f0 a0 03  	move	$fp, $sp
80023578: 14 00 c4 af  	sw	$4, 0x14($fp)
8002357c: 00 00 84 8c  	lw	$4, 0x0($4)
80023580: 01 00 01 24  	addiu	$1, $zero, 0x1
80023584: 13 00 c1 a3  	sb	$1, 0x13($fp)
80023588: 13 00 c6 93  	lbu	$6, 0x13($fp)
8002358c: 00 00 05 24  	addiu	$5, $zero, 0x0
80023590: 35 90 00 0c  	jal	0x240d4 <.text+0x40d4>
80023594: 00 00 00 00  	nop
80023598: 25 e8 c0 03  	move	$sp, $fp
8002359c: 18 00 be 8f  	lw	$fp, 0x18($sp)
800235a0: 1c 00 bf 8f  	lw	$ra, 0x1c($sp)
800235a4: 20 00 bd 27  	addiu	$sp, $sp, 0x20
800235a8: 08 00 e0 03  	jr	$ra
800235ac: 00 00 00 00  	nop
800235b0: 00 ff bd 27  	addiu	$sp, $sp, -0x100
800235b4: fc 00 bf af  	sw	$ra, 0xfc($sp)
800235b8: f8 00 be af  	sw	$fp, 0xf8($sp)
800235bc: 25 f0 a0 03  	move	$fp, $sp
800235c0: 20 00 c6 af  	sw	$6, 0x20($fp)
800235c4: 1c 00 c5 af  	sw	$5, 0x1c($fp)
800235c8: 2c 00 c4 af  	sw	$4, 0x2c($fp)
800235cc: 78 00 c5 af  	sw	$5, 0x78($fp)
800235d0: 7c 00 c6 af  	sw	$6, 0x7c($fp)
800235d4: 2c 00 c4 8f  	lw	$4, 0x2c($fp)
800235d8: 4b 8e 00 0c  	jal	0x2392c <.text+0x392c>
800235dc: 00 00 00 00  	nop
800235e0: 1c 00 c4 8f  	lw	$4, 0x1c($fp)
800235e4: 20 00 c5 8f  	lw	$5, 0x20($fp)
800235e8: 30 00 c2 af  	sw	$2, 0x30($fp)
800235ec: 30 00 c1 8f  	lw	$1, 0x30($fp)
800235f0: 24 00 c1 af  	sw	$1, 0x24($fp)
800235f4: f0 00 c4 af  	sw	$4, 0xf0($fp)
800235f8: f4 00 c5 af  	sw	$5, 0xf4($fp)
800235fc: 03 80 01 3c  	lui	$1, 0x8003
80023600: 88 04 26 24  	addiu	$6, $1, 0x488
80023604: 9b b7 00 0c  	jal	0x2de6c <.text+0xde6c>
80023608: 00 00 00 00  	nop
8002360c: 24 00 c1 8f  	lw	$1, 0x24($fp)
80023610: 34 00 c1 af  	sw	$1, 0x34($fp)
80023614: 38 00 c2 af  	sw	$2, 0x38($fp)
80023618: 3c 00 c3 af  	sw	$3, 0x3c($fp)
8002361c: 34 00 c1 8f  	lw	$1, 0x34($fp)
80023620: ff ff 21 24  	addiu	$1, $1, -0x1
80023624: 28 00 c1 af  	sw	$1, 0x28($fp)
80023628: 04 00 21 2c  	sltiu	$1, $1, 0x4
8002362c: 08 00 20 10  	beqz	$1, 0x80023650 <.text+0x3650>
80023630: 00 00 00 00  	nop
80023634: 28 00 c1 8f  	lw	$1, 0x28($fp)
80023638: 80 08 01 00  	sll	$1, $1, 0x2
8002363c: 03 80 02 3c  	lui	$2, 0x8003
80023640: 21 08 22 00  	addu	$1, $1, $2
80023644: 00 04 21 8c  	lw	$1, 0x400($1)
80023648: 08 00 20 00  	jr	$1
8002364c: 00 00 00 00  	nop
80023650: 20 00 c2 8f  	lw	$2, 0x20($fp)
80023654: 30 00 c3 27  	addiu	$3, $fp, 0x30
80023658: ac 00 c3 af  	sw	$3, 0xac($fp)
8002365c: cc 00 c3 af  	sw	$3, 0xcc($fp)
80023660: 02 80 01 3c  	lui	$1, 0x8002
80023664: 74 77 21 24  	addiu	$1, $1, 0x7774
80023668: d0 00 c1 af  	sw	$1, 0xd0($fp)
8002366c: c4 00 c3 af  	sw	$3, 0xc4($fp)
80023670: c8 00 c1 af  	sw	$1, 0xc8($fp)
80023674: c4 00 c6 8f  	lw	$6, 0xc4($fp)
80023678: c8 00 c5 8f  	lw	$5, 0xc8($fp)
8002367c: 2c 00 c4 27  	addiu	$4, $fp, 0x2c
80023680: b0 00 c4 af  	sw	$4, 0xb0($fp)
80023684: bc 00 c4 af  	sw	$4, 0xbc($fp)
80023688: 02 80 03 3c  	lui	$3, 0x8002
8002368c: e0 50 63 24  	addiu	$3, $3, 0x50e0
80023690: c0 00 c3 af  	sw	$3, 0xc0($fp)
80023694: b4 00 c4 af  	sw	$4, 0xb4($fp)
80023698: b8 00 c3 af  	sw	$3, 0xb8($fp)
8002369c: b4 00 c4 8f  	lw	$4, 0xb4($fp)
800236a0: b8 00 c3 8f  	lw	$3, 0xb8($fp)
800236a4: 70 00 c2 af  	sw	$2, 0x70($fp)
800236a8: 70 00 c2 27  	addiu	$2, $fp, 0x70
800236ac: a8 00 c2 af  	sw	$2, 0xa8($fp)
800236b0: dc 00 c2 af  	sw	$2, 0xdc($fp)
800236b4: e0 00 c1 af  	sw	$1, 0xe0($fp)
800236b8: d4 00 c2 af  	sw	$2, 0xd4($fp)
800236bc: d8 00 c1 af  	sw	$1, 0xd8($fp)
800236c0: d4 00 c2 8f  	lw	$2, 0xd4($fp)
800236c4: d8 00 c1 8f  	lw	$1, 0xd8($fp)
800236c8: 58 00 c6 af  	sw	$6, 0x58($fp)
800236cc: 5c 00 c5 af  	sw	$5, 0x5c($fp)
800236d0: 60 00 c4 af  	sw	$4, 0x60($fp)
800236d4: 64 00 c3 af  	sw	$3, 0x64($fp)
800236d8: 68 00 c2 af  	sw	$2, 0x68($fp)
800236dc: 6c 00 c1 af  	sw	$1, 0x6c($fp)
800236e0: 25 08 a0 03  	move	$1, $sp
800236e4: 03 00 06 24  	addiu	$6, $zero, 0x3
800236e8: 10 00 26 ac  	sw	$6, 0x10($1)
800236ec: 03 80 01 3c  	lui	$1, 0x8003
800236f0: e4 04 25 24  	addiu	$5, $1, 0x4e4
800236f4: 40 00 c4 27  	addiu	$4, $fp, 0x40
800236f8: 18 00 c4 af  	sw	$4, 0x18($fp)
800236fc: 58 00 c7 27  	addiu	$7, $fp, 0x58
80023700: 5a 85 00 0c  	jal	0x21568 <.text+0x1568>
80023704: 00 00 00 00  	nop
80023708: 18 00 c4 8f  	lw	$4, 0x18($fp)
8002370c: 03 80 01 3c  	lui	$1, 0x8003
80023710: fc 04 25 24  	addiu	$5, $1, 0x4fc
80023714: f6 b4 00 0c  	jal	0x2d3d8 <.text+0xd3d8>
80023718: 00 00 00 00  	nop
8002371c: 3c 00 c1 8f  	lw	$1, 0x3c($fp)
80023720: 15 00 20 14  	bnez	$1, 0x80023778 <.text+0x3778>
80023724: 00 00 00 00  	nop
80023728: 94 8d 00 08  	j	0x23650 <.text+0x3650>
8002372c: 00 00 00 00  	nop
80023730: 3c 00 c1 8f  	lw	$1, 0x3c($fp)
80023734: 02 00 21 2c  	sltiu	$1, $1, 0x2
80023738: 27 00 20 10  	beqz	$1, 0x800237d8 <.text+0x37d8>
8002373c: 00 00 00 00  	nop
80023740: 94 8d 00 08  	j	0x23650 <.text+0x3650>
80023744: 00 00 00 00  	nop
80023748: 3c 00 c1 8f  	lw	$1, 0x3c($fp)
8002374c: 03 00 21 2c  	sltiu	$1, $1, 0x3
80023750: 30 00 20 10  	beqz	$1, 0x80023814 <.text+0x3814>
80023754: 00 00 00 00  	nop
80023758: 94 8d 00 08  	j	0x23650 <.text+0x3650>
8002375c: 00 00 00 00  	nop
80023760: 3c 00 c1 8f  	lw	$1, 0x3c($fp)
80023764: 04 00 21 2c  	sltiu	$1, $1, 0x4
80023768: 40 00 20 10  	beqz	$1, 0x8002386c <.text+0x386c>
8002376c: 00 00 00 00  	nop
80023770: 94 8d 00 08  	j	0x23650 <.text+0x3650>
80023774: 00 00 00 00  	nop
80023778: 38 00 c2 8f  	lw	$2, 0x38($fp)
8002377c: 80 00 c2 af  	sw	$2, 0x80($fp)
80023780: 2c 00 c1 8f  	lw	$1, 0x2c($fp)
80023784: 00 00 41 a0  	sb	$1, 0x0($2)
80023788: e4 8d 00 08  	j	0x23790 <.text+0x3790>
8002378c: 00 00 00 00  	nop
80023790: 20 00 c6 8f  	lw	$6, 0x20($fp)
80023794: 1c 00 c5 8f  	lw	$5, 0x1c($fp)
80023798: 30 00 c1 8f  	lw	$1, 0x30($fp)
8002379c: 74 00 c1 af  	sw	$1, 0x74($fp)
800237a0: 74 00 c4 8f  	lw	$4, 0x74($fp)
800237a4: e4 00 c5 af  	sw	$5, 0xe4($fp)
800237a8: e8 00 c6 af  	sw	$6, 0xe8($fp)
800237ac: ec 00 c4 af  	sw	$4, 0xec($fp)
800237b0: 03 80 01 3c  	lui	$1, 0x8003
800237b4: 98 04 27 24  	addiu	$7, $1, 0x498
800237b8: 44 b7 00 0c  	jal	0x2dd10 <.text+0xdd10>
800237bc: 00 00 00 00  	nop
800237c0: 25 e8 c0 03  	move	$sp, $fp
800237c4: f8 00 be 8f  	lw	$fp, 0xf8($sp)
800237c8: fc 00 bf 8f  	lw	$ra, 0xfc($sp)
800237cc: 00 01 bd 27  	addiu	$sp, $sp, 0x100
800237d0: 08 00 e0 03  	jr	$ra
800237d4: 00 00 00 00  	nop
800237d8: 38 00 c3 8f  	lw	$3, 0x38($fp)
800237dc: 84 00 c3 af  	sw	$3, 0x84($fp)
800237e0: 38 00 c2 8f  	lw	$2, 0x38($fp)
800237e4: 01 00 41 24  	addiu	$1, $2, 0x1
800237e8: 88 00 c1 af  	sw	$1, 0x88($fp)
800237ec: 2c 00 c1 8f  	lw	$1, 0x2c($fp)
800237f0: 80 21 21 7c  	ext	$1, $1, 0x6, 0x5
800237f4: c0 00 21 34  	ori	$1, $1, 0xc0
800237f8: 00 00 61 a0  	sb	$1, 0x0($3)
800237fc: 2c 00 c1 93  	lbu	$1, 0x2c($fp)
80023800: 3f 00 21 30  	andi	$1, $1, 0x3f
80023804: 80 00 21 34  	ori	$1, $1, 0x80
80023808: 01 00 41 a0  	sb	$1, 0x1($2)
8002380c: e4 8d 00 08  	j	0x23790 <.text+0x3790>
80023810: 00 00 00 00  	nop
80023814: 38 00 c4 8f  	lw	$4, 0x38($fp)
80023818: 8c 00 c4 af  	sw	$4, 0x8c($fp)
8002381c: 38 00 c3 8f  	lw	$3, 0x38($fp)
80023820: 01 00 61 24  	addiu	$1, $3, 0x1
80023824: 90 00 c1 af  	sw	$1, 0x90($fp)
80023828: 38 00 c2 8f  	lw	$2, 0x38($fp)
8002382c: 02 00 41 24  	addiu	$1, $2, 0x2
80023830: 94 00 c1 af  	sw	$1, 0x94($fp)
80023834: 2c 00 c1 8f  	lw	$1, 0x2c($fp)
80023838: 00 1b 21 7c  	ext	$1, $1, 0xc, 0x4
8002383c: e0 00 21 34  	ori	$1, $1, 0xe0
80023840: 00 00 81 a0  	sb	$1, 0x0($4)
80023844: 2c 00 c1 8f  	lw	$1, 0x2c($fp)
80023848: 80 29 21 7c  	ext	$1, $1, 0x6, 0x6
8002384c: 80 00 21 34  	ori	$1, $1, 0x80
80023850: 01 00 61 a0  	sb	$1, 0x1($3)
80023854: 2c 00 c1 93  	lbu	$1, 0x2c($fp)
80023858: 3f 00 21 30  	andi	$1, $1, 0x3f
8002385c: 80 00 21 34  	ori	$1, $1, 0x80
80023860: 02 00 41 a0  	sb	$1, 0x2($2)
80023864: e4 8d 00 08  	j	0x23790 <.text+0x3790>
80023868: 00 00 00 00  	nop
8002386c: 38 00 c5 8f  	lw	$5, 0x38($fp)
80023870: 98 00 c5 af  	sw	$5, 0x98($fp)
80023874: 38 00 c4 8f  	lw	$4, 0x38($fp)
80023878: 01 00 81 24  	addiu	$1, $4, 0x1
8002387c: 9c 00 c1 af  	sw	$1, 0x9c($fp)
80023880: 38 00 c3 8f  	lw	$3, 0x38($fp)
80023884: 02 00 61 24  	addiu	$1, $3, 0x2
80023888: a0 00 c1 af  	sw	$1, 0xa0($fp)
8002388c: 38 00 c2 8f  	lw	$2, 0x38($fp)
80023890: 03 00 41 24  	addiu	$1, $2, 0x3
80023894: a4 00 c1 af  	sw	$1, 0xa4($fp)
80023898: 2c 00 c1 8f  	lw	$1, 0x2c($fp)
8002389c: 80 14 21 7c  	ext	$1, $1, 0x12, 0x3
800238a0: f0 00 21 34  	ori	$1, $1, 0xf0
800238a4: 00 00 a1 a0  	sb	$1, 0x0($5)
800238a8: 2c 00 c1 8f  	lw	$1, 0x2c($fp)
800238ac: 00 2b 21 7c  	ext	$1, $1, 0xc, 0x6
800238b0: 80 00 21 34  	ori	$1, $1, 0x80
800238b4: 01 00 81 a0  	sb	$1, 0x1($4)
800238b8: 2c 00 c1 8f  	lw	$1, 0x2c($fp)
800238bc: 80 29 21 7c  	ext	$1, $1, 0x6, 0x6
800238c0: 80 00 21 34  	ori	$1, $1, 0x80
800238c4: 02 00 61 a0  	sb	$1, 0x2($3)
800238c8: 2c 00 c1 93  	lbu	$1, 0x2c($fp)
800238cc: 3f 00 21 30  	andi	$1, $1, 0x3f
800238d0: 80 00 21 34  	ori	$1, $1, 0x80
800238d4: 03 00 41 a0  	sb	$1, 0x3($2)
800238d8: e4 8d 00 08  	j	0x23790 <.text+0x3790>
800238dc: 00 00 00 00  	nop
800238e0: d8 ff bd 27  	addiu	$sp, $sp, -0x28
800238e4: 24 00 bf af  	sw	$ra, 0x24($sp)
800238e8: 20 00 be af  	sw	$fp, 0x20($sp)
800238ec: 25 f0 a0 03  	move	$fp, $sp
800238f0: 14 00 c4 af  	sw	$4, 0x14($fp)
800238f4: 18 00 c5 af  	sw	$5, 0x18($fp)
800238f8: 1c 00 c6 af  	sw	$6, 0x1c($fp)
800238fc: 6c 8d 00 0c  	jal	0x235b0 <.text+0x35b0>
80023900: 00 00 00 00  	nop
80023904: 25 20 40 00  	move	$4, $2
80023908: 25 28 60 00  	move	$5, $3
8002390c: ab 86 00 0c  	jal	0x21aac <.text+0x1aac>
80023910: 00 00 00 00  	nop
80023914: 25 e8 c0 03  	move	$sp, $fp
80023918: 20 00 be 8f  	lw	$fp, 0x20($sp)
8002391c: 24 00 bf 8f  	lw	$ra, 0x24($sp)
80023920: 28 00 bd 27  	addiu	$sp, $sp, 0x28
80023924: 08 00 e0 03  	jr	$ra
80023928: 00 00 00 00  	nop
8002392c: e8 ff bd 27  	addiu	$sp, $sp, -0x18
80023930: 14 00 bf af  	sw	$ra, 0x14($sp)
80023934: 10 00 be af  	sw	$fp, 0x10($sp)
80023938: 25 f0 a0 03  	move	$fp, $sp
8002393c: 04 00 c4 af  	sw	$4, 0x4($fp)
80023940: 0c 00 c4 af  	sw	$4, 0xc($fp)
80023944: 80 00 81 2c  	sltiu	$1, $4, 0x80
80023948: 09 00 20 14  	bnez	$1, 0x80023970 <.text+0x3970>
8002394c: 00 00 00 00  	nop
80023950: 56 8e 00 08  	j	0x23958 <.text+0x3958>
80023954: 00 00 00 00  	nop
80023958: 04 00 c1 8f  	lw	$1, 0x4($fp)
8002395c: 00 08 21 2c  	sltiu	$1, $1, 0x800
80023960: 0e 00 20 14  	bnez	$1, 0x8002399c <.text+0x399c>
80023964: 00 00 00 00  	nop
80023968: 60 8e 00 08  	j	0x23980 <.text+0x3980>
8002396c: 00 00 00 00  	nop
80023970: 01 00 01 24  	addiu	$1, $zero, 0x1
80023974: 08 00 c1 af  	sw	$1, 0x8($fp)
80023978: 73 8e 00 08  	j	0x239cc <.text+0x39cc>
8002397c: 00 00 00 00  	nop
80023980: 04 00 c1 8f  	lw	$1, 0x4($fp)
80023984: 01 00 02 3c  	lui	$2, 0x1
80023988: 2b 08 22 00  	sltu	$1, $1, $2
8002398c: 0b 00 20 14  	bnez	$1, 0x800239bc <.text+0x39bc>
80023990: 00 00 00 00  	nop
80023994: 6b 8e 00 08  	j	0x239ac <.text+0x39ac>
80023998: 00 00 00 00  	nop
8002399c: 02 00 01 24  	addiu	$1, $zero, 0x2
800239a0: 08 00 c1 af  	sw	$1, 0x8($fp)
800239a4: 73 8e 00 08  	j	0x239cc <.text+0x39cc>
800239a8: 00 00 00 00  	nop
800239ac: 04 00 01 24  	addiu	$1, $zero, 0x4
800239b0: 08 00 c1 af  	sw	$1, 0x8($fp)
800239b4: 73 8e 00 08  	j	0x239cc <.text+0x39cc>
800239b8: 00 00 00 00  	nop
800239bc: 03 00 01 24  	addiu	$1, $zero, 0x3
800239c0: 08 00 c1 af  	sw	$1, 0x8($fp)
800239c4: 73 8e 00 08  	j	0x239cc <.text+0x39cc>
800239c8: 00 00 00 00  	nop
800239cc: 08 00 c2 8f  	lw	$2, 0x8($fp)
800239d0: 25 e8 c0 03  	move	$sp, $fp
800239d4: 10 00 be 8f  	lw	$fp, 0x10($sp)
800239d8: 14 00 bf 8f  	lw	$ra, 0x14($sp)
800239dc: 18 00 bd 27  	addiu	$sp, $sp, 0x18
800239e0: 08 00 e0 03  	jr	$ra
800239e4: 00 00 00 00  	nop
800239e8: e0 ff bd 27  	addiu	$sp, $sp, -0x20
800239ec: 1c 00 bf af  	sw	$ra, 0x1c($sp)
800239f0: 18 00 be af  	sw	$fp, 0x18($sp)
800239f4: 25 f0 a0 03  	move	$fp, $sp
800239f8: 14 00 c4 af  	sw	$4, 0x14($fp)
800239fc: 5c 86 00 0c  	jal	0x21970 <.text+0x1970>
80023a00: 00 00 00 00  	nop
80023a04: 25 e8 c0 03  	move	$sp, $fp
80023a08: 18 00 be 8f  	lw	$fp, 0x18($sp)
80023a0c: 1c 00 bf 8f  	lw	$ra, 0x1c($sp)
80023a10: 20 00 bd 27  	addiu	$sp, $sp, 0x20
80023a14: 08 00 e0 03  	jr	$ra
80023a18: 00 00 00 00  	nop
80023a1c: e8 ff bd 27  	addiu	$sp, $sp, -0x18
80023a20: 14 00 bf af  	sw	$ra, 0x14($sp)
80023a24: 10 00 be af  	sw	$fp, 0x10($sp)
80023a28: 25 f0 a0 03  	move	$fp, $sp
80023a2c: 00 00 c4 af  	sw	$4, 0x0($fp)
80023a30: 08 00 c4 af  	sw	$4, 0x8($fp)
80023a34: 00 00 81 8c  	lw	$1, 0x0($4)
80023a38: 06 00 20 14  	bnez	$1, 0x80023a54 <.text+0x3a54>
80023a3c: 00 00 00 00  	nop
80023a40: 92 8e 00 08  	j	0x23a48 <.text+0x3a48>
80023a44: 00 00 00 00  	nop
80023a48: 04 00 c0 af  	sw	$zero, 0x4($fp)
80023a4c: 9b 8e 00 08  	j	0x23a6c <.text+0x3a6c>
80023a50: 00 00 00 00  	nop
80023a54: 00 00 c1 8f  	lw	$1, 0x0($fp)
80023a58: 04 00 21 24  	addiu	$1, $1, 0x4
80023a5c: 0c 00 c1 af  	sw	$1, 0xc($fp)
80023a60: 04 00 c1 af  	sw	$1, 0x4($fp)
80023a64: 9b 8e 00 08  	j	0x23a6c <.text+0x3a6c>
80023a68: 00 00 00 00  	nop
80023a6c: 04 00 c2 8f  	lw	$2, 0x4($fp)
80023a70: 25 e8 c0 03  	move	$sp, $fp
80023a74: 10 00 be 8f  	lw	$fp, 0x10($sp)
80023a78: 14 00 bf 8f  	lw	$ra, 0x14($sp)
80023a7c: 18 00 bd 27  	addiu	$sp, $sp, 0x18
80023a80: 08 00 e0 03  	jr	$ra
80023a84: 00 00 00 00  	nop
80023a88: f0 ff bd 27  	addiu	$sp, $sp, -0x10
80023a8c: 0c 00 bf af  	sw	$ra, 0xc($sp)
80023a90: 08 00 be af  	sw	$fp, 0x8($sp)
80023a94: 25 f0 a0 03  	move	$fp, $sp
80023a98: 00 00 c4 af  	sw	$4, 0x0($fp)
80023a9c: 00 00 c1 8f  	lw	$1, 0x0($fp)
80023aa0: 07 00 20 14  	bnez	$1, 0x80023ac0 <.text+0x3ac0>
80023aa4: 00 00 00 00  	nop
80023aa8: ac 8e 00 08  	j	0x23ab0 <.text+0x3ab0>
80023aac: 00 00 00 00  	nop
80023ab0: 00 00 01 24  	addiu	$1, $zero, 0x0
80023ab4: 05 00 c0 a3  	sb	$zero, 0x5($fp)
80023ab8: b8 8e 00 08  	j	0x23ae0 <.text+0x3ae0>
80023abc: 00 00 00 00  	nop
80023ac0: 00 00 c1 8f  	lw	$1, 0x0($fp)
80023ac4: 00 00 21 90  	lbu	$1, 0x0($1)
80023ac8: 07 00 c1 a3  	sb	$1, 0x7($fp)
80023acc: 06 00 c1 a3  	sb	$1, 0x6($fp)
80023ad0: 01 00 01 24  	addiu	$1, $zero, 0x1
80023ad4: 05 00 c1 a3  	sb	$1, 0x5($fp)
80023ad8: b8 8e 00 08  	j	0x23ae0 <.text+0x3ae0>
80023adc: 00 00 00 00  	nop
80023ae0: 05 00 c2 93  	lbu	$2, 0x5($fp)
80023ae4: 06 00 c3 93  	lbu	$3, 0x6($fp)
80023ae8: 25 e8 c0 03  	move	$sp, $fp
80023aec: 08 00 be 8f  	lw	$fp, 0x8($sp)
80023af0: 0c 00 bf 8f  	lw	$ra, 0xc($sp)
80023af4: 10 00 bd 27  	addiu	$sp, $sp, 0x10
80023af8: 08 00 e0 03  	jr	$ra
80023afc: 00 00 00 00  	nop
80023b00: e0 ff bd 27  	addiu	$sp, $sp, -0x20
80023b04: 1c 00 bf af  	sw	$ra, 0x1c($sp)
80023b08: 18 00 be af  	sw	$fp, 0x18($sp)
80023b0c: 25 f0 a0 03  	move	$fp, $sp
80023b10: 10 00 c4 af  	sw	$4, 0x10($fp)
80023b14: 14 00 c5 af  	sw	$5, 0x14($fp)
80023b18: 41 91 00 0c  	jal	0x24504 <.text+0x4504>
80023b1c: 00 00 00 00  	nop
80023b20: 08 00 40 14  	bnez	$2, 0x80023b44 <.text+0x3b44>
80023b24: 00 00 00 00  	nop
80023b28: cc 8e 00 08  	j	0x23b30 <.text+0x3b30>
80023b2c: 00 00 00 00  	nop
80023b30: 03 80 01 3c  	lui	$1, 0x8003
80023b34: 0c 05 24 24  	addiu	$4, $1, 0x50c
80023b38: 6e 00 05 24  	addiu	$5, $zero, 0x6e
80023b3c: 57 b5 00 0c  	jal	0x2d55c <.text+0xd55c>
80023b40: 00 00 00 00  	nop
80023b44: 25 e8 c0 03  	move	$sp, $fp
80023b48: 18 00 be 8f  	lw	$fp, 0x18($sp)
80023b4c: 1c 00 bf 8f  	lw	$ra, 0x1c($sp)
80023b50: 20 00 bd 27  	addiu	$sp, $sp, 0x20
80023b54: 08 00 e0 03  	jr	$ra
80023b58: 00 00 00 00  	nop
80023b5c: e0 ff bd 27  	addiu	$sp, $sp, -0x20
80023b60: 1c 00 bf af  	sw	$ra, 0x1c($sp)
80023b64: 18 00 be af  	sw	$fp, 0x18($sp)
80023b68: 25 f0 a0 03  	move	$fp, $sp
80023b6c: 10 00 c4 af  	sw	$4, 0x10($fp)
80023b70: 14 00 c5 af  	sw	$5, 0x14($fp)
80023b74: 41 91 00 0c  	jal	0x24504 <.text+0x4504>
80023b78: 00 00 00 00  	nop
80023b7c: 08 00 40 14  	bnez	$2, 0x80023ba0 <.text+0x3ba0>
80023b80: 00 00 00 00  	nop
80023b84: e3 8e 00 08  	j	0x23b8c <.text+0x3b8c>
80023b88: 00 00 00 00  	nop
80023b8c: 03 80 01 3c  	lui	$1, 0x8003
80023b90: 7a 05 24 24  	addiu	$4, $1, 0x57a
80023b94: 6f 00 05 24  	addiu	$5, $zero, 0x6f
80023b98: 57 b5 00 0c  	jal	0x2d55c <.text+0xd55c>
80023b9c: 00 00 00 00  	nop
80023ba0: 25 e8 c0 03  	move	$sp, $fp
80023ba4: 18 00 be 8f  	lw	$fp, 0x18($sp)
80023ba8: 1c 00 bf 8f  	lw	$ra, 0x1c($sp)
80023bac: 20 00 bd 27  	addiu	$sp, $sp, 0x20
80023bb0: 08 00 e0 03  	jr	$ra
80023bb4: 00 00 00 00  	nop
80023bb8: d8 ff bd 27  	addiu	$sp, $sp, -0x28
80023bbc: 24 00 bf af  	sw	$ra, 0x24($sp)
80023bc0: 20 00 be af  	sw	$fp, 0x20($sp)
80023bc4: 25 f0 a0 03  	move	$fp, $sp
80023bc8: 14 00 c4 af  	sw	$4, 0x14($fp)
80023bcc: 18 00 c4 af  	sw	$4, 0x18($fp)
80023bd0: 23 91 00 0c  	jal	0x2448c <.text+0x448c>
80023bd4: 00 00 00 00  	nop
80023bd8: 0d 00 40 14  	bnez	$2, 0x80023c10 <.text+0x3c10>
80023bdc: 00 00 00 00  	nop
80023be0: fa 8e 00 08  	j	0x23be8 <.text+0x3be8>
80023be4: 00 00 00 00  	nop
80023be8: 14 00 c1 8f  	lw	$1, 0x14($fp)
80023bec: 00 00 21 90  	lbu	$1, 0x0($1)
80023bf0: 1f 00 c1 a3  	sb	$1, 0x1f($fp)
80023bf4: 1f 00 c2 93  	lbu	$2, 0x1f($fp)
80023bf8: 25 e8 c0 03  	move	$sp, $fp
80023bfc: 20 00 be 8f  	lw	$fp, 0x20($sp)
80023c00: 24 00 bf 8f  	lw	$ra, 0x24($sp)
80023c04: 28 00 bd 27  	addiu	$sp, $sp, 0x28
80023c08: 08 00 e0 03  	jr	$ra
80023c0c: 00 00 00 00  	nop
80023c10: 14 00 c4 8f  	lw	$4, 0x14($fp)
80023c14: 01 00 05 24  	addiu	$5, $zero, 0x1
80023c18: c0 8e 00 0c  	jal	0x23b00 <.text+0x3b00>
80023c1c: 00 00 00 00  	nop
80023c20: fa 8e 00 08  	j	0x23be8 <.text+0x3be8>
80023c24: 00 00 00 00  	nop
80023c28: d8 ff bd 27  	addiu	$sp, $sp, -0x28
80023c2c: 24 00 bf af  	sw	$ra, 0x24($sp)
80023c30: 20 00 be af  	sw	$fp, 0x20($sp)
80023c34: 25 f0 a0 03  	move	$fp, $sp
80023c38: 10 00 c4 af  	sw	$4, 0x10($fp)
80023c3c: 25 08 a0 00  	move	$1, $5
80023c40: 14 00 c1 af  	sw	$1, 0x14($fp)
80023c44: 18 00 c4 af  	sw	$4, 0x18($fp)
80023c48: 1f 00 c5 a3  	sb	$5, 0x1f($fp)
80023c4c: 23 91 00 0c  	jal	0x2448c <.text+0x448c>
80023c50: 00 00 00 00  	nop
80023c54: 0c 00 40 14  	bnez	$2, 0x80023c88 <.text+0x3c88>
80023c58: 00 00 00 00  	nop
80023c5c: 19 8f 00 08  	j	0x23c64 <.text+0x3c64>
80023c60: 00 00 00 00  	nop
80023c64: 14 00 c1 8f  	lw	$1, 0x14($fp)
80023c68: 10 00 c2 8f  	lw	$2, 0x10($fp)
80023c6c: 00 00 41 a0  	sb	$1, 0x0($2)
80023c70: 25 e8 c0 03  	move	$sp, $fp
80023c74: 20 00 be 8f  	lw	$fp, 0x20($sp)
80023c78: 24 00 bf 8f  	lw	$ra, 0x24($sp)
80023c7c: 28 00 bd 27  	addiu	$sp, $sp, 0x28
80023c80: 08 00 e0 03  	jr	$ra
80023c84: 00 00 00 00  	nop
80023c88: 10 00 c4 8f  	lw	$4, 0x10($fp)
80023c8c: 01 00 05 24  	addiu	$5, $zero, 0x1
80023c90: d7 8e 00 0c  	jal	0x23b5c <.text+0x3b5c>
80023c94: 00 00 00 00  	nop
80023c98: 19 8f 00 08  	j	0x23c64 <.text+0x3c64>
80023c9c: 00 00 00 00  	nop
80023ca0: 98 ff bd 27  	addiu	$sp, $sp, -0x68
80023ca4: 64 00 bf af  	sw	$ra, 0x64($sp)
80023ca8: 60 00 be af  	sw	$fp, 0x60($sp)
80023cac: 25 f0 a0 03  	move	$fp, $sp
80023cb0: 1c 00 c4 af  	sw	$4, 0x1c($fp)
80023cb4: 54 00 c4 af  	sw	$4, 0x54($fp)
80023cb8: 00 00 01 24  	addiu	$1, $zero, 0x0
80023cbc: 53 00 c0 a3  	sb	$zero, 0x53($fp)
80023cc0: 01 00 01 24  	addiu	$1, $zero, 0x1
80023cc4: 53 00 c1 a3  	sb	$1, 0x53($fp)
80023cc8: 10 00 84 24  	addiu	$4, $4, 0x10
80023ccc: 04 00 01 24  	addiu	$1, $zero, 0x4
80023cd0: 2a 00 c1 a3  	sb	$1, 0x2a($fp)
80023cd4: 2a 00 c5 93  	lbu	$5, 0x2a($fp)
80023cd8: 8a 90 00 0c  	jal	0x24228 <.text+0x4228>
80023cdc: 00 00 00 00  	nop
80023ce0: 24 00 c2 af  	sw	$2, 0x24($fp)
80023ce4: 24 00 c1 8f  	lw	$1, 0x24($fp)
80023ce8: 0f 00 20 10  	beqz	$1, 0x80023d28 <.text+0x3d28>
80023cec: 00 00 00 00  	nop
80023cf0: 3e 8f 00 08  	j	0x23cf8 <.text+0x3cf8>
80023cf4: 00 00 00 00  	nop
80023cf8: 24 00 c1 8f  	lw	$1, 0x24($fp)
80023cfc: 18 00 c1 af  	sw	$1, 0x18($fp)
80023d00: 04 00 21 2c  	sltiu	$1, $1, 0x4
80023d04: 48 00 20 10  	beqz	$1, 0x80023e28 <.text+0x3e28>
80023d08: 00 00 00 00  	nop
80023d0c: 18 00 c1 8f  	lw	$1, 0x18($fp)
80023d10: 80 08 01 00  	sll	$1, $1, 0x2
80023d14: 03 80 02 3c  	lui	$2, 0x8003
80023d18: 21 08 22 00  	addu	$1, $1, $2
80023d1c: ec 05 21 8c  	lw	$1, 0x5ec($1)
80023d20: 08 00 20 00  	jr	$1
80023d24: 00 00 00 00  	nop
80023d28: 1c 00 c1 8f  	lw	$1, 0x1c($fp)
80023d2c: 10 00 24 24  	addiu	$4, $1, 0x10
80023d30: 04 00 01 24  	addiu	$1, $zero, 0x4
80023d34: 2b 00 c1 a3  	sb	$1, 0x2b($fp)
80023d38: 2b 00 c7 93  	lbu	$7, 0x2b($fp)
80023d3c: 00 00 05 24  	addiu	$5, $zero, 0x0
80023d40: 01 00 06 24  	addiu	$6, $zero, 0x1
80023d44: 45 90 00 0c  	jal	0x24114 <.text+0x4114>
80023d48: 00 00 00 00  	nop
80023d4c: 24 00 c2 af  	sw	$2, 0x24($fp)
80023d50: 24 00 c1 8f  	lw	$1, 0x24($fp)
80023d54: e8 ff 20 14  	bnez	$1, 0x80023cf8 <.text+0x3cf8>
80023d58: 00 00 00 00  	nop
80023d5c: 59 8f 00 08  	j	0x23d64 <.text+0x3d64>
80023d60: 00 00 00 00  	nop
80023d64: 1c 00 c1 8f  	lw	$1, 0x1c($fp)
80023d68: 10 00 21 24  	addiu	$1, $1, 0x10
80023d6c: 14 00 c1 af  	sw	$1, 0x14($fp)
80023d70: 2c 00 c1 af  	sw	$1, 0x2c($fp)
80023d74: 01 00 01 24  	addiu	$1, $zero, 0x1
80023d78: 10 00 c1 af  	sw	$1, 0x10($fp)
80023d7c: 30 00 c1 a3  	sb	$1, 0x30($fp)
80023d80: 00 00 01 24  	addiu	$1, $zero, 0x0
80023d84: 53 00 c0 a3  	sb	$zero, 0x53($fp)
80023d88: 44 00 c4 27  	addiu	$4, $fp, 0x44
80023d8c: cc 8c 00 0c  	jal	0x23330 <.text+0x3330>
80023d90: 00 00 00 00  	nop
80023d94: 10 00 c1 8f  	lw	$1, 0x10($fp)
80023d98: 14 00 c4 8f  	lw	$4, 0x14($fp)
80023d9c: 1c 00 c2 8f  	lw	$2, 0x1c($fp)
80023da0: 4c 00 c3 8f  	lw	$3, 0x4c($fp)
80023da4: 40 00 c3 af  	sw	$3, 0x40($fp)
80023da8: 48 00 c3 8f  	lw	$3, 0x48($fp)
80023dac: 3c 00 c3 af  	sw	$3, 0x3c($fp)
80023db0: 44 00 c3 8f  	lw	$3, 0x44($fp)
80023db4: 38 00 c3 af  	sw	$3, 0x38($fp)
80023db8: 34 00 c1 af  	sw	$1, 0x34($fp)
80023dbc: 5c 00 c2 af  	sw	$2, 0x5c($fp)
80023dc0: 40 00 c1 8f  	lw	$1, 0x40($fp)
80023dc4: 0c 00 41 ac  	sw	$1, 0xc($2)
80023dc8: 3c 00 c1 8f  	lw	$1, 0x3c($fp)
80023dcc: 08 00 41 ac  	sw	$1, 0x8($2)
80023dd0: 38 00 c1 8f  	lw	$1, 0x38($fp)
80023dd4: 04 00 41 ac  	sw	$1, 0x4($2)
80023dd8: 34 00 c1 8f  	lw	$1, 0x34($fp)
80023ddc: 00 00 41 ac  	sw	$1, 0x0($2)
80023de0: 30 00 c0 a3  	sb	$zero, 0x30($fp)
80023de4: 02 00 01 24  	addiu	$1, $zero, 0x2
80023de8: 24 00 c1 af  	sw	$1, 0x24($fp)
80023dec: 24 00 c5 8f  	lw	$5, 0x24($fp)
80023df0: 04 00 01 24  	addiu	$1, $zero, 0x4
80023df4: 51 00 c1 a3  	sb	$1, 0x51($fp)
80023df8: 51 00 c6 93  	lbu	$6, 0x51($fp)
80023dfc: 99 90 00 0c  	jal	0x24264 <.text+0x4264>
80023e00: 00 00 00 00  	nop
80023e04: 1c 00 c4 8f  	lw	$4, 0x1c($fp)
80023e08: bb 8f 00 0c  	jal	0x23eec <.text+0x3eec>
80023e0c: 00 00 00 00  	nop
80023e10: 20 00 c2 af  	sw	$2, 0x20($fp)
80023e14: 2c 00 c4 27  	addiu	$4, $fp, 0x2c
80023e18: 1d 8d 00 0c  	jal	0x23474 <.text+0x3474>
80023e1c: 00 00 00 00  	nop
80023e20: ac 8f 00 08  	j	0x23eb0 <.text+0x3eb0>
80023e24: 00 00 00 00  	nop
80023e28: 68 86 00 0c  	jal	0x219a0 <.text+0x19a0>
80023e2c: 00 00 00 00  	nop
80023e30: 03 80 01 3c  	lui	$1, 0x8003
80023e34: fc 05 24 24  	addiu	$4, $1, 0x5fc
80023e38: 03 80 01 3c  	lui	$1, 0x8003
80023e3c: 80 06 26 24  	addiu	$6, $1, 0x680
80023e40: 28 00 05 24  	addiu	$5, $zero, 0x28
80023e44: 44 b5 00 0c  	jal	0x2d510 <.text+0xd510>
80023e48: 00 00 00 00  	nop
80023e4c: a9 90 00 0c  	jal	0x242a4 <.text+0x42a4>
80023e50: 00 00 00 00  	nop
80023e54: 1c 00 c1 8f  	lw	$1, 0x1c($fp)
80023e58: 10 00 24 24  	addiu	$4, $1, 0x10
80023e5c: 04 00 01 24  	addiu	$1, $zero, 0x4
80023e60: 52 00 c1 a3  	sb	$1, 0x52($fp)
80023e64: 52 00 c5 93  	lbu	$5, 0x52($fp)
80023e68: 8a 90 00 0c  	jal	0x24228 <.text+0x4228>
80023e6c: 00 00 00 00  	nop
80023e70: 24 00 c2 af  	sw	$2, 0x24($fp)
80023e74: 3e 8f 00 08  	j	0x23cf8 <.text+0x3cf8>
80023e78: 00 00 00 00  	nop
80023e7c: 03 80 01 3c  	lui	$1, 0x8003
80023e80: 90 06 24 24  	addiu	$4, $1, 0x690
80023e84: 03 80 01 3c  	lui	$1, 0x8003
80023e88: a4 06 26 24  	addiu	$6, $1, 0x6a4
80023e8c: 11 00 05 24  	addiu	$5, $zero, 0x11
80023e90: 44 b5 00 0c  	jal	0x2d510 <.text+0xd510>
80023e94: 00 00 00 00  	nop
80023e98: 1c 00 c4 8f  	lw	$4, 0x1c($fp)
80023e9c: bb 8f 00 0c  	jal	0x23eec <.text+0x3eec>
80023ea0: 00 00 00 00  	nop
80023ea4: 20 00 c2 af  	sw	$2, 0x20($fp)
80023ea8: ac 8f 00 08  	j	0x23eb0 <.text+0x3eb0>
80023eac: 00 00 00 00  	nop
80023eb0: 53 00 c1 93  	lbu	$1, 0x53($fp)
80023eb4: 01 00 21 30  	andi	$1, $1, 0x1
80023eb8: 0a 00 20 14  	bnez	$1, 0x80023ee4 <.text+0x3ee4>
80023ebc: 00 00 00 00  	nop
80023ec0: b2 8f 00 08  	j	0x23ec8 <.text+0x3ec8>
80023ec4: 00 00 00 00  	nop
80023ec8: 20 00 c2 8f  	lw	$2, 0x20($fp)
80023ecc: 25 e8 c0 03  	move	$sp, $fp
80023ed0: 60 00 be 8f  	lw	$fp, 0x60($sp)
80023ed4: 64 00 bf 8f  	lw	$ra, 0x64($sp)
80023ed8: 68 00 bd 27  	addiu	$sp, $sp, 0x68
80023edc: 08 00 e0 03  	jr	$ra
80023ee0: 00 00 00 00  	nop
80023ee4: b2 8f 00 08  	j	0x23ec8 <.text+0x3ec8>
80023ee8: 00 00 00 00  	nop
80023eec: d8 ff bd 27  	addiu	$sp, $sp, -0x28
80023ef0: 24 00 bf af  	sw	$ra, 0x24($sp)
80023ef4: 20 00 be af  	sw	$fp, 0x20($sp)
80023ef8: 25 f0 a0 03  	move	$fp, $sp
80023efc: 14 00 c4 af  	sw	$4, 0x14($fp)
80023f00: 1c 00 c4 af  	sw	$4, 0x1c($fp)
80023f04: 87 8e 00 0c  	jal	0x23a1c <.text+0x3a1c>
80023f08: 00 00 00 00  	nop
80023f0c: 10 00 c2 af  	sw	$2, 0x10($fp)
80023f10: 10 00 c1 8f  	lw	$1, 0x10($fp)
80023f14: 05 00 20 14  	bnez	$1, 0x80023f2c <.text+0x3f2c>
80023f18: 00 00 00 00  	nop
80023f1c: c9 8f 00 08  	j	0x23f24 <.text+0x3f24>
80023f20: 00 00 00 00  	nop
80023f24: 68 86 00 0c  	jal	0x219a0 <.text+0x19a0>
80023f28: 00 00 00 00  	nop
80023f2c: 10 00 c2 8f  	lw	$2, 0x10($fp)
80023f30: 18 00 c2 af  	sw	$2, 0x18($fp)
80023f34: 25 e8 c0 03  	move	$sp, $fp
80023f38: 20 00 be 8f  	lw	$fp, 0x20($sp)
80023f3c: 24 00 bf 8f  	lw	$ra, 0x24($sp)
80023f40: 28 00 bd 27  	addiu	$sp, $sp, 0x28
80023f44: 08 00 e0 03  	jr	$ra
80023f48: 00 00 00 00  	nop
80023f4c: b8 ff bd 27  	addiu	$sp, $sp, -0x48
80023f50: 44 00 bf af  	sw	$ra, 0x44($sp)
80023f54: 40 00 be af  	sw	$fp, 0x40($sp)
80023f58: 25 f0 a0 03  	move	$fp, $sp
80023f5c: 18 00 c4 af  	sw	$4, 0x18($fp)
80023f60: 58 00 c1 8f  	lw	$1, 0x58($fp)
80023f64: 1c 00 c1 af  	sw	$1, 0x1c($fp)
80023f68: 25 10 e0 00  	move	$2, $7
80023f6c: 20 00 c2 af  	sw	$2, 0x20($fp)
80023f70: 25 10 c0 00  	move	$2, $6
80023f74: 24 00 c2 af  	sw	$2, 0x24($fp)
80023f78: 25 10 a0 00  	move	$2, $5
80023f7c: 28 00 c2 af  	sw	$2, 0x28($fp)
80023f80: 30 00 c4 af  	sw	$4, 0x30($fp)
80023f84: 36 00 c5 a3  	sb	$5, 0x36($fp)
80023f88: 37 00 c6 a3  	sb	$6, 0x37($fp)
80023f8c: 38 00 c7 a3  	sb	$7, 0x38($fp)
80023f90: 39 00 c1 a3  	sb	$1, 0x39($fp)
80023f94: e7 8f 00 08  	j	0x23f9c <.text+0x3f9c>
80023f98: 00 00 00 00  	nop
80023f9c: 20 00 c7 8f  	lw	$7, 0x20($fp)
80023fa0: 18 00 c4 8f  	lw	$4, 0x18($fp)
80023fa4: 24 00 c1 8f  	lw	$1, 0x24($fp)
80023fa8: 28 00 c2 8f  	lw	$2, 0x28($fp)
80023fac: 1c 00 c3 8f  	lw	$3, 0x1c($fp)
80023fb0: 3c 00 c4 af  	sw	$4, 0x3c($fp)
80023fb4: 25 28 a0 03  	move	$5, $sp
80023fb8: 10 00 a3 ac  	sw	$3, 0x10($5)
80023fbc: 01 00 45 30  	andi	$5, $2, 0x1
80023fc0: 01 00 26 30  	andi	$6, $1, 0x1
80023fc4: f6 89 00 0c  	jal	0x227d8 <.text+0x27d8>
80023fc8: 00 00 00 00  	nop
80023fcc: 01 00 41 30  	andi	$1, $2, 0x1
80023fd0: 2e 00 c1 a3  	sb	$1, 0x2e($fp)
80023fd4: 2f 00 c3 a3  	sb	$3, 0x2f($fp)
80023fd8: 2e 00 c1 93  	lbu	$1, 0x2e($fp)
80023fdc: 01 00 21 30  	andi	$1, $1, 0x1
80023fe0: 0b 00 20 14  	bnez	$1, 0x80024010 <.text+0x4010>
80023fe4: 00 00 00 00  	nop
80023fe8: fc 8f 00 08  	j	0x23ff0 <.text+0x3ff0>
80023fec: 00 00 00 00  	nop
80023ff0: 2f 00 c1 93  	lbu	$1, 0x2f($fp)
80023ff4: 3a 00 c1 a3  	sb	$1, 0x3a($fp)
80023ff8: 2b 08 01 00  	sltu	$1, $zero, $1
80023ffc: 2d 00 c1 a3  	sb	$1, 0x2d($fp)
80024000: 00 00 01 24  	addiu	$1, $zero, 0x0
80024004: 2c 00 c0 a3  	sb	$zero, 0x2c($fp)
80024008: 0c 90 00 08  	j	0x24030 <.text+0x4030>
8002400c: 00 00 00 00  	nop
80024010: 2f 00 c1 93  	lbu	$1, 0x2f($fp)
80024014: 3b 00 c1 a3  	sb	$1, 0x3b($fp)
80024018: 2b 08 01 00  	sltu	$1, $zero, $1
8002401c: 2d 00 c1 a3  	sb	$1, 0x2d($fp)
80024020: 01 00 01 24  	addiu	$1, $zero, 0x1
80024024: 2c 00 c1 a3  	sb	$1, 0x2c($fp)
80024028: 0c 90 00 08  	j	0x24030 <.text+0x4030>
8002402c: 00 00 00 00  	nop
80024030: 2c 00 c2 93  	lbu	$2, 0x2c($fp)
80024034: 2d 00 c3 93  	lbu	$3, 0x2d($fp)
80024038: 25 e8 c0 03  	move	$sp, $fp
8002403c: 40 00 be 8f  	lw	$fp, 0x40($sp)
80024040: 44 00 bf 8f  	lw	$ra, 0x44($sp)
80024044: 48 00 bd 27  	addiu	$sp, $sp, 0x48
80024048: 08 00 e0 03  	jr	$ra
8002404c: 00 00 00 00  	nop
80024050: f0 ff bd 27  	addiu	$sp, $sp, -0x10
80024054: 0c 00 bf af  	sw	$ra, 0xc($sp)
80024058: 08 00 be af  	sw	$fp, 0x8($sp)
8002405c: 25 f0 a0 03  	move	$fp, $sp
80024060: 05 00 c4 a3  	sb	$4, 0x5($fp)
80024064: 07 00 c4 a3  	sb	$4, 0x7($fp)
80024068: 06 00 c4 a3  	sb	$4, 0x6($fp)
8002406c: 06 00 c1 93  	lbu	$1, 0x6($fp)
80024070: 04 00 c1 a3  	sb	$1, 0x4($fp)
80024074: 04 00 c2 93  	lbu	$2, 0x4($fp)
80024078: 25 e8 c0 03  	move	$sp, $fp
8002407c: 08 00 be 8f  	lw	$fp, 0x8($sp)
80024080: 0c 00 bf 8f  	lw	$ra, 0xc($sp)
80024084: 10 00 bd 27  	addiu	$sp, $sp, 0x10
80024088: 08 00 e0 03  	jr	$ra
8002408c: 00 00 00 00  	nop
80024090: d8 ff bd 27  	addiu	$sp, $sp, -0x28
80024094: 24 00 bf af  	sw	$ra, 0x24($sp)
80024098: 20 00 be af  	sw	$fp, 0x20($sp)
8002409c: 25 f0 a0 03  	move	$fp, $sp
800240a0: 14 00 c4 af  	sw	$4, 0x14($fp)
800240a4: 1b 00 c5 a3  	sb	$5, 0x1b($fp)
800240a8: 1c 00 c4 af  	sw	$4, 0x1c($fp)
800240ac: 79 b9 00 0c  	jal	0x2e5e4 <.text+0xe5e4>
800240b0: 00 00 00 00  	nop
800240b4: ff 00 41 30  	andi	$1, $2, 0xff
800240b8: 2b 10 01 00  	sltu	$2, $zero, $1
800240bc: 25 e8 c0 03  	move	$sp, $fp
800240c0: 20 00 be 8f  	lw	$fp, 0x20($sp)
800240c4: 24 00 bf 8f  	lw	$ra, 0x24($sp)
800240c8: 28 00 bd 27  	addiu	$sp, $sp, 0x28
800240cc: 08 00 e0 03  	jr	$ra
800240d0: 00 00 00 00  	nop
800240d4: d8 ff bd 27  	addiu	$sp, $sp, -0x28
800240d8: 24 00 bf af  	sw	$ra, 0x24($sp)
800240dc: 20 00 be af  	sw	$fp, 0x20($sp)
800240e0: 25 f0 a0 03  	move	$fp, $sp
800240e4: 14 00 c4 af  	sw	$4, 0x14($fp)
800240e8: 1a 00 c5 a3  	sb	$5, 0x1a($fp)
800240ec: 1b 00 c6 a3  	sb	$6, 0x1b($fp)
800240f0: 1c 00 c4 af  	sw	$4, 0x1c($fp)
800240f4: 92 91 00 0c  	jal	0x24648 <.text+0x4648>
800240f8: 00 00 00 00  	nop
800240fc: 25 e8 c0 03  	move	$sp, $fp
80024100: 20 00 be 8f  	lw	$fp, 0x20($sp)
80024104: 24 00 bf 8f  	lw	$ra, 0x24($sp)
80024108: 28 00 bd 27  	addiu	$sp, $sp, 0x28
8002410c: 08 00 e0 03  	jr	$ra
80024110: 00 00 00 00  	nop
80024114: a8 ff bd 27  	addiu	$sp, $sp, -0x58
80024118: 54 00 bf af  	sw	$ra, 0x54($sp)
8002411c: 50 00 be af  	sw	$fp, 0x50($sp)
80024120: 25 f0 a0 03  	move	$fp, $sp
80024124: 28 00 c7 af  	sw	$7, 0x28($fp)
80024128: 24 00 c6 af  	sw	$6, 0x24($fp)
8002412c: 20 00 c5 af  	sw	$5, 0x20($fp)
80024130: 25 08 80 00  	move	$1, $4
80024134: 28 00 c4 8f  	lw	$4, 0x28($fp)
80024138: 1c 00 c1 af  	sw	$1, 0x1c($fp)
8002413c: 38 00 c1 af  	sw	$1, 0x38($fp)
80024140: 3c 00 c5 af  	sw	$5, 0x3c($fp)
80024144: 40 00 c6 af  	sw	$6, 0x40($fp)
80024148: 47 00 c4 a3  	sb	$4, 0x47($fp)
8002414c: b3 90 00 0c  	jal	0x242cc <.text+0x42cc>
80024150: 00 00 00 00  	nop
80024154: 1c 00 c4 8f  	lw	$4, 0x1c($fp)
80024158: 20 00 c5 8f  	lw	$5, 0x20($fp)
8002415c: 24 00 c6 8f  	lw	$6, 0x24($fp)
80024160: 28 00 c7 8f  	lw	$7, 0x28($fp)
80024164: 25 08 a0 03  	move	$1, $sp
80024168: 10 00 22 ac  	sw	$2, 0x10($1)
8002416c: 75 90 00 0c  	jal	0x241d4 <.text+0x41d4>
80024170: 00 00 00 00  	nop
80024174: 30 00 c2 af  	sw	$2, 0x30($fp)
80024178: 34 00 c3 af  	sw	$3, 0x34($fp)
8002417c: 30 00 c1 8f  	lw	$1, 0x30($fp)
80024180: 08 00 20 14  	bnez	$1, 0x800241a4 <.text+0x41a4>
80024184: 00 00 00 00  	nop
80024188: 64 90 00 08  	j	0x24190 <.text+0x4190>
8002418c: 00 00 00 00  	nop
80024190: 34 00 c1 8f  	lw	$1, 0x34($fp)
80024194: 48 00 c1 af  	sw	$1, 0x48($fp)
80024198: 2c 00 c1 af  	sw	$1, 0x2c($fp)
8002419c: 6e 90 00 08  	j	0x241b8 <.text+0x41b8>
800241a0: 00 00 00 00  	nop
800241a4: 34 00 c1 8f  	lw	$1, 0x34($fp)
800241a8: 4c 00 c1 af  	sw	$1, 0x4c($fp)
800241ac: 2c 00 c1 af  	sw	$1, 0x2c($fp)
800241b0: 6e 90 00 08  	j	0x241b8 <.text+0x41b8>
800241b4: 00 00 00 00  	nop
800241b8: 2c 00 c2 8f  	lw	$2, 0x2c($fp)
800241bc: 25 e8 c0 03  	move	$sp, $fp
800241c0: 50 00 be 8f  	lw	$fp, 0x50($sp)
800241c4: 54 00 bf 8f  	lw	$ra, 0x54($sp)
800241c8: 58 00 bd 27  	addiu	$sp, $sp, 0x58
800241cc: 08 00 e0 03  	jr	$ra
800241d0: 00 00 00 00  	nop
800241d4: c8 ff bd 27  	addiu	$sp, $sp, -0x38
800241d8: 34 00 bf af  	sw	$ra, 0x34($sp)
800241dc: 30 00 be af  	sw	$fp, 0x30($sp)
800241e0: 25 f0 a0 03  	move	$fp, $sp
800241e4: 48 00 c1 8f  	lw	$1, 0x48($fp)
800241e8: 1c 00 c4 af  	sw	$4, 0x1c($fp)
800241ec: 20 00 c5 af  	sw	$5, 0x20($fp)
800241f0: 24 00 c6 af  	sw	$6, 0x24($fp)
800241f4: 2a 00 c7 a3  	sb	$7, 0x2a($fp)
800241f8: 2b 00 c1 a3  	sb	$1, 0x2b($fp)
800241fc: 2c 00 c4 af  	sw	$4, 0x2c($fp)
80024200: 25 10 a0 03  	move	$2, $sp
80024204: 10 00 41 ac  	sw	$1, 0x10($2)
80024208: 31 88 00 0c  	jal	0x220c4 <.text+0x20c4>
8002420c: 00 00 00 00  	nop
80024210: 25 e8 c0 03  	move	$sp, $fp
80024214: 30 00 be 8f  	lw	$fp, 0x30($sp)
80024218: 34 00 bf 8f  	lw	$ra, 0x34($sp)
8002421c: 38 00 bd 27  	addiu	$sp, $sp, 0x38
80024220: 08 00 e0 03  	jr	$ra
80024224: 00 00 00 00  	nop
80024228: d8 ff bd 27  	addiu	$sp, $sp, -0x28
8002422c: 24 00 bf af  	sw	$ra, 0x24($sp)
80024230: 20 00 be af  	sw	$fp, 0x20($sp)
80024234: 25 f0 a0 03  	move	$fp, $sp
80024238: 14 00 c4 af  	sw	$4, 0x14($fp)
8002423c: 1b 00 c5 a3  	sb	$5, 0x1b($fp)
80024240: 1c 00 c4 af  	sw	$4, 0x1c($fp)
80024244: ba b9 00 0c  	jal	0x2e6e8 <.text+0xe6e8>
80024248: 00 00 00 00  	nop
8002424c: 25 e8 c0 03  	move	$sp, $fp
80024250: 20 00 be 8f  	lw	$fp, 0x20($sp)
80024254: 24 00 bf 8f  	lw	$ra, 0x24($sp)
80024258: 28 00 bd 27  	addiu	$sp, $sp, 0x28
8002425c: 08 00 e0 03  	jr	$ra
80024260: 00 00 00 00  	nop
80024264: d8 ff bd 27  	addiu	$sp, $sp, -0x28
80024268: 24 00 bf af  	sw	$ra, 0x24($sp)
8002426c: 20 00 be af  	sw	$fp, 0x20($sp)
80024270: 25 f0 a0 03  	move	$fp, $sp
80024274: 10 00 c4 af  	sw	$4, 0x10($fp)
80024278: 14 00 c5 af  	sw	$5, 0x14($fp)
8002427c: 1b 00 c6 a3  	sb	$6, 0x1b($fp)
80024280: 1c 00 c4 af  	sw	$4, 0x1c($fp)
80024284: 16 92 00 0c  	jal	0x24858 <.text+0x4858>
80024288: 00 00 00 00  	nop
8002428c: 25 e8 c0 03  	move	$sp, $fp
80024290: 20 00 be 8f  	lw	$fp, 0x20($sp)
80024294: 24 00 bf 8f  	lw	$ra, 0x24($sp)
80024298: 28 00 bd 27  	addiu	$sp, $sp, 0x28
8002429c: 08 00 e0 03  	jr	$ra
800242a0: 00 00 00 00  	nop
800242a4: f8 ff bd 27  	addiu	$sp, $sp, -0x8
800242a8: 04 00 bf af  	sw	$ra, 0x4($sp)
800242ac: 00 00 be af  	sw	$fp, 0x0($sp)
800242b0: 25 f0 a0 03  	move	$fp, $sp
800242b4: 25 e8 c0 03  	move	$sp, $fp
800242b8: 00 00 be 8f  	lw	$fp, 0x0($sp)
800242bc: 04 00 bf 8f  	lw	$ra, 0x4($sp)
800242c0: 08 00 bd 27  	addiu	$sp, $sp, 0x8
800242c4: 08 00 e0 03  	jr	$ra
800242c8: 00 00 00 00  	nop
800242cc: f0 ff bd 27  	addiu	$sp, $sp, -0x10
800242d0: 0c 00 bf af  	sw	$ra, 0xc($sp)
800242d4: 08 00 be af  	sw	$fp, 0x8($sp)
800242d8: 25 f0 a0 03  	move	$fp, $sp
800242dc: 06 00 c4 a3  	sb	$4, 0x6($fp)
800242e0: 06 00 c1 93  	lbu	$1, 0x6($fp)
800242e4: 00 00 c1 af  	sw	$1, 0x0($fp)
800242e8: 00 00 c1 8f  	lw	$1, 0x0($fp)
800242ec: 80 08 01 00  	sll	$1, $1, 0x2
800242f0: 03 80 02 3c  	lui	$2, 0x8003
800242f4: 21 08 22 00  	addu	$1, $1, $2
800242f8: b4 06 21 8c  	lw	$1, 0x6b4($1)
800242fc: 08 00 20 00  	jr	$1
80024300: 00 00 00 00  	nop
80024304: 0d 00 00 00  	break
80024308: 00 00 01 24  	addiu	$1, $zero, 0x0
8002430c: 07 00 c0 a3  	sb	$zero, 0x7($fp)
80024310: d6 90 00 08  	j	0x24358 <.text+0x4358>
80024314: 00 00 00 00  	nop
80024318: 00 00 01 24  	addiu	$1, $zero, 0x0
8002431c: 07 00 c0 a3  	sb	$zero, 0x7($fp)
80024320: d6 90 00 08  	j	0x24358 <.text+0x4358>
80024324: 00 00 00 00  	nop
80024328: 02 00 01 24  	addiu	$1, $zero, 0x2
8002432c: 07 00 c1 a3  	sb	$1, 0x7($fp)
80024330: d6 90 00 08  	j	0x24358 <.text+0x4358>
80024334: 00 00 00 00  	nop
80024338: 02 00 01 24  	addiu	$1, $zero, 0x2
8002433c: 07 00 c1 a3  	sb	$1, 0x7($fp)
80024340: d6 90 00 08  	j	0x24358 <.text+0x4358>
80024344: 00 00 00 00  	nop
80024348: 04 00 01 24  	addiu	$1, $zero, 0x4
8002434c: 07 00 c1 a3  	sb	$1, 0x7($fp)
80024350: d6 90 00 08  	j	0x24358 <.text+0x4358>
80024354: 00 00 00 00  	nop
80024358: 07 00 c2 93  	lbu	$2, 0x7($fp)
8002435c: 25 e8 c0 03  	move	$sp, $fp
80024360: 08 00 be 8f  	lw	$fp, 0x8($sp)
80024364: 0c 00 bf 8f  	lw	$ra, 0xc($sp)
80024368: 10 00 bd 27  	addiu	$sp, $sp, 0x10
8002436c: 08 00 e0 03  	jr	$ra
80024370: 00 00 00 00  	nop
80024374: f0 ff bd 27  	addiu	$sp, $sp, -0x10
80024378: 0c 00 bf af  	sw	$ra, 0xc($sp)
8002437c: 08 00 be af  	sw	$fp, 0x8($sp)
80024380: 25 f0 a0 03  	move	$fp, $sp
80024384: 25 18 a0 00  	move	$3, $5
80024388: 25 10 80 00  	move	$2, $4
8002438c: 00 00 c2 af  	sw	$2, 0x0($fp)
80024390: 04 00 c3 af  	sw	$3, 0x4($fp)
80024394: 25 e8 c0 03  	move	$sp, $fp
80024398: 08 00 be 8f  	lw	$fp, 0x8($sp)
8002439c: 0c 00 bf 8f  	lw	$ra, 0xc($sp)
800243a0: 10 00 bd 27  	addiu	$sp, $sp, 0x10
800243a4: 08 00 e0 03  	jr	$ra
800243a8: 00 00 00 00  	nop
800243ac: d0 ff bd 27  	addiu	$sp, $sp, -0x30
800243b0: 2c 00 bf af  	sw	$ra, 0x2c($sp)
800243b4: 28 00 be af  	sw	$fp, 0x28($sp)
800243b8: 25 f0 a0 03  	move	$fp, $sp
800243bc: 18 00 c4 af  	sw	$4, 0x18($fp)
800243c0: 1c 00 c5 af  	sw	$5, 0x1c($fp)
800243c4: 20 00 c4 af  	sw	$4, 0x20($fp)
800243c8: 24 00 c5 af  	sw	$5, 0x24($fp)
800243cc: 3f a2 00 0c  	jal	0x288fc <.text+0x88fc>
800243d0: 00 00 00 00  	nop
800243d4: 25 20 40 00  	move	$4, $2
800243d8: 25 28 60 00  	move	$5, $3
800243dc: 0f 84 00 0c  	jal	0x2103c <.text+0x103c>
800243e0: 00 00 00 00  	nop
800243e4: 10 00 c2 af  	sw	$2, 0x10($fp)
800243e8: 14 00 c3 af  	sw	$3, 0x14($fp)
800243ec: 10 00 c2 8f  	lw	$2, 0x10($fp)
800243f0: 14 00 c3 8f  	lw	$3, 0x14($fp)
800243f4: 25 e8 c0 03  	move	$sp, $fp
800243f8: 28 00 be 8f  	lw	$fp, 0x28($sp)
800243fc: 2c 00 bf 8f  	lw	$ra, 0x2c($sp)
80024400: 30 00 bd 27  	addiu	$sp, $sp, 0x30
80024404: 08 00 e0 03  	jr	$ra
80024408: 00 00 00 00  	nop
8002440c: e0 ff bd 27  	addiu	$sp, $sp, -0x20
80024410: 1c 00 bf af  	sw	$ra, 0x1c($sp)
80024414: 18 00 be af  	sw	$fp, 0x18($sp)
80024418: 25 f0 a0 03  	move	$fp, $sp
8002441c: 14 00 c4 af  	sw	$4, 0x14($fp)
80024420: c7 96 00 0c  	jal	0x25b1c <.text+0x5b1c>
80024424: 00 00 00 00  	nop
80024428: 25 20 40 00  	move	$4, $2
8002442c: a2 8e 00 0c  	jal	0x23a88 <.text+0x3a88>
80024430: 00 00 00 00  	nop
80024434: 25 e8 c0 03  	move	$sp, $fp
80024438: 18 00 be 8f  	lw	$fp, 0x18($sp)
8002443c: 1c 00 bf 8f  	lw	$ra, 0x1c($sp)
80024440: 20 00 bd 27  	addiu	$sp, $sp, 0x20
80024444: 08 00 e0 03  	jr	$ra
80024448: 00 00 00 00  	nop
8002444c: e8 ff bd 27  	addiu	$sp, $sp, -0x18
80024450: 14 00 bf af  	sw	$ra, 0x14($sp)
80024454: 10 00 be af  	sw	$fp, 0x10($sp)
80024458: 25 f0 a0 03  	move	$fp, $sp
8002445c: 08 00 c4 af  	sw	$4, 0x8($fp)
80024460: 0c 00 c5 af  	sw	$5, 0xc($fp)
80024464: 00 00 c4 af  	sw	$4, 0x0($fp)
80024468: 04 00 c5 af  	sw	$5, 0x4($fp)
8002446c: 00 00 c2 8f  	lw	$2, 0x0($fp)
80024470: 04 00 c3 8f  	lw	$3, 0x4($fp)
80024474: 25 e8 c0 03  	move	$sp, $fp
80024478: 10 00 be 8f  	lw	$fp, 0x10($sp)
8002447c: 14 00 bf 8f  	lw	$ra, 0x14($sp)
80024480: 18 00 bd 27  	addiu	$sp, $sp, 0x18
80024484: 08 00 e0 03  	jr	$ra
80024488: 00 00 00 00  	nop
8002448c: e0 ff bd 27  	addiu	$sp, $sp, -0x20
80024490: 1c 00 bf af  	sw	$ra, 0x1c($sp)
80024494: 18 00 be af  	sw	$fp, 0x18($sp)
80024498: 25 f0 a0 03  	move	$fp, $sp
8002449c: 29 91 00 08  	j	0x244a4 <.text+0x44a4>
800244a0: 00 00 00 00  	nop
800244a4: 36 91 00 0c  	jal	0x244d8 <.text+0x44d8>
800244a8: 00 00 00 00  	nop
800244ac: 17 00 c2 a3  	sb	$2, 0x17($fp)
800244b0: 2e 91 00 08  	j	0x244b8 <.text+0x44b8>
800244b4: 00 00 00 00  	nop
800244b8: 17 00 c1 93  	lbu	$1, 0x17($fp)
800244bc: 01 00 22 30  	andi	$2, $1, 0x1
800244c0: 25 e8 c0 03  	move	$sp, $fp
800244c4: 18 00 be 8f  	lw	$fp, 0x18($sp)
800244c8: 1c 00 bf 8f  	lw	$ra, 0x1c($sp)
800244cc: 20 00 bd 27  	addiu	$sp, $sp, 0x20
800244d0: 08 00 e0 03  	jr	$ra
800244d4: 00 00 00 00  	nop
800244d8: f8 ff bd 27  	addiu	$sp, $sp, -0x8
800244dc: 04 00 bf af  	sw	$ra, 0x4($sp)
800244e0: 00 00 be af  	sw	$fp, 0x0($sp)
800244e4: 25 f0 a0 03  	move	$fp, $sp
800244e8: 01 00 02 24  	addiu	$2, $zero, 0x1
800244ec: 25 e8 c0 03  	move	$sp, $fp
800244f0: 00 00 be 8f  	lw	$fp, 0x0($sp)
800244f4: 04 00 bf 8f  	lw	$ra, 0x4($sp)
800244f8: 08 00 bd 27  	addiu	$sp, $sp, 0x8
800244fc: 08 00 e0 03  	jr	$ra
80024500: 00 00 00 00  	nop
80024504: d0 ff bd 27  	addiu	$sp, $sp, -0x30
80024508: 2c 00 bf af  	sw	$ra, 0x2c($sp)
8002450c: 28 00 be af  	sw	$fp, 0x28($sp)
80024510: 25 f0 a0 03  	move	$fp, $sp
80024514: 14 00 c5 af  	sw	$5, 0x14($fp)
80024518: 18 00 c4 af  	sw	$4, 0x18($fp)
8002451c: 20 00 c4 af  	sw	$4, 0x20($fp)
80024520: 24 00 c5 af  	sw	$5, 0x24($fp)
80024524: 52 b3 00 0c  	jal	0x2cd48 <.text+0xcd48>
80024528: 00 00 00 00  	nop
8002452c: 0a 00 40 14  	bnez	$2, 0x80024558 <.text+0x4558>
80024530: 00 00 00 00  	nop
80024534: 4f 91 00 08  	j	0x2453c <.text+0x453c>
80024538: 00 00 00 00  	nop
8002453c: 14 00 c5 8f  	lw	$5, 0x14($fp)
80024540: 18 00 c4 8f  	lw	$4, 0x18($fp)
80024544: c0 b3 00 0c  	jal	0x2cf00 <.text+0xcf00>
80024548: 00 00 00 00  	nop
8002454c: 1f 00 c2 a3  	sb	$2, 0x1f($fp)
80024550: 5a 91 00 08  	j	0x24568 <.text+0x4568>
80024554: 00 00 00 00  	nop
80024558: 00 00 01 24  	addiu	$1, $zero, 0x0
8002455c: 1f 00 c0 a3  	sb	$zero, 0x1f($fp)
80024560: 5a 91 00 08  	j	0x24568 <.text+0x4568>
80024564: 00 00 00 00  	nop
80024568: 1f 00 c1 93  	lbu	$1, 0x1f($fp)
8002456c: 01 00 22 30  	andi	$2, $1, 0x1
80024570: 25 e8 c0 03  	move	$sp, $fp
80024574: 28 00 be 8f  	lw	$fp, 0x28($sp)
80024578: 2c 00 bf 8f  	lw	$ra, 0x2c($sp)
8002457c: 30 00 bd 27  	addiu	$sp, $sp, 0x30
80024580: 08 00 e0 03  	jr	$ra
80024584: 00 00 00 00  	nop
80024588: a8 ff bd 27  	addiu	$sp, $sp, -0x58
8002458c: 54 00 bf af  	sw	$ra, 0x54($sp)
80024590: 50 00 be af  	sw	$fp, 0x50($sp)
80024594: 25 f0 a0 03  	move	$fp, $sp
80024598: 18 00 c6 af  	sw	$6, 0x18($fp)
8002459c: 1c 00 c5 af  	sw	$5, 0x1c($fp)
800245a0: 20 00 c4 af  	sw	$4, 0x20($fp)
800245a4: 24 00 c4 af  	sw	$4, 0x24($fp)
800245a8: 48 00 c5 af  	sw	$5, 0x48($fp)
800245ac: 4c 00 c6 af  	sw	$6, 0x4c($fp)
800245b0: 02 00 c1 2c  	sltiu	$1, $6, 0x2
800245b4: 18 00 20 10  	beqz	$1, 0x80024618 <.text+0x4618>
800245b8: 00 00 00 00  	nop
800245bc: 71 91 00 08  	j	0x245c4 <.text+0x45c4>
800245c0: 00 00 00 00  	nop
800245c4: 24 00 c2 8f  	lw	$2, 0x24($fp)
800245c8: 20 00 c1 8f  	lw	$1, 0x20($fp)
800245cc: 18 00 c3 8f  	lw	$3, 0x18($fp)
800245d0: 1c 00 c4 8f  	lw	$4, 0x1c($fp)
800245d4: 40 00 c0 af  	sw	$zero, 0x40($fp)
800245d8: 00 00 24 ac  	sw	$4, 0x0($1)
800245dc: 04 00 23 ac  	sw	$3, 0x4($1)
800245e0: 40 00 c4 8f  	lw	$4, 0x40($fp)
800245e4: 44 00 c3 8f  	lw	$3, 0x44($fp)
800245e8: 10 00 24 ac  	sw	$4, 0x10($1)
800245ec: 14 00 23 ac  	sw	$3, 0x14($1)
800245f0: 03 80 03 3c  	lui	$3, 0x8003
800245f4: dc 06 63 24  	addiu	$3, $3, 0x6dc
800245f8: 08 00 23 ac  	sw	$3, 0x8($1)
800245fc: 0c 00 20 ac  	sw	$zero, 0xc($1)
80024600: 25 e8 c0 03  	move	$sp, $fp
80024604: 50 00 be 8f  	lw	$fp, 0x50($sp)
80024608: 54 00 bf 8f  	lw	$ra, 0x54($sp)
8002460c: 58 00 bd 27  	addiu	$sp, $sp, 0x58
80024610: 08 00 e0 03  	jr	$ra
80024614: 00 00 00 00  	nop
80024618: 03 80 01 3c  	lui	$1, 0x8003
8002461c: e8 06 25 24  	addiu	$5, $1, 0x6e8
80024620: 28 00 c4 27  	addiu	$4, $fp, 0x28
80024624: 14 00 c4 af  	sw	$4, 0x14($fp)
80024628: 01 00 06 24  	addiu	$6, $zero, 0x1
8002462c: 62 91 00 0c  	jal	0x24588 <.text+0x4588>
80024630: 00 00 00 00  	nop
80024634: 14 00 c4 8f  	lw	$4, 0x14($fp)
80024638: 03 80 01 3c  	lui	$1, 0x8003
8002463c: 64 07 25 24  	addiu	$5, $1, 0x764
80024640: f6 b4 00 0c  	jal	0x2d3d8 <.text+0xd3d8>
80024644: 00 00 00 00  	nop
80024648: 98 ff bd 27  	addiu	$sp, $sp, -0x68
8002464c: 64 00 bf af  	sw	$ra, 0x64($sp)
80024650: 60 00 be af  	sw	$fp, 0x60($sp)
80024654: 25 f0 a0 03  	move	$fp, $sp
80024658: 18 00 c4 af  	sw	$4, 0x18($fp)
8002465c: 25 08 a0 00  	move	$1, $5
80024660: 1c 00 c1 af  	sw	$1, 0x1c($fp)
80024664: 27 00 c6 a3  	sb	$6, 0x27($fp)
80024668: 58 00 c4 af  	sw	$4, 0x58($fp)
8002466c: 5f 00 c5 a3  	sb	$5, 0x5f($fp)
80024670: 27 00 c1 93  	lbu	$1, 0x27($fp)
80024674: 20 00 c1 af  	sw	$1, 0x20($fp)
80024678: 20 00 c1 8f  	lw	$1, 0x20($fp)
8002467c: 80 08 01 00  	sll	$1, $1, 0x2
80024680: 03 80 02 3c  	lui	$2, 0x8003
80024684: 21 08 22 00  	addu	$1, $1, $2
80024688: c8 06 21 8c  	lw	$1, 0x6c8($1)
8002468c: 08 00 20 00  	jr	$1
80024690: 00 00 00 00  	nop
80024694: 0d 00 00 00  	break
80024698: 1c 00 c1 8f  	lw	$1, 0x1c($fp)
8002469c: 18 00 c2 8f  	lw	$2, 0x18($fp)
800246a0: 00 00 41 a0  	sb	$1, 0x0($2)
800246a4: d0 91 00 08  	j	0x24740 <.text+0x4740>
800246a8: 00 00 00 00  	nop
800246ac: 1c 00 c1 8f  	lw	$1, 0x1c($fp)
800246b0: 18 00 c2 8f  	lw	$2, 0x18($fp)
800246b4: 0f 00 00 00  	sync
800246b8: 00 00 41 a0  	sb	$1, 0x0($2)
800246bc: d0 91 00 08  	j	0x24740 <.text+0x4740>
800246c0: 00 00 00 00  	nop
800246c4: 03 80 01 3c  	lui	$1, 0x8003
800246c8: a0 07 25 24  	addiu	$5, $1, 0x7a0
800246cc: 28 00 c4 27  	addiu	$4, $fp, 0x28
800246d0: 14 00 c4 af  	sw	$4, 0x14($fp)
800246d4: 01 00 06 24  	addiu	$6, $zero, 0x1
800246d8: 62 91 00 0c  	jal	0x24588 <.text+0x4588>
800246dc: 00 00 00 00  	nop
800246e0: 14 00 c4 8f  	lw	$4, 0x14($fp)
800246e4: 03 80 01 3c  	lui	$1, 0x8003
800246e8: 20 08 25 24  	addiu	$5, $1, 0x820
800246ec: f6 b4 00 0c  	jal	0x2d3d8 <.text+0xd3d8>
800246f0: 00 00 00 00  	nop
800246f4: 03 80 01 3c  	lui	$1, 0x8003
800246f8: 64 08 25 24  	addiu	$5, $1, 0x864
800246fc: 40 00 c4 27  	addiu	$4, $fp, 0x40
80024700: 10 00 c4 af  	sw	$4, 0x10($fp)
80024704: 01 00 06 24  	addiu	$6, $zero, 0x1
80024708: 62 91 00 0c  	jal	0x24588 <.text+0x4588>
8002470c: 00 00 00 00  	nop
80024710: 10 00 c4 8f  	lw	$4, 0x10($fp)
80024714: 03 80 01 3c  	lui	$1, 0x8003
80024718: 6c 08 25 24  	addiu	$5, $1, 0x86c
8002471c: f6 b4 00 0c  	jal	0x2d3d8 <.text+0xd3d8>
80024720: 00 00 00 00  	nop
80024724: 1c 00 c1 8f  	lw	$1, 0x1c($fp)
80024728: 18 00 c2 8f  	lw	$2, 0x18($fp)
8002472c: 0f 00 00 00  	sync
80024730: 00 00 41 a0  	sb	$1, 0x0($2)
80024734: 0f 00 00 00  	sync
80024738: d0 91 00 08  	j	0x24740 <.text+0x4740>
8002473c: 00 00 00 00  	nop
80024740: 25 e8 c0 03  	move	$sp, $fp
80024744: 60 00 be 8f  	lw	$fp, 0x60($sp)
80024748: 64 00 bf 8f  	lw	$ra, 0x64($sp)
8002474c: 68 00 bd 27  	addiu	$sp, $sp, 0x68
80024750: 08 00 e0 03  	jr	$ra
80024754: 00 00 00 00  	nop
80024758: a8 ff bd 27  	addiu	$sp, $sp, -0x58
8002475c: 54 00 bf af  	sw	$ra, 0x54($sp)
80024760: 50 00 be af  	sw	$fp, 0x50($sp)
80024764: 25 f0 a0 03  	move	$fp, $sp
80024768: 18 00 c6 af  	sw	$6, 0x18($fp)
8002476c: 1c 00 c5 af  	sw	$5, 0x1c($fp)
80024770: 20 00 c4 af  	sw	$4, 0x20($fp)
80024774: 24 00 c4 af  	sw	$4, 0x24($fp)
80024778: 48 00 c5 af  	sw	$5, 0x48($fp)
8002477c: 4c 00 c6 af  	sw	$6, 0x4c($fp)
80024780: 02 00 c1 2c  	sltiu	$1, $6, 0x2
80024784: 18 00 20 10  	beqz	$1, 0x800247e8 <.text+0x47e8>
80024788: 00 00 00 00  	nop
8002478c: e5 91 00 08  	j	0x24794 <.text+0x4794>
80024790: 00 00 00 00  	nop
80024794: 24 00 c2 8f  	lw	$2, 0x24($fp)
80024798: 20 00 c1 8f  	lw	$1, 0x20($fp)
8002479c: 18 00 c3 8f  	lw	$3, 0x18($fp)
800247a0: 1c 00 c4 8f  	lw	$4, 0x1c($fp)
800247a4: 40 00 c0 af  	sw	$zero, 0x40($fp)
800247a8: 00 00 24 ac  	sw	$4, 0x0($1)
800247ac: 04 00 23 ac  	sw	$3, 0x4($1)
800247b0: 40 00 c4 8f  	lw	$4, 0x40($fp)
800247b4: 44 00 c3 8f  	lw	$3, 0x44($fp)
800247b8: 10 00 24 ac  	sw	$4, 0x10($1)
800247bc: 14 00 23 ac  	sw	$3, 0x14($1)
800247c0: 03 80 03 3c  	lui	$3, 0x8003
800247c4: 90 08 63 24  	addiu	$3, $3, 0x890
800247c8: 08 00 23 ac  	sw	$3, 0x8($1)
800247cc: 0c 00 20 ac  	sw	$zero, 0xc($1)
800247d0: 25 e8 c0 03  	move	$sp, $fp
800247d4: 50 00 be 8f  	lw	$fp, 0x50($sp)
800247d8: 54 00 bf 8f  	lw	$ra, 0x54($sp)
800247dc: 58 00 bd 27  	addiu	$sp, $sp, 0x58
800247e0: 08 00 e0 03  	jr	$ra
800247e4: 00 00 00 00  	nop
800247e8: 03 80 01 3c  	lui	$1, 0x8003
800247ec: 9c 08 25 24  	addiu	$5, $1, 0x89c
800247f0: 28 00 c4 27  	addiu	$4, $fp, 0x28
800247f4: 14 00 c4 af  	sw	$4, 0x14($fp)
800247f8: 01 00 06 24  	addiu	$6, $zero, 0x1
800247fc: d6 91 00 0c  	jal	0x24758 <.text+0x4758>
80024800: 00 00 00 00  	nop
80024804: 14 00 c4 8f  	lw	$4, 0x14($fp)
80024808: 03 80 01 3c  	lui	$1, 0x8003
8002480c: 18 09 25 24  	addiu	$5, $1, 0x918
80024810: f6 b4 00 0c  	jal	0x2d3d8 <.text+0xd3d8>
80024814: 00 00 00 00  	nop
80024818: d8 ff bd 27  	addiu	$sp, $sp, -0x28
8002481c: 24 00 bf af  	sw	$ra, 0x24($sp)
80024820: 20 00 be af  	sw	$fp, 0x20($sp)
80024824: 25 f0 a0 03  	move	$fp, $sp
80024828: 10 00 c4 af  	sw	$4, 0x10($fp)
8002482c: 14 00 c5 af  	sw	$5, 0x14($fp)
80024830: 1b 00 c6 a3  	sb	$6, 0x1b($fp)
80024834: 1c 00 c4 af  	sw	$4, 0x1c($fp)
80024838: 16 92 00 0c  	jal	0x24858 <.text+0x4858>
8002483c: 00 00 00 00  	nop
80024840: 25 e8 c0 03  	move	$sp, $fp
80024844: 20 00 be 8f  	lw	$fp, 0x20($sp)
80024848: 24 00 bf 8f  	lw	$ra, 0x24($sp)
8002484c: 28 00 bd 27  	addiu	$sp, $sp, 0x28
80024850: 08 00 e0 03  	jr	$ra
80024854: 00 00 00 00  	nop
80024858: 98 ff bd 27  	addiu	$sp, $sp, -0x68
8002485c: 64 00 bf af  	sw	$ra, 0x64($sp)
80024860: 60 00 be af  	sw	$fp, 0x60($sp)
80024864: 25 f0 a0 03  	move	$fp, $sp
80024868: 18 00 c5 af  	sw	$5, 0x18($fp)
8002486c: 1c 00 c4 af  	sw	$4, 0x1c($fp)
80024870: 27 00 c6 a3  	sb	$6, 0x27($fp)
80024874: 58 00 c4 af  	sw	$4, 0x58($fp)
80024878: 5c 00 c5 af  	sw	$5, 0x5c($fp)
8002487c: 27 00 c1 93  	lbu	$1, 0x27($fp)
80024880: 20 00 c1 af  	sw	$1, 0x20($fp)
80024884: 20 00 c1 8f  	lw	$1, 0x20($fp)
80024888: 80 08 01 00  	sll	$1, $1, 0x2
8002488c: 03 80 02 3c  	lui	$2, 0x8003
80024890: 21 08 22 00  	addu	$1, $1, $2
80024894: 7c 08 21 8c  	lw	$1, 0x87c($1)
80024898: 08 00 20 00  	jr	$1
8002489c: 00 00 00 00  	nop
800248a0: 0d 00 00 00  	break
800248a4: 18 00 c1 8f  	lw	$1, 0x18($fp)
800248a8: 1c 00 c2 8f  	lw	$2, 0x1c($fp)
800248ac: 00 00 41 ac  	sw	$1, 0x0($2)
800248b0: 53 92 00 08  	j	0x2494c <.text+0x494c>
800248b4: 00 00 00 00  	nop
800248b8: 18 00 c1 8f  	lw	$1, 0x18($fp)
800248bc: 1c 00 c2 8f  	lw	$2, 0x1c($fp)
800248c0: 0f 00 00 00  	sync
800248c4: 00 00 41 ac  	sw	$1, 0x0($2)
800248c8: 53 92 00 08  	j	0x2494c <.text+0x494c>
800248cc: 00 00 00 00  	nop
800248d0: 03 80 01 3c  	lui	$1, 0x8003
800248d4: 54 09 25 24  	addiu	$5, $1, 0x954
800248d8: 28 00 c4 27  	addiu	$4, $fp, 0x28
800248dc: 14 00 c4 af  	sw	$4, 0x14($fp)
800248e0: 01 00 06 24  	addiu	$6, $zero, 0x1
800248e4: d6 91 00 0c  	jal	0x24758 <.text+0x4758>
800248e8: 00 00 00 00  	nop
800248ec: 14 00 c4 8f  	lw	$4, 0x14($fp)
800248f0: 03 80 01 3c  	lui	$1, 0x8003
800248f4: d4 09 25 24  	addiu	$5, $1, 0x9d4
800248f8: f6 b4 00 0c  	jal	0x2d3d8 <.text+0xd3d8>
800248fc: 00 00 00 00  	nop
80024900: 03 80 01 3c  	lui	$1, 0x8003
80024904: 18 0a 25 24  	addiu	$5, $1, 0xa18
80024908: 40 00 c4 27  	addiu	$4, $fp, 0x40
8002490c: 10 00 c4 af  	sw	$4, 0x10($fp)
80024910: 01 00 06 24  	addiu	$6, $zero, 0x1
80024914: d6 91 00 0c  	jal	0x24758 <.text+0x4758>
80024918: 00 00 00 00  	nop
8002491c: 10 00 c4 8f  	lw	$4, 0x10($fp)
80024920: 03 80 01 3c  	lui	$1, 0x8003
80024924: 20 0a 25 24  	addiu	$5, $1, 0xa20
80024928: f6 b4 00 0c  	jal	0x2d3d8 <.text+0xd3d8>
8002492c: 00 00 00 00  	nop
80024930: 18 00 c1 8f  	lw	$1, 0x18($fp)
80024934: 1c 00 c2 8f  	lw	$2, 0x1c($fp)
80024938: 0f 00 00 00  	sync
8002493c: 00 00 41 ac  	sw	$1, 0x0($2)
80024940: 0f 00 00 00  	sync
80024944: 53 92 00 08  	j	0x2494c <.text+0x494c>
80024948: 00 00 00 00  	nop
8002494c: 25 e8 c0 03  	move	$sp, $fp
80024950: 60 00 be 8f  	lw	$fp, 0x60($sp)
80024954: 64 00 bf 8f  	lw	$ra, 0x64($sp)
80024958: 68 00 bd 27  	addiu	$sp, $sp, 0x68
8002495c: 08 00 e0 03  	jr	$ra
80024960: 00 00 00 00  	nop
80024964: d8 ff bd 27  	addiu	$sp, $sp, -0x28
80024968: 24 00 bf af  	sw	$ra, 0x24($sp)
8002496c: 20 00 be af  	sw	$fp, 0x20($sp)
80024970: 25 f0 a0 03  	move	$fp, $sp
80024974: 14 00 c4 af  	sw	$4, 0x14($fp)
80024978: 1c 00 c4 af  	sw	$4, 0x1c($fp)
8002497c: 04 00 81 90  	lbu	$1, 0x4($4)
80024980: 01 00 21 30  	andi	$1, $1, 0x1
80024984: 09 00 20 14  	bnez	$1, 0x800249ac <.text+0x49ac>
80024988: 00 00 00 00  	nop
8002498c: 65 92 00 08  	j	0x24994 <.text+0x4994>
80024990: 00 00 00 00  	nop
80024994: 25 e8 c0 03  	move	$sp, $fp
80024998: 20 00 be 8f  	lw	$fp, 0x20($sp)
8002499c: 24 00 bf 8f  	lw	$ra, 0x24($sp)
800249a0: 28 00 bd 27  	addiu	$sp, $sp, 0x28
800249a4: 08 00 e0 03  	jr	$ra
800249a8: 00 00 00 00  	nop
800249ac: 14 00 c1 8f  	lw	$1, 0x14($fp)
800249b0: 00 00 24 8c  	lw	$4, 0x0($1)
800249b4: 04 00 01 24  	addiu	$1, $zero, 0x4
800249b8: 1b 00 c1 a3  	sb	$1, 0x1b($fp)
800249bc: 1b 00 c6 93  	lbu	$6, 0x1b($fp)
800249c0: 03 00 05 24  	addiu	$5, $zero, 0x3
800249c4: 06 92 00 0c  	jal	0x24818 <.text+0x4818>
800249c8: 00 00 00 00  	nop
800249cc: 65 92 00 08  	j	0x24994 <.text+0x4994>
800249d0: 00 00 00 00  	nop
800249d4: 98 fe bd 27  	addiu	$sp, $sp, -0x168
800249d8: 64 01 bf af  	sw	$ra, 0x164($sp)
800249dc: 60 01 be af  	sw	$fp, 0x160($sp)
800249e0: 25 f0 a0 03  	move	$fp, $sp
800249e4: 30 00 c6 af  	sw	$6, 0x30($fp)
800249e8: 44 00 c5 af  	sw	$5, 0x44($fp)
800249ec: f4 00 c4 af  	sw	$4, 0xf4($fp)
800249f0: f8 00 c6 af  	sw	$6, 0xf8($fp)
800249f4: 7e 93 00 0c  	jal	0x24df8 <.text+0x4df8>
800249f8: 00 00 00 00  	nop
800249fc: 48 00 c2 af  	sw	$2, 0x48($fp)
80024a00: 44 00 c1 27  	addiu	$1, $fp, 0x44
80024a04: 58 01 c1 af  	sw	$1, 0x158($fp)
80024a08: 48 00 c1 27  	addiu	$1, $fp, 0x48
80024a0c: 5c 01 c1 af  	sw	$1, 0x15c($fp)
80024a10: 44 00 c1 8f  	lw	$1, 0x44($fp)
80024a14: 48 00 c2 8f  	lw	$2, 0x48($fp)
80024a18: 2b 08 22 00  	sltu	$1, $1, $2
80024a1c: 3c 00 c1 af  	sw	$1, 0x3c($fp)
80024a20: 01 00 21 38  	xori	$1, $1, 0x1
80024a24: 34 00 c1 af  	sw	$1, 0x34($fp)
80024a28: ff 00 c1 a3  	sb	$1, 0xff($fp)
80024a2c: 1f 01 c5 93  	lbu	$5, 0x11f($fp)
80024a30: 4c 00 c4 27  	addiu	$4, $fp, 0x4c
80024a34: 80 00 06 24  	addiu	$6, $zero, 0x80
80024a38: 38 00 c6 af  	sw	$6, 0x38($fp)
80024a3c: 31 be 00 0c  	jal	0x2f8c4 <.text+0xf8c4>
80024a40: 00 00 00 00  	nop
80024a44: 38 00 c1 8f  	lw	$1, 0x38($fp)
80024a48: cc 00 c1 af  	sw	$1, 0xcc($fp)
80024a4c: 10 00 04 24  	addiu	$4, $zero, 0x10
80024a50: 89 93 00 0c  	jal	0x24e24 <.text+0x4e24>
80024a54: 00 00 00 00  	nop
80024a58: 3c 00 c1 8f  	lw	$1, 0x3c($fp)
80024a5c: 25 18 40 00  	move	$3, $2
80024a60: 40 00 c3 af  	sw	$3, 0x40($fp)
80024a64: 00 01 c2 af  	sw	$2, 0x100($fp)
80024a68: 13 00 20 10  	beqz	$1, 0x80024ab8 <.text+0x4ab8>
80024a6c: 00 00 00 00  	nop
80024a70: 9e 92 00 08  	j	0x24a78 <.text+0x4a78>
80024a74: 00 00 00 00  	nop
80024a78: 4c 00 c4 27  	addiu	$4, $fp, 0x4c
80024a7c: 80 00 05 24  	addiu	$5, $zero, 0x80
80024a80: e2 a5 00 0c  	jal	0x29788 <.text+0x9788>
80024a84: 00 00 00 00  	nop
80024a88: 25 20 40 00  	move	$4, $2
80024a8c: 25 28 60 00  	move	$5, $3
80024a90: 42 95 00 0c  	jal	0x25508 <.text+0x5508>
80024a94: 00 00 00 00  	nop
80024a98: 25 20 40 00  	move	$4, $2
80024a9c: 25 28 60 00  	move	$5, $3
80024aa0: 73 b4 00 0c  	jal	0x2d1cc <.text+0xd1cc>
80024aa4: 00 00 00 00  	nop
80024aa8: e0 00 c2 af  	sw	$2, 0xe0($fp)
80024aac: e4 00 c3 af  	sw	$3, 0xe4($fp)
80024ab0: be 92 00 08  	j	0x24af8 <.text+0x4af8>
80024ab4: 00 00 00 00  	nop
80024ab8: 4c 00 c4 27  	addiu	$4, $fp, 0x4c
80024abc: 80 00 05 24  	addiu	$5, $zero, 0x80
80024ac0: e2 a5 00 0c  	jal	0x29788 <.text+0x9788>
80024ac4: 00 00 00 00  	nop
80024ac8: 25 20 40 00  	move	$4, $2
80024acc: 25 28 60 00  	move	$5, $3
80024ad0: 42 95 00 0c  	jal	0x25508 <.text+0x5508>
80024ad4: 00 00 00 00  	nop
80024ad8: 25 20 40 00  	move	$4, $2
80024adc: 25 28 60 00  	move	$5, $3
80024ae0: 73 b4 00 0c  	jal	0x2d1cc <.text+0xd1cc>
80024ae4: 00 00 00 00  	nop
80024ae8: d0 00 c2 af  	sw	$2, 0xd0($fp)
80024aec: d4 00 c3 af  	sw	$3, 0xd4($fp)
80024af0: 31 93 00 08  	j	0x24cc4 <.text+0x4cc4>
80024af4: 00 00 00 00  	nop
80024af8: e0 00 c4 27  	addiu	$4, $fp, 0xe0
80024afc: 66 b4 00 0c  	jal	0x2d198 <.text+0xd198>
80024b00: 00 00 00 00  	nop
80024b04: e8 00 c2 af  	sw	$2, 0xe8($fp)
80024b08: e8 00 c1 8f  	lw	$1, 0xe8($fp)
80024b0c: 2d 00 20 14  	bnez	$1, 0x80024bc4 <.text+0x4bc4>
80024b10: 00 00 00 00  	nop
80024b14: c7 92 00 08  	j	0x24b1c <.text+0x4b1c>
80024b18: 00 00 00 00  	nop
80024b1c: cc 00 c1 8f  	lw	$1, 0xcc($fp)
80024b20: f0 00 c1 af  	sw	$1, 0xf0($fp)
80024b24: f0 00 c5 8f  	lw	$5, 0xf0($fp)
80024b28: 03 80 01 3c  	lui	$1, 0x8003
80024b2c: 14 0b 26 24  	addiu	$6, $1, 0xb14
80024b30: 4c 00 c4 27  	addiu	$4, $fp, 0x4c
80024b34: cc a5 00 0c  	jal	0x29730 <.text+0x9730>
80024b38: 00 00 00 00  	nop
80024b3c: 25 20 40 00  	move	$4, $2
80024b40: 25 28 60 00  	move	$5, $3
80024b44: 0c 01 c4 af  	sw	$4, 0x10c($fp)
80024b48: 10 01 c5 af  	sw	$5, 0x110($fp)
80024b4c: 48 01 c4 af  	sw	$4, 0x148($fp)
80024b50: 4c 01 c5 af  	sw	$5, 0x14c($fp)
80024b54: 50 01 c4 af  	sw	$4, 0x150($fp)
80024b58: 54 01 c5 af  	sw	$5, 0x154($fp)
80024b5c: 7d a1 00 0c  	jal	0x285f4 <.text+0x85f4>
80024b60: 00 00 00 00  	nop
80024b64: 25 20 40 00  	move	$4, $2
80024b68: 25 28 60 00  	move	$5, $3
80024b6c: d2 9b 00 0c  	jal	0x26f48 <.text+0x6f48>
80024b70: 00 00 00 00  	nop
80024b74: 34 00 c1 8f  	lw	$1, 0x34($fp)
80024b78: 30 00 c4 8f  	lw	$4, 0x30($fp)
80024b7c: 25 28 60 00  	move	$5, $3
80024b80: 14 01 c2 af  	sw	$2, 0x114($fp)
80024b84: 18 01 c5 af  	sw	$5, 0x118($fp)
80024b88: 25 18 a0 03  	move	$3, $sp
80024b8c: 14 00 65 ac  	sw	$5, 0x14($3)
80024b90: 10 00 62 ac  	sw	$2, 0x10($3)
80024b94: 01 00 25 30  	andi	$5, $1, 0x1
80024b98: 03 80 01 3c  	lui	$1, 0x8003
80024b9c: 24 0b 26 24  	addiu	$6, $1, 0xb24
80024ba0: 02 00 07 24  	addiu	$7, $zero, 0x2
80024ba4: a6 ad 00 0c  	jal	0x2b698 <.text+0xb698>
80024ba8: 00 00 00 00  	nop
80024bac: 25 e8 c0 03  	move	$sp, $fp
80024bb0: 60 01 be 8f  	lw	$fp, 0x160($sp)
80024bb4: 64 01 bf 8f  	lw	$ra, 0x164($sp)
80024bb8: 68 01 bd 27  	addiu	$sp, $sp, 0x168
80024bbc: 08 00 e0 03  	jr	$ra
80024bc0: 00 00 00 00  	nop
80024bc4: 40 00 c5 8f  	lw	$5, 0x40($fp)
80024bc8: e8 00 c1 8f  	lw	$1, 0xe8($fp)
80024bcc: 28 00 c1 af  	sw	$1, 0x28($fp)
80024bd0: 04 01 c1 af  	sw	$1, 0x104($fp)
80024bd4: 48 00 c1 8f  	lw	$1, 0x48($fp)
80024bd8: 24 00 c1 af  	sw	$1, 0x24($fp)
80024bdc: 44 00 c4 8f  	lw	$4, 0x44($fp)
80024be0: 03 80 01 3c  	lui	$1, 0x8003
80024be4: a4 0a 26 24  	addiu	$6, $1, 0xaa4
80024be8: 4f 99 00 0c  	jal	0x2653c <.text+0x653c>
80024bec: 00 00 00 00  	nop
80024bf0: 24 00 c4 8f  	lw	$4, 0x24($fp)
80024bf4: 25 28 40 00  	move	$5, $2
80024bf8: 03 80 01 3c  	lui	$1, 0x8003
80024bfc: b4 0a 26 24  	addiu	$6, $1, 0xab4
80024c00: 1c 99 00 0c  	jal	0x26470 <.text+0x6470>
80024c04: 00 00 00 00  	nop
80024c08: 40 00 c5 8f  	lw	$5, 0x40($fp)
80024c0c: ec 00 c2 af  	sw	$2, 0xec($fp)
80024c10: 44 00 c4 8f  	lw	$4, 0x44($fp)
80024c14: 03 80 01 3c  	lui	$1, 0x8003
80024c18: c4 0a 26 24  	addiu	$6, $1, 0xac4
80024c1c: 34 99 00 0c  	jal	0x264d0 <.text+0x64d0>
80024c20: 00 00 00 00  	nop
80024c24: 44 00 c2 af  	sw	$2, 0x44($fp)
80024c28: ec 00 c4 27  	addiu	$4, $fp, 0xec
80024c2c: 95 93 00 0c  	jal	0x24e54 <.text+0x4e54>
80024c30: 00 00 00 00  	nop
80024c34: 25 20 40 00  	move	$4, $2
80024c38: b9 93 00 0c  	jal	0x24ee4 <.text+0x4ee4>
80024c3c: 00 00 00 00  	nop
80024c40: 28 00 c1 8f  	lw	$1, 0x28($fp)
80024c44: 2c 01 c1 af  	sw	$1, 0x12c($fp)
80024c48: 33 01 c2 a3  	sb	$2, 0x133($fp)
80024c4c: 35 01 c2 a3  	sb	$2, 0x135($fp)
80024c50: 37 01 c2 a3  	sb	$2, 0x137($fp)
80024c54: 36 01 c2 a3  	sb	$2, 0x136($fp)
80024c58: 36 01 c2 93  	lbu	$2, 0x136($fp)
80024c5c: 34 01 c2 a3  	sb	$2, 0x134($fp)
80024c60: 34 01 c2 93  	lbu	$2, 0x134($fp)
80024c64: 00 00 22 a0  	sb	$2, 0x0($1)
80024c68: 38 01 c1 af  	sw	$1, 0x138($fp)
80024c6c: 3c 01 c1 af  	sw	$1, 0x13c($fp)
80024c70: cc 00 c1 8f  	lw	$1, 0xcc($fp)
80024c74: ff ff 22 24  	addiu	$2, $1, -0x1
80024c78: 2c 00 c2 af  	sw	$2, 0x2c($fp)
80024c7c: 0d 00 20 10  	beqz	$1, 0x80024cb4 <.text+0x4cb4>
80024c80: 00 00 00 00  	nop
80024c84: 23 93 00 08  	j	0x24c8c <.text+0x4c8c>
80024c88: 00 00 00 00  	nop
80024c8c: 2c 00 c1 8f  	lw	$1, 0x2c($fp)
80024c90: cc 00 c1 af  	sw	$1, 0xcc($fp)
80024c94: 44 00 c4 27  	addiu	$4, $fp, 0x44
80024c98: 48 00 c5 27  	addiu	$5, $fp, 0x48
80024c9c: 89 b2 00 0c  	jal	0x2ca24 <.text+0xca24>
80024ca0: 00 00 00 00  	nop
80024ca4: 9d ff 40 14  	bnez	$2, 0x80024b1c <.text+0x4b1c>
80024ca8: 00 00 00 00  	nop
80024cac: be 92 00 08  	j	0x24af8 <.text+0x4af8>
80024cb0: 00 00 00 00  	nop
80024cb4: 03 80 01 3c  	lui	$1, 0x8003
80024cb8: d4 0a 24 24  	addiu	$4, $1, 0xad4
80024cbc: ce b2 00 0c  	jal	0x2cb38 <.text+0xcb38>
80024cc0: 00 00 00 00  	nop
80024cc4: d0 00 c4 27  	addiu	$4, $fp, 0xd0
80024cc8: 66 b4 00 0c  	jal	0x2d198 <.text+0xd198>
80024ccc: 00 00 00 00  	nop
80024cd0: d8 00 c2 af  	sw	$2, 0xd8($fp)
80024cd4: d8 00 c1 8f  	lw	$1, 0xd8($fp)
80024cd8: 90 ff 20 10  	beqz	$1, 0x80024b1c <.text+0x4b1c>
80024cdc: 00 00 00 00  	nop
80024ce0: 3a 93 00 08  	j	0x24ce8 <.text+0x4ce8>
80024ce4: 00 00 00 00  	nop
80024ce8: 40 00 c5 8f  	lw	$5, 0x40($fp)
80024cec: d8 00 c1 8f  	lw	$1, 0xd8($fp)
80024cf0: 1c 00 c1 af  	sw	$1, 0x1c($fp)
80024cf4: 08 01 c1 af  	sw	$1, 0x108($fp)
80024cf8: 44 00 c4 8f  	lw	$4, 0x44($fp)
80024cfc: 03 80 01 3c  	lui	$1, 0x8003
80024d00: e4 0a 26 24  	addiu	$6, $1, 0xae4
80024d04: 4f 99 00 0c  	jal	0x2653c <.text+0x653c>
80024d08: 00 00 00 00  	nop
80024d0c: 40 00 c5 8f  	lw	$5, 0x40($fp)
80024d10: dc 00 c2 af  	sw	$2, 0xdc($fp)
80024d14: 44 00 c4 8f  	lw	$4, 0x44($fp)
80024d18: 03 80 01 3c  	lui	$1, 0x8003
80024d1c: f4 0a 26 24  	addiu	$6, $1, 0xaf4
80024d20: 34 99 00 0c  	jal	0x264d0 <.text+0x64d0>
80024d24: 00 00 00 00  	nop
80024d28: 44 00 c2 af  	sw	$2, 0x44($fp)
80024d2c: dc 00 c4 27  	addiu	$4, $fp, 0xdc
80024d30: 95 93 00 0c  	jal	0x24e54 <.text+0x4e54>
80024d34: 00 00 00 00  	nop
80024d38: 25 20 40 00  	move	$4, $2
80024d3c: b9 93 00 0c  	jal	0x24ee4 <.text+0x4ee4>
80024d40: 00 00 00 00  	nop
80024d44: 1c 00 c1 8f  	lw	$1, 0x1c($fp)
80024d48: 20 01 c1 af  	sw	$1, 0x120($fp)
80024d4c: 27 01 c2 a3  	sb	$2, 0x127($fp)
80024d50: 29 01 c2 a3  	sb	$2, 0x129($fp)
80024d54: 2b 01 c2 a3  	sb	$2, 0x12b($fp)
80024d58: 2a 01 c2 a3  	sb	$2, 0x12a($fp)
80024d5c: 2a 01 c2 93  	lbu	$2, 0x12a($fp)
80024d60: 28 01 c2 a3  	sb	$2, 0x128($fp)
80024d64: 28 01 c2 93  	lbu	$2, 0x128($fp)
80024d68: 00 00 22 a0  	sb	$2, 0x0($1)
80024d6c: 40 01 c1 af  	sw	$1, 0x140($fp)
80024d70: 44 01 c1 af  	sw	$1, 0x144($fp)
80024d74: cc 00 c1 8f  	lw	$1, 0xcc($fp)
80024d78: ff ff 22 24  	addiu	$2, $1, -0x1
80024d7c: 20 00 c2 af  	sw	$2, 0x20($fp)
80024d80: 0d 00 20 10  	beqz	$1, 0x80024db8 <.text+0x4db8>
80024d84: 00 00 00 00  	nop
80024d88: 64 93 00 08  	j	0x24d90 <.text+0x4d90>
80024d8c: 00 00 00 00  	nop
80024d90: 20 00 c1 8f  	lw	$1, 0x20($fp)
80024d94: cc 00 c1 af  	sw	$1, 0xcc($fp)
80024d98: 44 00 c4 27  	addiu	$4, $fp, 0x44
80024d9c: 48 00 c5 27  	addiu	$5, $fp, 0x48
80024da0: 89 b2 00 0c  	jal	0x2ca24 <.text+0xca24>
80024da4: 00 00 00 00  	nop
80024da8: 5c ff 40 14  	bnez	$2, 0x80024b1c <.text+0x4b1c>
80024dac: 00 00 00 00  	nop
80024db0: 31 93 00 08  	j	0x24cc4 <.text+0x4cc4>
80024db4: 00 00 00 00  	nop
80024db8: 03 80 01 3c  	lui	$1, 0x8003
80024dbc: 04 0b 24 24  	addiu	$4, $1, 0xb04
80024dc0: ce b2 00 0c  	jal	0x2cb38 <.text+0xcb38>
80024dc4: 00 00 00 00  	nop
80024dc8: f0 ff bd 27  	addiu	$sp, $sp, -0x10
80024dcc: 0c 00 bf af  	sw	$ra, 0xc($sp)
80024dd0: 08 00 be af  	sw	$fp, 0x8($sp)
80024dd4: 25 f0 a0 03  	move	$fp, $sp
80024dd8: 04 00 c4 af  	sw	$4, 0x4($fp)
80024ddc: 00 00 82 90  	lbu	$2, 0x0($4)
80024de0: 25 e8 c0 03  	move	$sp, $fp
80024de4: 08 00 be 8f  	lw	$fp, 0x8($sp)
80024de8: 0c 00 bf 8f  	lw	$ra, 0xc($sp)
80024dec: 10 00 bd 27  	addiu	$sp, $sp, 0x10
80024df0: 08 00 e0 03  	jr	$ra
80024df4: 00 00 00 00  	nop
80024df8: f8 ff bd 27  	addiu	$sp, $sp, -0x8
80024dfc: 04 00 bf af  	sw	$ra, 0x4($sp)
80024e00: 00 00 be af  	sw	$fp, 0x0($sp)
80024e04: 25 f0 a0 03  	move	$fp, $sp
80024e08: 00 00 02 24  	addiu	$2, $zero, 0x0
80024e0c: 25 e8 c0 03  	move	$sp, $fp
80024e10: 00 00 be 8f  	lw	$fp, 0x0($sp)
80024e14: 04 00 bf 8f  	lw	$ra, 0x4($sp)
80024e18: 08 00 bd 27  	addiu	$sp, $sp, 0x8
80024e1c: 08 00 e0 03  	jr	$ra
80024e20: 00 00 00 00  	nop
80024e24: f0 ff bd 27  	addiu	$sp, $sp, -0x10
80024e28: 0c 00 bf af  	sw	$ra, 0xc($sp)
80024e2c: 08 00 be af  	sw	$fp, 0x8($sp)
80024e30: 25 f0 a0 03  	move	$fp, $sp
80024e34: 07 00 c4 a3  	sb	$4, 0x7($fp)
80024e38: ff 00 82 30  	andi	$2, $4, 0xff
80024e3c: 25 e8 c0 03  	move	$sp, $fp
80024e40: 08 00 be 8f  	lw	$fp, 0x8($sp)
80024e44: 0c 00 bf 8f  	lw	$ra, 0xc($sp)
80024e48: 10 00 bd 27  	addiu	$sp, $sp, 0x10
80024e4c: 08 00 e0 03  	jr	$ra
80024e50: 00 00 00 00  	nop
80024e54: f0 ff bd 27  	addiu	$sp, $sp, -0x10
80024e58: 0c 00 bf af  	sw	$ra, 0xc($sp)
80024e5c: 08 00 be af  	sw	$fp, 0x8($sp)
80024e60: 25 f0 a0 03  	move	$fp, $sp
80024e64: 04 00 c4 af  	sw	$4, 0x4($fp)
80024e68: 00 00 82 8c  	lw	$2, 0x0($4)
80024e6c: 25 e8 c0 03  	move	$sp, $fp
80024e70: 08 00 be 8f  	lw	$fp, 0x8($sp)
80024e74: 0c 00 bf 8f  	lw	$ra, 0xc($sp)
80024e78: 10 00 bd 27  	addiu	$sp, $sp, 0x10
80024e7c: 08 00 e0 03  	jr	$ra
80024e80: 00 00 00 00  	nop
80024e84: f0 ff bd 27  	addiu	$sp, $sp, -0x10
80024e88: 0c 00 bf af  	sw	$ra, 0xc($sp)
80024e8c: 08 00 be af  	sw	$fp, 0x8($sp)
80024e90: 25 f0 a0 03  	move	$fp, $sp
80024e94: 04 00 c4 af  	sw	$4, 0x4($fp)
80024e98: 00 00 82 8c  	lw	$2, 0x0($4)
80024e9c: 25 e8 c0 03  	move	$sp, $fp
80024ea0: 08 00 be 8f  	lw	$fp, 0x8($sp)
80024ea4: 0c 00 bf 8f  	lw	$ra, 0xc($sp)
80024ea8: 10 00 bd 27  	addiu	$sp, $sp, 0x10
80024eac: 08 00 e0 03  	jr	$ra
80024eb0: 00 00 00 00  	nop
80024eb4: f0 ff bd 27  	addiu	$sp, $sp, -0x10
80024eb8: 0c 00 bf af  	sw	$ra, 0xc($sp)
80024ebc: 08 00 be af  	sw	$fp, 0x8($sp)
80024ec0: 25 f0 a0 03  	move	$fp, $sp
80024ec4: 04 00 c4 af  	sw	$4, 0x4($fp)
80024ec8: 00 00 82 8c  	lw	$2, 0x0($4)
80024ecc: 25 e8 c0 03  	move	$sp, $fp
80024ed0: 08 00 be 8f  	lw	$fp, 0x8($sp)
80024ed4: 0c 00 bf 8f  	lw	$ra, 0xc($sp)
80024ed8: 10 00 bd 27  	addiu	$sp, $sp, 0x10
80024edc: 08 00 e0 03  	jr	$ra
80024ee0: 00 00 00 00  	nop
80024ee4: 70 ff bd 27  	addiu	$sp, $sp, -0x90
80024ee8: 8c 00 bf af  	sw	$ra, 0x8c($sp)
80024eec: 88 00 be af  	sw	$fp, 0x88($sp)
80024ef0: 25 f0 a0 03  	move	$fp, $sp
80024ef4: 25 08 80 00  	move	$1, $4
80024ef8: 2c 00 c1 af  	sw	$1, 0x2c($fp)
80024efc: 5f 00 c4 a3  	sb	$4, 0x5f($fp)
80024f00: 01 00 01 24  	addiu	$1, $zero, 0x1
80024f04: 0a 00 20 14  	bnez	$1, 0x80024f30 <.text+0x4f30>
80024f08: 00 00 00 00  	nop
80024f0c: c5 93 00 08  	j	0x24f14 <.text+0x4f14>
80024f10: 00 00 00 00  	nop
80024f14: 2c 00 c1 8f  	lw	$1, 0x2c($fp)
80024f18: ff 00 21 30  	andi	$1, $1, 0xff
80024f1c: 0a 00 21 2c  	sltiu	$1, $1, 0xa
80024f20: 3b 00 20 10  	beqz	$1, 0x80025010 <.text+0x5010>
80024f24: 00 00 00 00  	nop
80024f28: dc 93 00 08  	j	0x24f70 <.text+0x4f70>
80024f2c: 00 00 00 00  	nop
80024f30: 2c 00 c1 8f  	lw	$1, 0x2c($fp)
80024f34: ff 00 21 30  	andi	$1, $1, 0xff
80024f38: 0a 00 21 2c  	sltiu	$1, $1, 0xa
80024f3c: f5 ff 20 10  	beqz	$1, 0x80024f14 <.text+0x4f14>
80024f40: 00 00 00 00  	nop
80024f44: d3 93 00 08  	j	0x24f4c <.text+0x4f4c>
80024f48: 00 00 00 00  	nop
80024f4c: 2c 00 c1 8f  	lw	$1, 0x2c($fp)
80024f50: ff 00 21 30  	andi	$1, $1, 0xff
80024f54: 30 00 22 24  	addiu	$2, $1, 0x30
80024f58: 28 00 c2 af  	sw	$2, 0x28($fp)
80024f5c: ff 00 41 30  	andi	$1, $2, 0xff
80024f60: 5b 00 22 14  	bne	$1, $2, 0x800250d0 <.text+0x50d0>
80024f64: 00 00 00 00  	nop
80024f68: 30 94 00 08  	j	0x250c0 <.text+0x50c0>
80024f6c: 00 00 00 00  	nop
80024f70: 2c 00 c1 8f  	lw	$1, 0x2c($fp)
80024f74: 33 00 c1 a3  	sb	$1, 0x33($fp)
80024f78: 03 80 01 3c  	lui	$1, 0x8003
80024f7c: 24 0c 22 24  	addiu	$2, $1, 0xc24
80024f80: 74 00 c2 af  	sw	$2, 0x74($fp)
80024f84: 80 00 c2 af  	sw	$2, 0x80($fp)
80024f88: 02 80 01 3c  	lui	$1, 0x8002
80024f8c: 0c 76 21 24  	addiu	$1, $1, 0x760c
80024f90: 84 00 c1 af  	sw	$1, 0x84($fp)
80024f94: 78 00 c2 af  	sw	$2, 0x78($fp)
80024f98: 7c 00 c1 af  	sw	$1, 0x7c($fp)
80024f9c: 78 00 c4 8f  	lw	$4, 0x78($fp)
80024fa0: 7c 00 c3 8f  	lw	$3, 0x7c($fp)
80024fa4: 33 00 c2 27  	addiu	$2, $fp, 0x33
80024fa8: 60 00 c2 af  	sw	$2, 0x60($fp)
80024fac: 6c 00 c2 af  	sw	$2, 0x6c($fp)
80024fb0: 70 00 c1 af  	sw	$1, 0x70($fp)
80024fb4: 64 00 c2 af  	sw	$2, 0x64($fp)
80024fb8: 68 00 c1 af  	sw	$1, 0x68($fp)
80024fbc: 64 00 c2 8f  	lw	$2, 0x64($fp)
80024fc0: 68 00 c1 8f  	lw	$1, 0x68($fp)
80024fc4: 4c 00 c4 af  	sw	$4, 0x4c($fp)
80024fc8: 50 00 c3 af  	sw	$3, 0x50($fp)
80024fcc: 54 00 c2 af  	sw	$2, 0x54($fp)
80024fd0: 58 00 c1 af  	sw	$1, 0x58($fp)
80024fd4: 25 08 a0 03  	move	$1, $sp
80024fd8: 02 00 06 24  	addiu	$6, $zero, 0x2
80024fdc: 10 00 26 ac  	sw	$6, 0x10($1)
80024fe0: 03 80 01 3c  	lui	$1, 0x8003
80024fe4: 14 0c 25 24  	addiu	$5, $1, 0xc14
80024fe8: 34 00 c4 27  	addiu	$4, $fp, 0x34
80024fec: 24 00 c4 af  	sw	$4, 0x24($fp)
80024ff0: 4c 00 c7 27  	addiu	$7, $fp, 0x4c
80024ff4: d0 aa 00 0c  	jal	0x2ab40 <.text+0xab40>
80024ff8: 00 00 00 00  	nop
80024ffc: 24 00 c4 8f  	lw	$4, 0x24($fp)
80025000: 03 80 01 3c  	lui	$1, 0x8003
80025004: 28 0c 25 24  	addiu	$5, $1, 0xc28
80025008: f6 b4 00 0c  	jal	0x2d3d8 <.text+0xd3d8>
8002500c: 00 00 00 00  	nop
80025010: 2c 00 c1 8f  	lw	$1, 0x2c($fp)
80025014: ff 00 21 30  	andi	$1, $1, 0xff
80025018: 10 00 21 2c  	sltiu	$1, $1, 0x10
8002501c: d4 ff 20 10  	beqz	$1, 0x80024f70 <.text+0x4f70>
80025020: 00 00 00 00  	nop
80025024: 0b 94 00 08  	j	0x2502c <.text+0x502c>
80025028: 00 00 00 00  	nop
8002502c: 2c 00 c1 8f  	lw	$1, 0x2c($fp)
80025030: f6 ff 22 24  	addiu	$2, $1, -0xa
80025034: 20 00 c2 af  	sw	$2, 0x20($fp)
80025038: ff 00 21 30  	andi	$1, $1, 0xff
8002503c: 0a 00 21 2c  	sltiu	$1, $1, 0xa
80025040: 0c 00 20 14  	bnez	$1, 0x80025074 <.text+0x5074>
80025044: 00 00 00 00  	nop
80025048: 14 94 00 08  	j	0x25050 <.text+0x5050>
8002504c: 00 00 00 00  	nop
80025050: 20 00 c1 8f  	lw	$1, 0x20($fp)
80025054: ff 00 21 30  	andi	$1, $1, 0xff
80025058: 41 00 22 24  	addiu	$2, $1, 0x41
8002505c: 1c 00 c2 af  	sw	$2, 0x1c($fp)
80025060: ff 00 41 30  	andi	$1, $2, 0xff
80025064: 0b 00 22 14  	bne	$1, $2, 0x80025094 <.text+0x5094>
80025068: 00 00 00 00  	nop
8002506c: 21 94 00 08  	j	0x25084 <.text+0x5084>
80025070: 00 00 00 00  	nop
80025074: 03 80 01 3c  	lui	$1, 0x8003
80025078: 38 0c 24 24  	addiu	$4, $1, 0xc38
8002507c: ce b2 00 0c  	jal	0x2cb38 <.text+0xcb38>
80025080: 00 00 00 00  	nop
80025084: 1c 00 c1 8f  	lw	$1, 0x1c($fp)
80025088: 32 00 c1 a3  	sb	$1, 0x32($fp)
8002508c: 29 94 00 08  	j	0x250a4 <.text+0x50a4>
80025090: 00 00 00 00  	nop
80025094: 03 80 01 3c  	lui	$1, 0x8003
80025098: 48 0c 24 24  	addiu	$4, $1, 0xc48
8002509c: be b2 00 0c  	jal	0x2caf8 <.text+0xcaf8>
800250a0: 00 00 00 00  	nop
800250a4: 32 00 c2 93  	lbu	$2, 0x32($fp)
800250a8: 25 e8 c0 03  	move	$sp, $fp
800250ac: 88 00 be 8f  	lw	$fp, 0x88($sp)
800250b0: 8c 00 bf 8f  	lw	$ra, 0x8c($sp)
800250b4: 90 00 bd 27  	addiu	$sp, $sp, 0x90
800250b8: 08 00 e0 03  	jr	$ra
800250bc: 00 00 00 00  	nop
800250c0: 28 00 c1 8f  	lw	$1, 0x28($fp)
800250c4: 32 00 c1 a3  	sb	$1, 0x32($fp)
800250c8: 29 94 00 08  	j	0x250a4 <.text+0x50a4>
800250cc: 00 00 00 00  	nop
800250d0: 03 80 01 3c  	lui	$1, 0x8003
800250d4: 58 0c 24 24  	addiu	$4, $1, 0xc58
800250d8: be b2 00 0c  	jal	0x2caf8 <.text+0xcaf8>
800250dc: 00 00 00 00  	nop
800250e0: e0 ff bd 27  	addiu	$sp, $sp, -0x20
800250e4: 1c 00 bf af  	sw	$ra, 0x1c($sp)
800250e8: 18 00 be af  	sw	$fp, 0x18($sp)
800250ec: 25 f0 a0 03  	move	$fp, $sp
800250f0: 25 30 a0 00  	move	$6, $5
800250f4: 10 00 c4 af  	sw	$4, 0x10($fp)
800250f8: 14 00 c6 af  	sw	$6, 0x14($fp)
800250fc: 00 00 85 8c  	lw	$5, 0x0($4)
80025100: 03 80 01 3c  	lui	$1, 0x8003
80025104: f4 0b 24 24  	addiu	$4, $1, 0xbf4
80025108: 75 92 00 0c  	jal	0x249d4 <.text+0x49d4>
8002510c: 00 00 00 00  	nop
80025110: 25 e8 c0 03  	move	$sp, $fp
80025114: 18 00 be 8f  	lw	$fp, 0x18($sp)
80025118: 1c 00 bf 8f  	lw	$ra, 0x1c($sp)
8002511c: 20 00 bd 27  	addiu	$sp, $sp, 0x20
80025120: 08 00 e0 03  	jr	$ra
80025124: 00 00 00 00  	nop
80025128: f0 ff bd 27  	addiu	$sp, $sp, -0x10
8002512c: 0c 00 bf af  	sw	$ra, 0xc($sp)
80025130: 08 00 be af  	sw	$fp, 0x8($sp)
80025134: 25 f0 a0 03  	move	$fp, $sp
80025138: 20 14 04 7c  	seb	$2, $4
8002513c: 07 00 c4 a3  	sb	$4, 0x7($fp)
80025140: bf ff 01 24  	addiu	$1, $zero, -0x41
80025144: 2a 10 22 00  	slt	$2, $1, $2
80025148: 25 e8 c0 03  	move	$sp, $fp
8002514c: 08 00 be 8f  	lw	$fp, 0x8($sp)
80025150: 0c 00 bf 8f  	lw	$ra, 0xc($sp)
80025154: 10 00 bd 27  	addiu	$sp, $sp, 0x10
80025158: 08 00 e0 03  	jr	$ra
8002515c: 00 00 00 00  	nop
80025160: d8 ff bd 27  	addiu	$sp, $sp, -0x28
80025164: 24 00 bf af  	sw	$ra, 0x24($sp)
80025168: 20 00 be af  	sw	$fp, 0x20($sp)
8002516c: 25 f0 a0 03  	move	$fp, $sp
80025170: 10 00 c4 af  	sw	$4, 0x10($fp)
80025174: 18 00 c4 af  	sw	$4, 0x18($fp)
80025178: 1c 00 c4 af  	sw	$4, 0x1c($fp)
8002517c: 07 00 80 04  	bltz	$4, 0x8002519c <.text+0x519c>
80025180: 00 00 00 00  	nop
80025184: 63 94 00 08  	j	0x2518c <.text+0x518c>
80025188: 00 00 00 00  	nop
8002518c: 10 00 c1 8f  	lw	$1, 0x10($fp)
80025190: 14 00 c1 af  	sw	$1, 0x14($fp)
80025194: 6d 94 00 08  	j	0x251b4 <.text+0x51b4>
80025198: 00 00 00 00  	nop
8002519c: 10 00 c1 8f  	lw	$1, 0x10($fp)
800251a0: 00 80 02 3c  	lui	$2, 0x8000
800251a4: 10 00 22 10  	beq	$1, $2, 0x800251e8 <.text+0x51e8>
800251a8: 00 00 00 00  	nop
800251ac: 74 94 00 08  	j	0x251d0 <.text+0x51d0>
800251b0: 00 00 00 00  	nop
800251b4: 14 00 c2 8f  	lw	$2, 0x14($fp)
800251b8: 25 e8 c0 03  	move	$sp, $fp
800251bc: 20 00 be 8f  	lw	$fp, 0x20($sp)
800251c0: 24 00 bf 8f  	lw	$ra, 0x24($sp)
800251c4: 28 00 bd 27  	addiu	$sp, $sp, 0x28
800251c8: 08 00 e0 03  	jr	$ra
800251cc: 00 00 00 00  	nop
800251d0: 10 00 c1 8f  	lw	$1, 0x10($fp)
800251d4: 00 00 02 24  	addiu	$2, $zero, 0x0
800251d8: 23 08 01 00  	negu	$1, $1
800251dc: 14 00 c1 af  	sw	$1, 0x14($fp)
800251e0: 6d 94 00 08  	j	0x251b4 <.text+0x51b4>
800251e4: 00 00 00 00  	nop
800251e8: 03 80 01 3c  	lui	$1, 0x8003
800251ec: dc 0c 24 24  	addiu	$4, $1, 0xcdc
800251f0: ee b2 00 0c  	jal	0x2cbb8 <.text+0xcbb8>
800251f4: 00 00 00 00  	nop
800251f8: c0 ff bd 27  	addiu	$sp, $sp, -0x40
800251fc: 3c 00 bf af  	sw	$ra, 0x3c($sp)
80025200: 38 00 be af  	sw	$fp, 0x38($sp)
80025204: 25 f0 a0 03  	move	$fp, $sp
80025208: 10 00 c4 af  	sw	$4, 0x10($fp)
8002520c: 14 00 c5 af  	sw	$5, 0x14($fp)
80025210: 28 00 c4 af  	sw	$4, 0x28($fp)
80025214: 2c 00 c5 af  	sw	$5, 0x2c($fp)
80025218: 19 00 85 00  	multu	$4, $5
8002521c: 10 08 00 00  	mfhi	$1
80025220: 2b 08 01 00  	sltu	$1, $zero, $1
80025224: 02 10 85 70  	mul	$2, $4, $5
80025228: 30 00 c2 af  	sw	$2, 0x30($fp)
8002522c: 37 00 c1 a3  	sb	$1, 0x37($fp)
80025230: 20 00 c2 af  	sw	$2, 0x20($fp)
80025234: 24 00 c1 a3  	sb	$1, 0x24($fp)
80025238: 20 00 c2 8f  	lw	$2, 0x20($fp)
8002523c: 04 00 c2 af  	sw	$2, 0x4($fp)
80025240: 24 00 c1 93  	lbu	$1, 0x24($fp)
80025244: 18 00 c2 af  	sw	$2, 0x18($fp)
80025248: 01 00 21 30  	andi	$1, $1, 0x1
8002524c: 1e 00 c1 a3  	sb	$1, 0x1e($fp)
80025250: 1f 00 c1 a3  	sb	$1, 0x1f($fp)
80025254: 1f 00 c1 93  	lbu	$1, 0x1f($fp)
80025258: 01 00 21 30  	andi	$1, $1, 0x1
8002525c: 09 00 20 14  	bnez	$1, 0x80025284 <.text+0x5284>
80025260: 00 00 00 00  	nop
80025264: 9b 94 00 08  	j	0x2526c <.text+0x526c>
80025268: 00 00 00 00  	nop
8002526c: 04 00 c1 8f  	lw	$1, 0x4($fp)
80025270: 0c 00 c1 af  	sw	$1, 0xc($fp)
80025274: 01 00 01 24  	addiu	$1, $zero, 0x1
80025278: 08 00 c1 af  	sw	$1, 0x8($fp)
8002527c: a4 94 00 08  	j	0x25290 <.text+0x5290>
80025280: 00 00 00 00  	nop
80025284: 08 00 c0 af  	sw	$zero, 0x8($fp)
80025288: a4 94 00 08  	j	0x25290 <.text+0x5290>
8002528c: 00 00 00 00  	nop
80025290: 08 00 c2 8f  	lw	$2, 0x8($fp)
80025294: 0c 00 c3 8f  	lw	$3, 0xc($fp)
80025298: 25 e8 c0 03  	move	$sp, $fp
8002529c: 38 00 be 8f  	lw	$fp, 0x38($sp)
800252a0: 3c 00 bf 8f  	lw	$ra, 0x3c($sp)
800252a4: 40 00 bd 27  	addiu	$sp, $sp, 0x40
800252a8: 08 00 e0 03  	jr	$ra
800252ac: 00 00 00 00  	nop
800252b0: c0 ff bd 27  	addiu	$sp, $sp, -0x40
800252b4: 3c 00 bf af  	sw	$ra, 0x3c($sp)
800252b8: 38 00 be af  	sw	$fp, 0x38($sp)
800252bc: 25 f0 a0 03  	move	$fp, $sp
800252c0: 1c 00 c5 af  	sw	$5, 0x1c($fp)
800252c4: 20 00 c4 af  	sw	$4, 0x20($fp)
800252c8: 28 00 c4 af  	sw	$4, 0x28($fp)
800252cc: 2c 00 c5 af  	sw	$5, 0x2c($fp)
800252d0: 01 00 01 24  	addiu	$1, $zero, 0x1
800252d4: 0d 00 20 14  	bnez	$1, 0x8002530c <.text+0x530c>
800252d8: 00 00 00 00  	nop
800252dc: b9 94 00 08  	j	0x252e4 <.text+0x52e4>
800252e0: 00 00 00 00  	nop
800252e4: 20 00 c1 8f  	lw	$1, 0x20($fp)
800252e8: 1c 00 c2 8f  	lw	$2, 0x1c($fp)
800252ec: 30 00 c1 af  	sw	$1, 0x30($fp)
800252f0: 34 00 c2 af  	sw	$2, 0x34($fp)
800252f4: 23 20 22 00  	subu	$4, $1, $2
800252f8: 58 94 00 0c  	jal	0x25160 <.text+0x5160>
800252fc: 00 00 00 00  	nop
80025300: 24 00 c2 af  	sw	$2, 0x24($fp)
80025304: ca 94 00 08  	j	0x25328 <.text+0x5328>
80025308: 00 00 00 00  	nop
8002530c: 20 00 c1 8f  	lw	$1, 0x20($fp)
80025310: 1c 00 c2 8f  	lw	$2, 0x1c($fp)
80025314: 2b 08 22 00  	sltu	$1, $1, $2
80025318: 13 00 20 14  	bnez	$1, 0x80025368 <.text+0x5368>
8002531c: 00 00 00 00  	nop
80025320: d1 94 00 08  	j	0x25344 <.text+0x5344>
80025324: 00 00 00 00  	nop
80025328: 24 00 c2 8f  	lw	$2, 0x24($fp)
8002532c: 25 e8 c0 03  	move	$sp, $fp
80025330: 38 00 be 8f  	lw	$fp, 0x38($sp)
80025334: 3c 00 bf 8f  	lw	$ra, 0x3c($sp)
80025338: 40 00 bd 27  	addiu	$sp, $sp, 0x40
8002533c: 08 00 e0 03  	jr	$ra
80025340: 00 00 00 00  	nop
80025344: 20 00 c1 8f  	lw	$1, 0x20($fp)
80025348: 1c 00 c2 8f  	lw	$2, 0x1c($fp)
8002534c: 23 18 22 00  	subu	$3, $1, $2
80025350: 18 00 c3 af  	sw	$3, 0x18($fp)
80025354: 2b 08 22 00  	sltu	$1, $1, $2
80025358: 10 00 20 14  	bnez	$1, 0x8002539c <.text+0x539c>
8002535c: 00 00 00 00  	nop
80025360: e3 94 00 08  	j	0x2538c <.text+0x538c>
80025364: 00 00 00 00  	nop
80025368: 1c 00 c1 8f  	lw	$1, 0x1c($fp)
8002536c: 20 00 c2 8f  	lw	$2, 0x20($fp)
80025370: 23 18 22 00  	subu	$3, $1, $2
80025374: 14 00 c3 af  	sw	$3, 0x14($fp)
80025378: 2b 08 22 00  	sltu	$1, $1, $2
8002537c: 0f 00 20 14  	bnez	$1, 0x800253bc <.text+0x53bc>
80025380: 00 00 00 00  	nop
80025384: eb 94 00 08  	j	0x253ac <.text+0x53ac>
80025388: 00 00 00 00  	nop
8002538c: 18 00 c1 8f  	lw	$1, 0x18($fp)
80025390: 24 00 c1 af  	sw	$1, 0x24($fp)
80025394: ca 94 00 08  	j	0x25328 <.text+0x5328>
80025398: 00 00 00 00  	nop
8002539c: 03 80 01 3c  	lui	$1, 0x8003
800253a0: ec 0c 24 24  	addiu	$4, $1, 0xcec
800253a4: ce b2 00 0c  	jal	0x2cb38 <.text+0xcb38>
800253a8: 00 00 00 00  	nop
800253ac: 14 00 c1 8f  	lw	$1, 0x14($fp)
800253b0: 24 00 c1 af  	sw	$1, 0x24($fp)
800253b4: ca 94 00 08  	j	0x25328 <.text+0x5328>
800253b8: 00 00 00 00  	nop
800253bc: 03 80 01 3c  	lui	$1, 0x8003
800253c0: ec 0c 24 24  	addiu	$4, $1, 0xcec
800253c4: ce b2 00 0c  	jal	0x2cb38 <.text+0xcb38>
800253c8: 00 00 00 00  	nop
800253cc: f8 ff bd 27  	addiu	$sp, $sp, -0x8
800253d0: 04 00 bf af  	sw	$ra, 0x4($sp)
800253d4: 00 00 be af  	sw	$fp, 0x0($sp)
800253d8: 25 f0 a0 03  	move	$fp, $sp
800253dc: 25 10 80 00  	move	$2, $4
800253e0: 08 00 a1 8c  	lw	$1, 0x8($5)
800253e4: 08 00 81 ac  	sw	$1, 0x8($4)
800253e8: 04 00 a1 8c  	lw	$1, 0x4($5)
800253ec: 04 00 81 ac  	sw	$1, 0x4($4)
800253f0: 00 00 a1 8c  	lw	$1, 0x0($5)
800253f4: 00 00 81 ac  	sw	$1, 0x0($4)
800253f8: 25 e8 c0 03  	move	$sp, $fp
800253fc: 00 00 be 8f  	lw	$fp, 0x0($sp)
80025400: 04 00 bf 8f  	lw	$ra, 0x4($sp)
80025404: 08 00 bd 27  	addiu	$sp, $sp, 0x8
80025408: 08 00 e0 03  	jr	$ra
8002540c: 00 00 00 00  	nop
80025410: d8 ff bd 27  	addiu	$sp, $sp, -0x28
80025414: 24 00 bf af  	sw	$ra, 0x24($sp)
80025418: 20 00 be af  	sw	$fp, 0x20($sp)
8002541c: 25 f0 a0 03  	move	$fp, $sp
80025420: 14 00 c4 af  	sw	$4, 0x14($fp)
80025424: 18 00 c5 af  	sw	$5, 0x18($fp)
80025428: b7 98 00 0c  	jal	0x262dc <.text+0x62dc>
8002542c: 00 00 00 00  	nop
80025430: 25 e8 c0 03  	move	$sp, $fp
80025434: 20 00 be 8f  	lw	$fp, 0x20($sp)
80025438: 24 00 bf 8f  	lw	$ra, 0x24($sp)
8002543c: 28 00 bd 27  	addiu	$sp, $sp, 0x28
80025440: 08 00 e0 03  	jr	$ra
80025444: 00 00 00 00  	nop
80025448: d8 ff bd 27  	addiu	$sp, $sp, -0x28
8002544c: 24 00 bf af  	sw	$ra, 0x24($sp)
80025450: 20 00 be af  	sw	$fp, 0x20($sp)
80025454: 25 f0 a0 03  	move	$fp, $sp
80025458: 14 00 c4 af  	sw	$4, 0x14($fp)
8002545c: 18 00 c5 af  	sw	$5, 0x18($fp)
80025460: 36 b9 00 0c  	jal	0x2e4d8 <.text+0xe4d8>
80025464: 00 00 00 00  	nop
80025468: 25 e8 c0 03  	move	$sp, $fp
8002546c: 20 00 be 8f  	lw	$fp, 0x20($sp)
80025470: 24 00 bf 8f  	lw	$ra, 0x24($sp)
80025474: 28 00 bd 27  	addiu	$sp, $sp, 0x28
80025478: 08 00 e0 03  	jr	$ra
8002547c: 00 00 00 00  	nop
80025480: d8 ff bd 27  	addiu	$sp, $sp, -0x28
80025484: 24 00 bf af  	sw	$ra, 0x24($sp)
80025488: 20 00 be af  	sw	$fp, 0x20($sp)
8002548c: 25 f0 a0 03  	move	$fp, $sp
80025490: 25 08 80 00  	move	$1, $4
80025494: 14 00 c1 af  	sw	$1, 0x14($fp)
80025498: 18 00 c5 af  	sw	$5, 0x18($fp)
8002549c: 1c 00 c6 af  	sw	$6, 0x1c($fp)
800254a0: c3 99 00 0c  	jal	0x2670c <.text+0x670c>
800254a4: 00 00 00 00  	nop
800254a8: 14 00 c2 8f  	lw	$2, 0x14($fp)
800254ac: 25 e8 c0 03  	move	$sp, $fp
800254b0: 20 00 be 8f  	lw	$fp, 0x20($sp)
800254b4: 24 00 bf 8f  	lw	$ra, 0x24($sp)
800254b8: 28 00 bd 27  	addiu	$sp, $sp, 0x28
800254bc: 08 00 e0 03  	jr	$ra
800254c0: 00 00 00 00  	nop
800254c4: d8 ff bd 27  	addiu	$sp, $sp, -0x28
800254c8: 24 00 bf af  	sw	$ra, 0x24($sp)
800254cc: 20 00 be af  	sw	$fp, 0x20($sp)
800254d0: 25 f0 a0 03  	move	$fp, $sp
800254d4: 25 08 80 00  	move	$1, $4
800254d8: 14 00 c1 af  	sw	$1, 0x14($fp)
800254dc: 18 00 c5 af  	sw	$5, 0x18($fp)
800254e0: 1c 00 c6 af  	sw	$6, 0x1c($fp)
800254e4: d3 99 00 0c  	jal	0x2674c <.text+0x674c>
800254e8: 00 00 00 00  	nop
800254ec: 14 00 c2 8f  	lw	$2, 0x14($fp)
800254f0: 25 e8 c0 03  	move	$sp, $fp
800254f4: 20 00 be 8f  	lw	$fp, 0x20($sp)
800254f8: 24 00 bf 8f  	lw	$ra, 0x24($sp)
800254fc: 28 00 bd 27  	addiu	$sp, $sp, 0x28
80025500: 08 00 e0 03  	jr	$ra
80025504: 00 00 00 00  	nop
80025508: e0 ff bd 27  	addiu	$sp, $sp, -0x20
8002550c: 1c 00 bf af  	sw	$ra, 0x1c($sp)
80025510: 18 00 be af  	sw	$fp, 0x18($sp)
80025514: 25 f0 a0 03  	move	$fp, $sp
80025518: 10 00 c4 af  	sw	$4, 0x10($fp)
8002551c: 14 00 c5 af  	sw	$5, 0x14($fp)
80025520: 56 b4 00 0c  	jal	0x2d158 <.text+0xd158>
80025524: 00 00 00 00  	nop
80025528: 25 e8 c0 03  	move	$sp, $fp
8002552c: 18 00 be 8f  	lw	$fp, 0x18($sp)
80025530: 1c 00 bf 8f  	lw	$ra, 0x1c($sp)
80025534: 20 00 bd 27  	addiu	$sp, $sp, 0x20
80025538: 08 00 e0 03  	jr	$ra
8002553c: 00 00 00 00  	nop
80025540: e0 ff bd 27  	addiu	$sp, $sp, -0x20
80025544: 1c 00 bf af  	sw	$ra, 0x1c($sp)
80025548: 18 00 be af  	sw	$fp, 0x18($sp)
8002554c: 25 f0 a0 03  	move	$fp, $sp
80025550: 10 00 c4 af  	sw	$4, 0x10($fp)
80025554: 14 00 c5 af  	sw	$5, 0x14($fp)
80025558: 23 a2 00 0c  	jal	0x2888c <.text+0x888c>
8002555c: 00 00 00 00  	nop
80025560: 25 e8 c0 03  	move	$sp, $fp
80025564: 18 00 be 8f  	lw	$fp, 0x18($sp)
80025568: 1c 00 bf 8f  	lw	$ra, 0x1c($sp)
8002556c: 20 00 bd 27  	addiu	$sp, $sp, 0x20
80025570: 08 00 e0 03  	jr	$ra
80025574: 00 00 00 00  	nop
80025578: e0 ff bd 27  	addiu	$sp, $sp, -0x20
8002557c: 1c 00 bf af  	sw	$ra, 0x1c($sp)
80025580: 18 00 be af  	sw	$fp, 0x18($sp)
80025584: 25 f0 a0 03  	move	$fp, $sp
80025588: 10 00 c4 af  	sw	$4, 0x10($fp)
8002558c: 14 00 c5 af  	sw	$5, 0x14($fp)
80025590: 31 a2 00 0c  	jal	0x288c4 <.text+0x88c4>
80025594: 00 00 00 00  	nop
80025598: 25 e8 c0 03  	move	$sp, $fp
8002559c: 18 00 be 8f  	lw	$fp, 0x18($sp)
800255a0: 1c 00 bf 8f  	lw	$ra, 0x1c($sp)
800255a4: 20 00 bd 27  	addiu	$sp, $sp, 0x20
800255a8: 08 00 e0 03  	jr	$ra
800255ac: 00 00 00 00  	nop
800255b0: b8 ff bd 27  	addiu	$sp, $sp, -0x48
800255b4: 44 00 bf af  	sw	$ra, 0x44($sp)
800255b8: 40 00 be af  	sw	$fp, 0x40($sp)
800255bc: 25 f0 a0 03  	move	$fp, $sp
800255c0: 10 00 c5 af  	sw	$5, 0x10($fp)
800255c4: 24 00 c4 af  	sw	$4, 0x24($fp)
800255c8: 28 00 c5 af  	sw	$5, 0x28($fp)
800255cc: 2c 00 c5 af  	sw	$5, 0x2c($fp)
800255d0: 0f bb 00 0c  	jal	0x2ec3c <.text+0xec3c>
800255d4: 00 00 00 00  	nop
800255d8: 25 20 40 00  	move	$4, $2
800255dc: 25 28 60 00  	move	$5, $3
800255e0: 15 ba 00 0c  	jal	0x2e854 <.text+0xe854>
800255e4: 00 00 00 00  	nop
800255e8: 25 08 40 00  	move	$1, $2
800255ec: 14 00 c1 af  	sw	$1, 0x14($fp)
800255f0: 30 00 c2 af  	sw	$2, 0x30($fp)
800255f4: 7f 95 00 08  	j	0x255fc <.text+0x55fc>
800255f8: 00 00 00 00  	nop
800255fc: 14 00 c1 8f  	lw	$1, 0x14($fp)
80025600: 10 00 c2 8f  	lw	$2, 0x10($fp)
80025604: 34 00 c1 af  	sw	$1, 0x34($fp)
80025608: 38 00 c1 af  	sw	$1, 0x38($fp)
8002560c: 3c 00 c2 af  	sw	$2, 0x3c($fp)
80025610: 40 11 02 00  	sll	$2, $2, 0x5
80025614: 21 08 22 00  	addu	$1, $1, $2
80025618: 20 00 c1 af  	sw	$1, 0x20($fp)
8002561c: 89 95 00 08  	j	0x25624 <.text+0x5624>
80025620: 00 00 00 00  	nop
80025624: 14 00 c2 8f  	lw	$2, 0x14($fp)
80025628: 20 00 c1 8f  	lw	$1, 0x20($fp)
8002562c: 18 00 c2 af  	sw	$2, 0x18($fp)
80025630: 1c 00 c1 af  	sw	$1, 0x1c($fp)
80025634: 18 00 c2 8f  	lw	$2, 0x18($fp)
80025638: 1c 00 c3 8f  	lw	$3, 0x1c($fp)
8002563c: 25 e8 c0 03  	move	$sp, $fp
80025640: 40 00 be 8f  	lw	$fp, 0x40($sp)
80025644: 44 00 bf 8f  	lw	$ra, 0x44($sp)
80025648: 48 00 bd 27  	addiu	$sp, $sp, 0x48
8002564c: 08 00 e0 03  	jr	$ra
80025650: 00 00 00 00  	nop
80025654: b8 ff bd 27  	addiu	$sp, $sp, -0x48
80025658: 44 00 bf af  	sw	$ra, 0x44($sp)
8002565c: 40 00 be af  	sw	$fp, 0x40($sp)
80025660: 25 f0 a0 03  	move	$fp, $sp
80025664: 10 00 c5 af  	sw	$5, 0x10($fp)
80025668: 24 00 c4 af  	sw	$4, 0x24($fp)
8002566c: 28 00 c5 af  	sw	$5, 0x28($fp)
80025670: 2c 00 c5 af  	sw	$5, 0x2c($fp)
80025674: ff ba 00 0c  	jal	0x2ebfc <.text+0xebfc>
80025678: 00 00 00 00  	nop
8002567c: 25 20 40 00  	move	$4, $2
80025680: 25 28 60 00  	move	$5, $3
80025684: 45 ba 00 0c  	jal	0x2e914 <.text+0xe914>
80025688: 00 00 00 00  	nop
8002568c: 25 08 40 00  	move	$1, $2
80025690: 14 00 c1 af  	sw	$1, 0x14($fp)
80025694: 30 00 c2 af  	sw	$2, 0x30($fp)
80025698: a8 95 00 08  	j	0x256a0 <.text+0x56a0>
8002569c: 00 00 00 00  	nop
800256a0: 14 00 c1 8f  	lw	$1, 0x14($fp)
800256a4: 10 00 c2 8f  	lw	$2, 0x10($fp)
800256a8: 34 00 c1 af  	sw	$1, 0x34($fp)
800256ac: 38 00 c1 af  	sw	$1, 0x38($fp)
800256b0: 3c 00 c2 af  	sw	$2, 0x3c($fp)
800256b4: c0 10 02 00  	sll	$2, $2, 0x3
800256b8: 21 08 22 00  	addu	$1, $1, $2
800256bc: 20 00 c1 af  	sw	$1, 0x20($fp)
800256c0: b2 95 00 08  	j	0x256c8 <.text+0x56c8>
800256c4: 00 00 00 00  	nop
800256c8: 14 00 c2 8f  	lw	$2, 0x14($fp)
800256cc: 20 00 c1 8f  	lw	$1, 0x20($fp)
800256d0: 18 00 c2 af  	sw	$2, 0x18($fp)
800256d4: 1c 00 c1 af  	sw	$1, 0x1c($fp)
800256d8: 18 00 c2 8f  	lw	$2, 0x18($fp)
800256dc: 1c 00 c3 8f  	lw	$3, 0x1c($fp)
800256e0: 25 e8 c0 03  	move	$sp, $fp
800256e4: 40 00 be 8f  	lw	$fp, 0x40($sp)
800256e8: 44 00 bf 8f  	lw	$ra, 0x44($sp)
800256ec: 48 00 bd 27  	addiu	$sp, $sp, 0x48
800256f0: 08 00 e0 03  	jr	$ra
800256f4: 00 00 00 00  	nop
800256f8: b8 ff bd 27  	addiu	$sp, $sp, -0x48
800256fc: 44 00 bf af  	sw	$ra, 0x44($sp)
80025700: 40 00 be af  	sw	$fp, 0x40($sp)
80025704: 25 f0 a0 03  	move	$fp, $sp
80025708: 10 00 c5 af  	sw	$5, 0x10($fp)
8002570c: 24 00 c4 af  	sw	$4, 0x24($fp)
80025710: 28 00 c5 af  	sw	$5, 0x28($fp)
80025714: 2c 00 c5 af  	sw	$5, 0x2c($fp)
80025718: 3f bb 00 0c  	jal	0x2ecfc <.text+0xecfc>
8002571c: 00 00 00 00  	nop
80025720: 25 20 40 00  	move	$4, $2
80025724: 25 28 60 00  	move	$5, $3
80025728: 35 ba 00 0c  	jal	0x2e8d4 <.text+0xe8d4>
8002572c: 00 00 00 00  	nop
80025730: 25 08 40 00  	move	$1, $2
80025734: 14 00 c1 af  	sw	$1, 0x14($fp)
80025738: 30 00 c2 af  	sw	$2, 0x30($fp)
8002573c: d1 95 00 08  	j	0x25744 <.text+0x5744>
80025740: 00 00 00 00  	nop
80025744: 14 00 c1 8f  	lw	$1, 0x14($fp)
80025748: 10 00 c2 8f  	lw	$2, 0x10($fp)
8002574c: 34 00 c1 af  	sw	$1, 0x34($fp)
80025750: 38 00 c1 af  	sw	$1, 0x38($fp)
80025754: 3c 00 c2 af  	sw	$2, 0x3c($fp)
80025758: 80 10 02 00  	sll	$2, $2, 0x2
8002575c: 21 08 22 00  	addu	$1, $1, $2
80025760: 20 00 c1 af  	sw	$1, 0x20($fp)
80025764: db 95 00 08  	j	0x2576c <.text+0x576c>
80025768: 00 00 00 00  	nop
8002576c: 14 00 c2 8f  	lw	$2, 0x14($fp)
80025770: 20 00 c1 8f  	lw	$1, 0x20($fp)
80025774: 18 00 c2 af  	sw	$2, 0x18($fp)
80025778: 1c 00 c1 af  	sw	$1, 0x1c($fp)
8002577c: 18 00 c2 8f  	lw	$2, 0x18($fp)
80025780: 1c 00 c3 8f  	lw	$3, 0x1c($fp)
80025784: 25 e8 c0 03  	move	$sp, $fp
80025788: 40 00 be 8f  	lw	$fp, 0x40($sp)
8002578c: 44 00 bf 8f  	lw	$ra, 0x44($sp)
80025790: 48 00 bd 27  	addiu	$sp, $sp, 0x48
80025794: 08 00 e0 03  	jr	$ra
80025798: 00 00 00 00  	nop
8002579c: b8 ff bd 27  	addiu	$sp, $sp, -0x48
800257a0: 44 00 bf af  	sw	$ra, 0x44($sp)
800257a4: 40 00 be af  	sw	$fp, 0x40($sp)
800257a8: 25 f0 a0 03  	move	$fp, $sp
800257ac: 10 00 c5 af  	sw	$5, 0x10($fp)
800257b0: 24 00 c4 af  	sw	$4, 0x24($fp)
800257b4: 28 00 c5 af  	sw	$5, 0x28($fp)
800257b8: 2c 00 c5 af  	sw	$5, 0x2c($fp)
800257bc: 2f bb 00 0c  	jal	0x2ecbc <.text+0xecbc>
800257c0: 00 00 00 00  	nop
800257c4: 25 20 40 00  	move	$4, $2
800257c8: 25 28 60 00  	move	$5, $3
800257cc: 25 ba 00 0c  	jal	0x2e894 <.text+0xe894>
800257d0: 00 00 00 00  	nop
800257d4: 25 08 40 00  	move	$1, $2
800257d8: 14 00 c1 af  	sw	$1, 0x14($fp)
800257dc: 30 00 c2 af  	sw	$2, 0x30($fp)
800257e0: fa 95 00 08  	j	0x257e8 <.text+0x57e8>
800257e4: 00 00 00 00  	nop
800257e8: 14 00 c1 8f  	lw	$1, 0x14($fp)
800257ec: 10 00 c2 8f  	lw	$2, 0x10($fp)
800257f0: 34 00 c1 af  	sw	$1, 0x34($fp)
800257f4: 38 00 c1 af  	sw	$1, 0x38($fp)
800257f8: 3c 00 c2 af  	sw	$2, 0x3c($fp)
800257fc: 00 11 02 00  	sll	$2, $2, 0x4
80025800: 21 08 22 00  	addu	$1, $1, $2
80025804: 20 00 c1 af  	sw	$1, 0x20($fp)
80025808: 04 96 00 08  	j	0x25810 <.text+0x5810>
8002580c: 00 00 00 00  	nop
80025810: 14 00 c2 8f  	lw	$2, 0x14($fp)
80025814: 20 00 c1 8f  	lw	$1, 0x20($fp)
80025818: 18 00 c2 af  	sw	$2, 0x18($fp)
8002581c: 1c 00 c1 af  	sw	$1, 0x1c($fp)
80025820: 18 00 c2 8f  	lw	$2, 0x18($fp)
80025824: 1c 00 c3 8f  	lw	$3, 0x1c($fp)
80025828: 25 e8 c0 03  	move	$sp, $fp
8002582c: 40 00 be 8f  	lw	$fp, 0x40($sp)
80025830: 44 00 bf 8f  	lw	$ra, 0x44($sp)
80025834: 48 00 bd 27  	addiu	$sp, $sp, 0x48
80025838: 08 00 e0 03  	jr	$ra
8002583c: 00 00 00 00  	nop
80025840: b8 ff bd 27  	addiu	$sp, $sp, -0x48
80025844: 44 00 bf af  	sw	$ra, 0x44($sp)
80025848: 40 00 be af  	sw	$fp, 0x40($sp)
8002584c: 25 f0 a0 03  	move	$fp, $sp
80025850: 10 00 c5 af  	sw	$5, 0x10($fp)
80025854: 24 00 c4 af  	sw	$4, 0x24($fp)
80025858: 28 00 c5 af  	sw	$5, 0x28($fp)
8002585c: 2c 00 c5 af  	sw	$5, 0x2c($fp)
80025860: 1f bb 00 0c  	jal	0x2ec7c <.text+0xec7c>
80025864: 00 00 00 00  	nop
80025868: 25 20 40 00  	move	$4, $2
8002586c: 25 28 60 00  	move	$5, $3
80025870: 55 ba 00 0c  	jal	0x2e954 <.text+0xe954>
80025874: 00 00 00 00  	nop
80025878: 25 08 40 00  	move	$1, $2
8002587c: 14 00 c1 af  	sw	$1, 0x14($fp)
80025880: 30 00 c2 af  	sw	$2, 0x30($fp)
80025884: 23 96 00 08  	j	0x2588c <.text+0x588c>
80025888: 00 00 00 00  	nop
8002588c: 14 00 c1 8f  	lw	$1, 0x14($fp)
80025890: 10 00 c2 8f  	lw	$2, 0x10($fp)
80025894: 34 00 c1 af  	sw	$1, 0x34($fp)
80025898: 38 00 c1 af  	sw	$1, 0x38($fp)
8002589c: 3c 00 c2 af  	sw	$2, 0x3c($fp)
800258a0: 21 08 22 00  	addu	$1, $1, $2
800258a4: 20 00 c1 af  	sw	$1, 0x20($fp)
800258a8: 2c 96 00 08  	j	0x258b0 <.text+0x58b0>
800258ac: 00 00 00 00  	nop
800258b0: 14 00 c2 8f  	lw	$2, 0x14($fp)
800258b4: 20 00 c1 8f  	lw	$1, 0x20($fp)
800258b8: 18 00 c2 af  	sw	$2, 0x18($fp)
800258bc: 1c 00 c1 af  	sw	$1, 0x1c($fp)
800258c0: 18 00 c2 8f  	lw	$2, 0x18($fp)
800258c4: 1c 00 c3 8f  	lw	$3, 0x1c($fp)
800258c8: 25 e8 c0 03  	move	$sp, $fp
800258cc: 40 00 be 8f  	lw	$fp, 0x40($sp)
800258d0: 44 00 bf 8f  	lw	$ra, 0x44($sp)
800258d4: 48 00 bd 27  	addiu	$sp, $sp, 0x48
800258d8: 08 00 e0 03  	jr	$ra
800258dc: 00 00 00 00  	nop
800258e0: c8 ff bd 27  	addiu	$sp, $sp, -0x38
800258e4: 34 00 bf af  	sw	$ra, 0x34($sp)
800258e8: 30 00 be af  	sw	$fp, 0x30($sp)
800258ec: 25 f0 a0 03  	move	$fp, $sp
800258f0: 25 08 80 00  	move	$1, $4
800258f4: 18 00 c1 af  	sw	$1, 0x18($fp)
800258f8: 20 00 c1 af  	sw	$1, 0x20($fp)
800258fc: 00 00 22 8c  	lw	$2, 0x0($1)
80025900: 14 00 c2 af  	sw	$2, 0x14($fp)
80025904: 28 00 c2 af  	sw	$2, 0x28($fp)
80025908: 04 00 22 24  	addiu	$2, $1, 0x4
8002590c: 2c 00 c2 af  	sw	$2, 0x2c($fp)
80025910: 04 00 24 8c  	lw	$4, 0x4($1)
80025914: 24 00 c4 af  	sw	$4, 0x24($fp)
80025918: 00 00 25 8c  	lw	$5, 0x0($1)
8002591c: 75 ba 00 0c  	jal	0x2e9d4 <.text+0xe9d4>
80025920: 00 00 00 00  	nop
80025924: 14 00 c4 8f  	lw	$4, 0x14($fp)
80025928: 1c 00 c2 af  	sw	$2, 0x1c($fp)
8002592c: 1c 00 c5 8f  	lw	$5, 0x1c($fp)
80025930: 7d a1 00 0c  	jal	0x285f4 <.text+0x85f4>
80025934: 00 00 00 00  	nop
80025938: 25 e8 c0 03  	move	$sp, $fp
8002593c: 30 00 be 8f  	lw	$fp, 0x30($sp)
80025940: 34 00 bf 8f  	lw	$ra, 0x34($sp)
80025944: 38 00 bd 27  	addiu	$sp, $sp, 0x38
80025948: 08 00 e0 03  	jr	$ra
8002594c: 00 00 00 00  	nop
80025950: b8 ff bd 27  	addiu	$sp, $sp, -0x48
80025954: 44 00 bf af  	sw	$ra, 0x44($sp)
80025958: 40 00 be af  	sw	$fp, 0x40($sp)
8002595c: 25 f0 a0 03  	move	$fp, $sp
80025960: 10 00 c5 af  	sw	$5, 0x10($fp)
80025964: 24 00 c4 af  	sw	$4, 0x24($fp)
80025968: 28 00 c5 af  	sw	$5, 0x28($fp)
8002596c: 2c 00 c5 af  	sw	$5, 0x2c($fp)
80025970: ef ba 00 0c  	jal	0x2ebbc <.text+0xebbc>
80025974: 00 00 00 00  	nop
80025978: 25 20 40 00  	move	$4, $2
8002597c: 25 28 60 00  	move	$5, $3
80025980: 65 ba 00 0c  	jal	0x2e994 <.text+0xe994>
80025984: 00 00 00 00  	nop
80025988: 25 08 40 00  	move	$1, $2
8002598c: 14 00 c1 af  	sw	$1, 0x14($fp)
80025990: 30 00 c2 af  	sw	$2, 0x30($fp)
80025994: 67 96 00 08  	j	0x2599c <.text+0x599c>
80025998: 00 00 00 00  	nop
8002599c: 14 00 c1 8f  	lw	$1, 0x14($fp)
800259a0: 10 00 c2 8f  	lw	$2, 0x10($fp)
800259a4: 34 00 c1 af  	sw	$1, 0x34($fp)
800259a8: 38 00 c1 af  	sw	$1, 0x38($fp)
800259ac: 3c 00 c2 af  	sw	$2, 0x3c($fp)
800259b0: 21 08 22 00  	addu	$1, $1, $2
800259b4: 20 00 c1 af  	sw	$1, 0x20($fp)
800259b8: 70 96 00 08  	j	0x259c0 <.text+0x59c0>
800259bc: 00 00 00 00  	nop
800259c0: 14 00 c2 8f  	lw	$2, 0x14($fp)
800259c4: 20 00 c1 8f  	lw	$1, 0x20($fp)
800259c8: 18 00 c2 af  	sw	$2, 0x18($fp)
800259cc: 1c 00 c1 af  	sw	$1, 0x1c($fp)
800259d0: 18 00 c2 8f  	lw	$2, 0x18($fp)
800259d4: 1c 00 c3 8f  	lw	$3, 0x1c($fp)
800259d8: 25 e8 c0 03  	move	$sp, $fp
800259dc: 40 00 be 8f  	lw	$fp, 0x40($sp)
800259e0: 44 00 bf 8f  	lw	$ra, 0x44($sp)
800259e4: 48 00 bd 27  	addiu	$sp, $sp, 0x48
800259e8: 08 00 e0 03  	jr	$ra
800259ec: 00 00 00 00  	nop
800259f0: e8 ff bd 27  	addiu	$sp, $sp, -0x18
800259f4: 14 00 bf af  	sw	$ra, 0x14($sp)
800259f8: 10 00 be af  	sw	$fp, 0x10($sp)
800259fc: 25 f0 a0 03  	move	$fp, $sp
80025a00: 25 10 80 00  	move	$2, $4
80025a04: 04 00 c5 af  	sw	$5, 0x4($fp)
80025a08: 08 00 c6 af  	sw	$6, 0x8($fp)
80025a0c: 0c 00 c7 af  	sw	$7, 0xc($fp)
80025a10: 00 00 85 ac  	sw	$5, 0x0($4)
80025a14: 04 00 86 ac  	sw	$6, 0x4($4)
80025a18: 08 00 87 ac  	sw	$7, 0x8($4)
80025a1c: 25 e8 c0 03  	move	$sp, $fp
80025a20: 10 00 be 8f  	lw	$fp, 0x10($sp)
80025a24: 14 00 bf 8f  	lw	$ra, 0x14($sp)
80025a28: 18 00 bd 27  	addiu	$sp, $sp, 0x18
80025a2c: 08 00 e0 03  	jr	$ra
80025a30: 00 00 00 00  	nop
80025a34: a8 ff bd 27  	addiu	$sp, $sp, -0x58
80025a38: 54 00 bf af  	sw	$ra, 0x54($sp)
80025a3c: 50 00 be af  	sw	$fp, 0x50($sp)
80025a40: 25 f0 a0 03  	move	$fp, $sp
80025a44: 25 08 80 00  	move	$1, $4
80025a48: 1c 00 c1 af  	sw	$1, 0x1c($fp)
80025a4c: 38 00 c1 af  	sw	$1, 0x38($fp)
80025a50: 00 00 24 8c  	lw	$4, 0x0($1)
80025a54: 04 00 25 8c  	lw	$5, 0x4($1)
80025a58: dd a1 00 0c  	jal	0x28774 <.text+0x8774>
80025a5c: 00 00 00 00  	nop
80025a60: 23 00 40 14  	bnez	$2, 0x80025af0 <.text+0x5af0>
80025a64: 00 00 00 00  	nop
80025a68: 9c 96 00 08  	j	0x25a70 <.text+0x5a70>
80025a6c: 00 00 00 00  	nop
80025a70: 1c 00 c1 8f  	lw	$1, 0x1c($fp)
80025a74: 04 00 24 8c  	lw	$4, 0x4($1)
80025a78: 08 00 25 8c  	lw	$5, 0x8($1)
80025a7c: 81 9b 00 0c  	jal	0x26e04 <.text+0x6e04>
80025a80: 00 00 00 00  	nop
80025a84: 1c 00 c1 8f  	lw	$1, 0x1c($fp)
80025a88: 25 38 40 00  	move	$7, $2
80025a8c: 3c 00 c7 af  	sw	$7, 0x3c($fp)
80025a90: 00 00 25 8c  	lw	$5, 0x0($1)
80025a94: 04 00 26 8c  	lw	$6, 0x4($1)
80025a98: 03 80 01 3c  	lui	$1, 0x8003
80025a9c: 74 0d 21 24  	addiu	$1, $1, 0xd74
80025aa0: 25 10 a0 03  	move	$2, $sp
80025aa4: 10 00 41 ac  	sw	$1, 0x10($2)
80025aa8: 28 00 c4 27  	addiu	$4, $fp, 0x28
80025aac: 0c a3 00 0c  	jal	0x28c30 <.text+0x8c30>
80025ab0: 00 00 00 00  	nop
80025ab4: 1c 00 c4 8f  	lw	$4, 0x1c($fp)
80025ab8: 28 00 c2 8f  	lw	$2, 0x28($fp)
80025abc: 2c 00 c1 8f  	lw	$1, 0x2c($fp)
80025ac0: 40 00 c2 af  	sw	$2, 0x40($fp)
80025ac4: 44 00 c1 af  	sw	$1, 0x44($fp)
80025ac8: 30 00 c5 8f  	lw	$5, 0x30($fp)
80025acc: 34 00 c3 8f  	lw	$3, 0x34($fp)
80025ad0: 48 00 c5 af  	sw	$5, 0x48($fp)
80025ad4: 4c 00 c3 af  	sw	$3, 0x4c($fp)
80025ad8: 00 00 85 ac  	sw	$5, 0x0($4)
80025adc: 04 00 83 ac  	sw	$3, 0x4($4)
80025ae0: 20 00 c2 af  	sw	$2, 0x20($fp)
80025ae4: 24 00 c1 af  	sw	$1, 0x24($fp)
80025ae8: bf 96 00 08  	j	0x25afc <.text+0x5afc>
80025aec: 00 00 00 00  	nop
80025af0: 20 00 c0 af  	sw	$zero, 0x20($fp)
80025af4: bf 96 00 08  	j	0x25afc <.text+0x5afc>
80025af8: 00 00 00 00  	nop
80025afc: 20 00 c2 8f  	lw	$2, 0x20($fp)
80025b00: 24 00 c3 8f  	lw	$3, 0x24($fp)
80025b04: 25 e8 c0 03  	move	$sp, $fp
80025b08: 50 00 be 8f  	lw	$fp, 0x50($sp)
80025b0c: 54 00 bf 8f  	lw	$ra, 0x54($sp)
80025b10: 58 00 bd 27  	addiu	$sp, $sp, 0x58
80025b14: 08 00 e0 03  	jr	$ra
80025b18: 00 00 00 00  	nop
80025b1c: a0 ff bd 27  	addiu	$sp, $sp, -0x60
80025b20: 5c 00 bf af  	sw	$ra, 0x5c($sp)
80025b24: 58 00 be af  	sw	$fp, 0x58($sp)
80025b28: 25 f0 a0 03  	move	$fp, $sp
80025b2c: 10 00 c4 af  	sw	$4, 0x10($fp)
80025b30: 24 00 c4 af  	sw	$4, 0x24($fp)
80025b34: cf 96 00 08  	j	0x25b3c <.text+0x5b3c>
80025b38: 00 00 00 00  	nop
80025b3c: 10 00 c4 8f  	lw	$4, 0x10($fp)
80025b40: 04 00 81 24  	addiu	$1, $4, 0x4
80025b44: 30 00 c1 af  	sw	$1, 0x30($fp)
80025b48: 04 00 81 8c  	lw	$1, 0x4($4)
80025b4c: 1c 00 c1 af  	sw	$1, 0x1c($fp)
80025b50: 1c 00 c5 27  	addiu	$5, $fp, 0x1c
80025b54: dd ba 00 0c  	jal	0x2eb74 <.text+0xeb74>
80025b58: 00 00 00 00  	nop
80025b5c: 1b 00 c2 a3  	sb	$2, 0x1b($fp)
80025b60: da 96 00 08  	j	0x25b68 <.text+0x5b68>
80025b64: 00 00 00 00  	nop
80025b68: 1b 00 c1 93  	lbu	$1, 0x1b($fp)
80025b6c: 01 00 21 30  	andi	$1, $1, 0x1
80025b70: 1c 00 20 14  	bnez	$1, 0x80025be4 <.text+0x5be4>
80025b74: 00 00 00 00  	nop
80025b78: e0 96 00 08  	j	0x25b80 <.text+0x5b80>
80025b7c: 00 00 00 00  	nop
80025b80: 10 00 c3 8f  	lw	$3, 0x10($fp)
80025b84: 38 00 c3 af  	sw	$3, 0x38($fp)
80025b88: 01 00 04 24  	addiu	$4, $zero, 0x1
80025b8c: 3c 00 c4 af  	sw	$4, 0x3c($fp)
80025b90: 00 00 61 8c  	lw	$1, 0x0($3)
80025b94: 40 00 c1 af  	sw	$1, 0x40($fp)
80025b98: 04 00 62 24  	addiu	$2, $3, 0x4
80025b9c: 54 00 c2 af  	sw	$2, 0x54($fp)
80025ba0: 44 00 c2 af  	sw	$2, 0x44($fp)
80025ba4: 00 00 62 8c  	lw	$2, 0x0($3)
80025ba8: 4c 00 c2 af  	sw	$2, 0x4c($fp)
80025bac: 50 00 c4 af  	sw	$4, 0x50($fp)
80025bb0: 01 00 42 24  	addiu	$2, $2, 0x1
80025bb4: 48 00 c2 af  	sw	$2, 0x48($fp)
80025bb8: 48 00 c2 8f  	lw	$2, 0x48($fp)
80025bbc: 00 00 62 ac  	sw	$2, 0x0($3)
80025bc0: 20 00 c1 af  	sw	$1, 0x20($fp)
80025bc4: 20 00 c1 27  	addiu	$1, $fp, 0x20
80025bc8: 28 00 c1 af  	sw	$1, 0x28($fp)
80025bcc: 20 00 c1 8f  	lw	$1, 0x20($fp)
80025bd0: 2c 00 c1 af  	sw	$1, 0x2c($fp)
80025bd4: 34 00 c1 af  	sw	$1, 0x34($fp)
80025bd8: 14 00 c1 af  	sw	$1, 0x14($fp)
80025bdc: fc 96 00 08  	j	0x25bf0 <.text+0x5bf0>
80025be0: 00 00 00 00  	nop
80025be4: 14 00 c0 af  	sw	$zero, 0x14($fp)
80025be8: fc 96 00 08  	j	0x25bf0 <.text+0x5bf0>
80025bec: 00 00 00 00  	nop
80025bf0: 14 00 c2 8f  	lw	$2, 0x14($fp)
80025bf4: 25 e8 c0 03  	move	$sp, $fp
80025bf8: 58 00 be 8f  	lw	$fp, 0x58($sp)
80025bfc: 5c 00 bf 8f  	lw	$ra, 0x5c($sp)
80025c00: 60 00 bd 27  	addiu	$sp, $sp, 0x60
80025c04: 08 00 e0 03  	jr	$ra
80025c08: 00 00 00 00  	nop
80025c0c: a0 ff bd 27  	addiu	$sp, $sp, -0x60
80025c10: 5c 00 bf af  	sw	$ra, 0x5c($sp)
80025c14: 58 00 be af  	sw	$fp, 0x58($sp)
80025c18: 25 f0 a0 03  	move	$fp, $sp
80025c1c: 10 00 c4 af  	sw	$4, 0x10($fp)
80025c20: 24 00 c4 af  	sw	$4, 0x24($fp)
80025c24: 0b 97 00 08  	j	0x25c2c <.text+0x5c2c>
80025c28: 00 00 00 00  	nop
80025c2c: 10 00 c4 8f  	lw	$4, 0x10($fp)
80025c30: 04 00 81 24  	addiu	$1, $4, 0x4
80025c34: 30 00 c1 af  	sw	$1, 0x30($fp)
80025c38: 04 00 81 8c  	lw	$1, 0x4($4)
80025c3c: 1c 00 c1 af  	sw	$1, 0x1c($fp)
80025c40: 1c 00 c5 27  	addiu	$5, $fp, 0x1c
80025c44: 83 ba 00 0c  	jal	0x2ea0c <.text+0xea0c>
80025c48: 00 00 00 00  	nop
80025c4c: 1b 00 c2 a3  	sb	$2, 0x1b($fp)
80025c50: 16 97 00 08  	j	0x25c58 <.text+0x5c58>
80025c54: 00 00 00 00  	nop
80025c58: 1b 00 c1 93  	lbu	$1, 0x1b($fp)
80025c5c: 01 00 21 30  	andi	$1, $1, 0x1
80025c60: 1c 00 20 14  	bnez	$1, 0x80025cd4 <.text+0x5cd4>
80025c64: 00 00 00 00  	nop
80025c68: 1c 97 00 08  	j	0x25c70 <.text+0x5c70>
80025c6c: 00 00 00 00  	nop
80025c70: 10 00 c3 8f  	lw	$3, 0x10($fp)
80025c74: 38 00 c3 af  	sw	$3, 0x38($fp)
80025c78: 01 00 04 24  	addiu	$4, $zero, 0x1
80025c7c: 3c 00 c4 af  	sw	$4, 0x3c($fp)
80025c80: 00 00 61 8c  	lw	$1, 0x0($3)
80025c84: 40 00 c1 af  	sw	$1, 0x40($fp)
80025c88: 04 00 62 24  	addiu	$2, $3, 0x4
80025c8c: 54 00 c2 af  	sw	$2, 0x54($fp)
80025c90: 44 00 c2 af  	sw	$2, 0x44($fp)
80025c94: 00 00 62 8c  	lw	$2, 0x0($3)
80025c98: 4c 00 c2 af  	sw	$2, 0x4c($fp)
80025c9c: 50 00 c4 af  	sw	$4, 0x50($fp)
80025ca0: 10 00 42 24  	addiu	$2, $2, 0x10
80025ca4: 48 00 c2 af  	sw	$2, 0x48($fp)
80025ca8: 48 00 c2 8f  	lw	$2, 0x48($fp)
80025cac: 00 00 62 ac  	sw	$2, 0x0($3)
80025cb0: 20 00 c1 af  	sw	$1, 0x20($fp)
80025cb4: 20 00 c1 27  	addiu	$1, $fp, 0x20
80025cb8: 28 00 c1 af  	sw	$1, 0x28($fp)
80025cbc: 20 00 c1 8f  	lw	$1, 0x20($fp)
80025cc0: 2c 00 c1 af  	sw	$1, 0x2c($fp)
80025cc4: 34 00 c1 af  	sw	$1, 0x34($fp)
80025cc8: 14 00 c1 af  	sw	$1, 0x14($fp)
80025ccc: 38 97 00 08  	j	0x25ce0 <.text+0x5ce0>
80025cd0: 00 00 00 00  	nop
80025cd4: 14 00 c0 af  	sw	$zero, 0x14($fp)
80025cd8: 38 97 00 08  	j	0x25ce0 <.text+0x5ce0>
80025cdc: 00 00 00 00  	nop
80025ce0: 14 00 c2 8f  	lw	$2, 0x14($fp)
80025ce4: 25 e8 c0 03  	move	$sp, $fp
80025ce8: 58 00 be 8f  	lw	$fp, 0x58($sp)
80025cec: 5c 00 bf 8f  	lw	$ra, 0x5c($sp)
80025cf0: 60 00 bd 27  	addiu	$sp, $sp, 0x60
80025cf4: 08 00 e0 03  	jr	$ra
80025cf8: 00 00 00 00  	nop
80025cfc: a0 ff bd 27  	addiu	$sp, $sp, -0x60
80025d00: 5c 00 bf af  	sw	$ra, 0x5c($sp)
80025d04: 58 00 be af  	sw	$fp, 0x58($sp)
80025d08: 25 f0 a0 03  	move	$fp, $sp
80025d0c: 10 00 c4 af  	sw	$4, 0x10($fp)
80025d10: 24 00 c4 af  	sw	$4, 0x24($fp)
80025d14: 47 97 00 08  	j	0x25d1c <.text+0x5d1c>
80025d18: 00 00 00 00  	nop
80025d1c: 10 00 c4 8f  	lw	$4, 0x10($fp)
80025d20: 04 00 81 24  	addiu	$1, $4, 0x4
80025d24: 30 00 c1 af  	sw	$1, 0x30($fp)
80025d28: 04 00 81 8c  	lw	$1, 0x4($4)
80025d2c: 1c 00 c1 af  	sw	$1, 0x1c($fp)
80025d30: 1c 00 c5 27  	addiu	$5, $fp, 0x1c
80025d34: a7 ba 00 0c  	jal	0x2ea9c <.text+0xea9c>
80025d38: 00 00 00 00  	nop
80025d3c: 1b 00 c2 a3  	sb	$2, 0x1b($fp)
80025d40: 52 97 00 08  	j	0x25d48 <.text+0x5d48>
80025d44: 00 00 00 00  	nop
80025d48: 1b 00 c1 93  	lbu	$1, 0x1b($fp)
80025d4c: 01 00 21 30  	andi	$1, $1, 0x1
80025d50: 1c 00 20 14  	bnez	$1, 0x80025dc4 <.text+0x5dc4>
80025d54: 00 00 00 00  	nop
80025d58: 58 97 00 08  	j	0x25d60 <.text+0x5d60>
80025d5c: 00 00 00 00  	nop
80025d60: 10 00 c3 8f  	lw	$3, 0x10($fp)
80025d64: 38 00 c3 af  	sw	$3, 0x38($fp)
80025d68: 01 00 04 24  	addiu	$4, $zero, 0x1
80025d6c: 3c 00 c4 af  	sw	$4, 0x3c($fp)
80025d70: 00 00 61 8c  	lw	$1, 0x0($3)
80025d74: 40 00 c1 af  	sw	$1, 0x40($fp)
80025d78: 04 00 62 24  	addiu	$2, $3, 0x4
80025d7c: 54 00 c2 af  	sw	$2, 0x54($fp)
80025d80: 44 00 c2 af  	sw	$2, 0x44($fp)
80025d84: 00 00 62 8c  	lw	$2, 0x0($3)
80025d88: 4c 00 c2 af  	sw	$2, 0x4c($fp)
80025d8c: 50 00 c4 af  	sw	$4, 0x50($fp)
80025d90: 20 00 42 24  	addiu	$2, $2, 0x20
80025d94: 48 00 c2 af  	sw	$2, 0x48($fp)
80025d98: 48 00 c2 8f  	lw	$2, 0x48($fp)
80025d9c: 00 00 62 ac  	sw	$2, 0x0($3)
80025da0: 20 00 c1 af  	sw	$1, 0x20($fp)
80025da4: 20 00 c1 27  	addiu	$1, $fp, 0x20
80025da8: 28 00 c1 af  	sw	$1, 0x28($fp)
80025dac: 20 00 c1 8f  	lw	$1, 0x20($fp)
80025db0: 2c 00 c1 af  	sw	$1, 0x2c($fp)
80025db4: 34 00 c1 af  	sw	$1, 0x34($fp)
80025db8: 14 00 c1 af  	sw	$1, 0x14($fp)
80025dbc: 74 97 00 08  	j	0x25dd0 <.text+0x5dd0>
80025dc0: 00 00 00 00  	nop
80025dc4: 14 00 c0 af  	sw	$zero, 0x14($fp)
80025dc8: 74 97 00 08  	j	0x25dd0 <.text+0x5dd0>
80025dcc: 00 00 00 00  	nop
80025dd0: 14 00 c2 8f  	lw	$2, 0x14($fp)
80025dd4: 25 e8 c0 03  	move	$sp, $fp
80025dd8: 58 00 be 8f  	lw	$fp, 0x58($sp)
80025ddc: 5c 00 bf 8f  	lw	$ra, 0x5c($sp)
80025de0: 60 00 bd 27  	addiu	$sp, $sp, 0x60
80025de4: 08 00 e0 03  	jr	$ra
80025de8: 00 00 00 00  	nop
80025dec: a0 ff bd 27  	addiu	$sp, $sp, -0x60
80025df0: 5c 00 bf af  	sw	$ra, 0x5c($sp)
80025df4: 58 00 be af  	sw	$fp, 0x58($sp)
80025df8: 25 f0 a0 03  	move	$fp, $sp
80025dfc: 10 00 c4 af  	sw	$4, 0x10($fp)
80025e00: 24 00 c4 af  	sw	$4, 0x24($fp)
80025e04: 83 97 00 08  	j	0x25e0c <.text+0x5e0c>
80025e08: 00 00 00 00  	nop
80025e0c: 10 00 c4 8f  	lw	$4, 0x10($fp)
80025e10: 04 00 81 24  	addiu	$1, $4, 0x4
80025e14: 30 00 c1 af  	sw	$1, 0x30($fp)
80025e18: 04 00 81 8c  	lw	$1, 0x4($4)
80025e1c: 1c 00 c1 af  	sw	$1, 0x1c($fp)
80025e20: 1c 00 c5 27  	addiu	$5, $fp, 0x1c
80025e24: cb ba 00 0c  	jal	0x2eb2c <.text+0xeb2c>
80025e28: 00 00 00 00  	nop
80025e2c: 1b 00 c2 a3  	sb	$2, 0x1b($fp)
80025e30: 8e 97 00 08  	j	0x25e38 <.text+0x5e38>
80025e34: 00 00 00 00  	nop
80025e38: 1b 00 c1 93  	lbu	$1, 0x1b($fp)
80025e3c: 01 00 21 30  	andi	$1, $1, 0x1
80025e40: 1c 00 20 14  	bnez	$1, 0x80025eb4 <.text+0x5eb4>
80025e44: 00 00 00 00  	nop
80025e48: 94 97 00 08  	j	0x25e50 <.text+0x5e50>
80025e4c: 00 00 00 00  	nop
80025e50: 10 00 c3 8f  	lw	$3, 0x10($fp)
80025e54: 38 00 c3 af  	sw	$3, 0x38($fp)
80025e58: 01 00 04 24  	addiu	$4, $zero, 0x1
80025e5c: 3c 00 c4 af  	sw	$4, 0x3c($fp)
80025e60: 00 00 61 8c  	lw	$1, 0x0($3)
80025e64: 40 00 c1 af  	sw	$1, 0x40($fp)
80025e68: 04 00 62 24  	addiu	$2, $3, 0x4
80025e6c: 54 00 c2 af  	sw	$2, 0x54($fp)
80025e70: 44 00 c2 af  	sw	$2, 0x44($fp)
80025e74: 00 00 62 8c  	lw	$2, 0x0($3)
80025e78: 4c 00 c2 af  	sw	$2, 0x4c($fp)
80025e7c: 50 00 c4 af  	sw	$4, 0x50($fp)
80025e80: 08 00 42 24  	addiu	$2, $2, 0x8
80025e84: 48 00 c2 af  	sw	$2, 0x48($fp)
80025e88: 48 00 c2 8f  	lw	$2, 0x48($fp)
80025e8c: 00 00 62 ac  	sw	$2, 0x0($3)
80025e90: 20 00 c1 af  	sw	$1, 0x20($fp)
80025e94: 20 00 c1 27  	addiu	$1, $fp, 0x20
80025e98: 28 00 c1 af  	sw	$1, 0x28($fp)
80025e9c: 20 00 c1 8f  	lw	$1, 0x20($fp)
80025ea0: 2c 00 c1 af  	sw	$1, 0x2c($fp)
80025ea4: 34 00 c1 af  	sw	$1, 0x34($fp)
80025ea8: 14 00 c1 af  	sw	$1, 0x14($fp)
80025eac: b0 97 00 08  	j	0x25ec0 <.text+0x5ec0>
80025eb0: 00 00 00 00  	nop
80025eb4: 14 00 c0 af  	sw	$zero, 0x14($fp)
80025eb8: b0 97 00 08  	j	0x25ec0 <.text+0x5ec0>
80025ebc: 00 00 00 00  	nop
80025ec0: 14 00 c2 8f  	lw	$2, 0x14($fp)
80025ec4: 25 e8 c0 03  	move	$sp, $fp
80025ec8: 58 00 be 8f  	lw	$fp, 0x58($sp)
80025ecc: 5c 00 bf 8f  	lw	$ra, 0x5c($sp)
80025ed0: 60 00 bd 27  	addiu	$sp, $sp, 0x60
80025ed4: 08 00 e0 03  	jr	$ra
80025ed8: 00 00 00 00  	nop
80025edc: a0 ff bd 27  	addiu	$sp, $sp, -0x60
80025ee0: 5c 00 bf af  	sw	$ra, 0x5c($sp)
80025ee4: 58 00 be af  	sw	$fp, 0x58($sp)
80025ee8: 25 f0 a0 03  	move	$fp, $sp
80025eec: 10 00 c4 af  	sw	$4, 0x10($fp)
80025ef0: 24 00 c4 af  	sw	$4, 0x24($fp)
80025ef4: bf 97 00 08  	j	0x25efc <.text+0x5efc>
80025ef8: 00 00 00 00  	nop
80025efc: 10 00 c4 8f  	lw	$4, 0x10($fp)
80025f00: 04 00 81 24  	addiu	$1, $4, 0x4
80025f04: 30 00 c1 af  	sw	$1, 0x30($fp)
80025f08: 04 00 81 8c  	lw	$1, 0x4($4)
80025f0c: 1c 00 c1 af  	sw	$1, 0x1c($fp)
80025f10: 1c 00 c5 27  	addiu	$5, $fp, 0x1c
80025f14: b9 ba 00 0c  	jal	0x2eae4 <.text+0xeae4>
80025f18: 00 00 00 00  	nop
80025f1c: 1b 00 c2 a3  	sb	$2, 0x1b($fp)
80025f20: ca 97 00 08  	j	0x25f28 <.text+0x5f28>
80025f24: 00 00 00 00  	nop
80025f28: 1b 00 c1 93  	lbu	$1, 0x1b($fp)
80025f2c: 01 00 21 30  	andi	$1, $1, 0x1
80025f30: 1c 00 20 14  	bnez	$1, 0x80025fa4 <.text+0x5fa4>
80025f34: 00 00 00 00  	nop
80025f38: d0 97 00 08  	j	0x25f40 <.text+0x5f40>
80025f3c: 00 00 00 00  	nop
80025f40: 10 00 c3 8f  	lw	$3, 0x10($fp)
80025f44: 38 00 c3 af  	sw	$3, 0x38($fp)
80025f48: 01 00 04 24  	addiu	$4, $zero, 0x1
80025f4c: 3c 00 c4 af  	sw	$4, 0x3c($fp)
80025f50: 00 00 61 8c  	lw	$1, 0x0($3)
80025f54: 40 00 c1 af  	sw	$1, 0x40($fp)
80025f58: 04 00 62 24  	addiu	$2, $3, 0x4
80025f5c: 54 00 c2 af  	sw	$2, 0x54($fp)
80025f60: 44 00 c2 af  	sw	$2, 0x44($fp)
80025f64: 00 00 62 8c  	lw	$2, 0x0($3)
80025f68: 4c 00 c2 af  	sw	$2, 0x4c($fp)
80025f6c: 50 00 c4 af  	sw	$4, 0x50($fp)
80025f70: 04 00 42 24  	addiu	$2, $2, 0x4
80025f74: 48 00 c2 af  	sw	$2, 0x48($fp)
80025f78: 48 00 c2 8f  	lw	$2, 0x48($fp)
80025f7c: 00 00 62 ac  	sw	$2, 0x0($3)
80025f80: 20 00 c1 af  	sw	$1, 0x20($fp)
80025f84: 20 00 c1 27  	addiu	$1, $fp, 0x20
80025f88: 28 00 c1 af  	sw	$1, 0x28($fp)
80025f8c: 20 00 c1 8f  	lw	$1, 0x20($fp)
80025f90: 2c 00 c1 af  	sw	$1, 0x2c($fp)
80025f94: 34 00 c1 af  	sw	$1, 0x34($fp)
80025f98: 14 00 c1 af  	sw	$1, 0x14($fp)
80025f9c: ec 97 00 08  	j	0x25fb0 <.text+0x5fb0>
80025fa0: 00 00 00 00  	nop
80025fa4: 14 00 c0 af  	sw	$zero, 0x14($fp)
80025fa8: ec 97 00 08  	j	0x25fb0 <.text+0x5fb0>
80025fac: 00 00 00 00  	nop
80025fb0: 14 00 c2 8f  	lw	$2, 0x14($fp)
80025fb4: 25 e8 c0 03  	move	$sp, $fp
80025fb8: 58 00 be 8f  	lw	$fp, 0x58($sp)
80025fbc: 5c 00 bf 8f  	lw	$ra, 0x5c($sp)
80025fc0: 60 00 bd 27  	addiu	$sp, $sp, 0x60
80025fc4: 08 00 e0 03  	jr	$ra
80025fc8: 00 00 00 00  	nop
80025fcc: 90 ff bd 27  	addiu	$sp, $sp, -0x70
80025fd0: 6c 00 bf af  	sw	$ra, 0x6c($sp)
80025fd4: 68 00 be af  	sw	$fp, 0x68($sp)
80025fd8: 25 f0 a0 03  	move	$fp, $sp
80025fdc: 10 00 c6 af  	sw	$6, 0x10($fp)
80025fe0: 14 00 c4 af  	sw	$4, 0x14($fp)
80025fe4: 18 00 c5 af  	sw	$5, 0x18($fp)
80025fe8: 40 00 c6 af  	sw	$6, 0x40($fp)
80025fec: fd 97 00 08  	j	0x25ff4 <.text+0x5ff4>
80025ff0: 00 00 00 00  	nop
80025ff4: 14 00 c4 27  	addiu	$4, $fp, 0x14
80025ff8: 04 00 81 24  	addiu	$1, $4, 0x4
80025ffc: 5c 00 c1 af  	sw	$1, 0x5c($fp)
80026000: 18 00 c1 8f  	lw	$1, 0x18($fp)
80026004: 28 00 c1 af  	sw	$1, 0x28($fp)
80026008: 28 00 c5 27  	addiu	$5, $fp, 0x28
8002600c: dd ba 00 0c  	jal	0x2eb74 <.text+0xeb74>
80026010: 00 00 00 00  	nop
80026014: 27 00 c2 a3  	sb	$2, 0x27($fp)
80026018: 08 98 00 08  	j	0x26020 <.text+0x6020>
8002601c: 00 00 00 00  	nop
80026020: 27 00 c1 93  	lbu	$1, 0x27($fp)
80026024: 01 00 21 30  	andi	$1, $1, 0x1
80026028: 08 00 20 14  	bnez	$1, 0x8002604c <.text+0x604c>
8002602c: 00 00 00 00  	nop
80026030: 0e 98 00 08  	j	0x26038 <.text+0x6038>
80026034: 00 00 00 00  	nop
80026038: 10 00 c1 8f  	lw	$1, 0x10($fp)
8002603c: 2c 00 c1 af  	sw	$1, 0x2c($fp)
80026040: 30 00 c0 af  	sw	$zero, 0x30($fp)
80026044: 17 98 00 08  	j	0x2605c <.text+0x605c>
80026048: 00 00 00 00  	nop
8002604c: 10 00 c1 8f  	lw	$1, 0x10($fp)
80026050: 20 00 c1 af  	sw	$1, 0x20($fp)
80026054: 43 98 00 08  	j	0x2610c <.text+0x610c>
80026058: 00 00 00 00  	nop
8002605c: 14 00 c1 27  	addiu	$1, $fp, 0x14
80026060: 04 00 21 24  	addiu	$1, $1, 0x4
80026064: 58 00 c1 af  	sw	$1, 0x58($fp)
80026068: 18 00 c4 8f  	lw	$4, 0x18($fp)
8002606c: 44 00 c4 af  	sw	$4, 0x44($fp)
80026070: 14 00 c5 8f  	lw	$5, 0x14($fp)
80026074: 75 ba 00 0c  	jal	0x2e9d4 <.text+0xe9d4>
80026078: 00 00 00 00  	nop
8002607c: 34 00 c2 af  	sw	$2, 0x34($fp)
80026080: 22 98 00 08  	j	0x26088 <.text+0x6088>
80026084: 00 00 00 00  	nop
80026088: 2c 00 c2 8f  	lw	$2, 0x2c($fp)
8002608c: 14 00 c1 8f  	lw	$1, 0x14($fp)
80026090: 30 00 c3 8f  	lw	$3, 0x30($fp)
80026094: 50 00 c1 af  	sw	$1, 0x50($fp)
80026098: 54 00 c3 af  	sw	$3, 0x54($fp)
8002609c: 21 08 23 00  	addu	$1, $1, $3
800260a0: 4c 00 c1 af  	sw	$1, 0x4c($fp)
800260a4: 4c 00 c1 8f  	lw	$1, 0x4c($fp)
800260a8: 48 00 c1 af  	sw	$1, 0x48($fp)
800260ac: 38 00 c2 af  	sw	$2, 0x38($fp)
800260b0: 3c 00 c1 af  	sw	$1, 0x3c($fp)
800260b4: 38 00 c5 8f  	lw	$5, 0x38($fp)
800260b8: 3c 00 c6 8f  	lw	$6, 0x3c($fp)
800260bc: 1f 00 c4 27  	addiu	$4, $fp, 0x1f
800260c0: d1 98 00 0c  	jal	0x26344 <.text+0x6344>
800260c4: 00 00 00 00  	nop
800260c8: 2c 00 c2 af  	sw	$2, 0x2c($fp)
800260cc: 30 00 c1 8f  	lw	$1, 0x30($fp)
800260d0: 60 00 c1 af  	sw	$1, 0x60($fp)
800260d4: 01 00 02 24  	addiu	$2, $zero, 0x1
800260d8: 64 00 c2 af  	sw	$2, 0x64($fp)
800260dc: 01 00 21 24  	addiu	$1, $1, 0x1
800260e0: 30 00 c1 af  	sw	$1, 0x30($fp)
800260e4: 30 00 c1 8f  	lw	$1, 0x30($fp)
800260e8: 34 00 c2 8f  	lw	$2, 0x34($fp)
800260ec: e6 ff 22 14  	bne	$1, $2, 0x80026088 <.text+0x6088>
800260f0: 00 00 00 00  	nop
800260f4: 3f 98 00 08  	j	0x260fc <.text+0x60fc>
800260f8: 00 00 00 00  	nop
800260fc: 2c 00 c1 8f  	lw	$1, 0x2c($fp)
80026100: 20 00 c1 af  	sw	$1, 0x20($fp)
80026104: 43 98 00 08  	j	0x2610c <.text+0x610c>
80026108: 00 00 00 00  	nop
8002610c: 20 00 c2 8f  	lw	$2, 0x20($fp)
80026110: 25 e8 c0 03  	move	$sp, $fp
80026114: 68 00 be 8f  	lw	$fp, 0x68($sp)
80026118: 6c 00 bf 8f  	lw	$ra, 0x6c($sp)
8002611c: 70 00 bd 27  	addiu	$sp, $sp, 0x70
80026120: 08 00 e0 03  	jr	$ra
80026124: 00 00 00 00  	nop
80026128: 98 ff bd 27  	addiu	$sp, $sp, -0x68
8002612c: 64 00 bf af  	sw	$ra, 0x64($sp)
80026130: 60 00 be af  	sw	$fp, 0x60($sp)
80026134: 25 f0 a0 03  	move	$fp, $sp
80026138: 10 00 c4 af  	sw	$4, 0x10($fp)
8002613c: 24 00 c4 af  	sw	$4, 0x24($fp)
80026140: 52 98 00 08  	j	0x26148 <.text+0x6148>
80026144: 00 00 00 00  	nop
80026148: 10 00 c4 8f  	lw	$4, 0x10($fp)
8002614c: 04 00 81 24  	addiu	$1, $4, 0x4
80026150: 30 00 c1 af  	sw	$1, 0x30($fp)
80026154: 04 00 81 8c  	lw	$1, 0x4($4)
80026158: 1c 00 c1 af  	sw	$1, 0x1c($fp)
8002615c: 1c 00 c5 27  	addiu	$5, $fp, 0x1c
80026160: 95 ba 00 0c  	jal	0x2ea54 <.text+0xea54>
80026164: 00 00 00 00  	nop
80026168: 1b 00 c2 a3  	sb	$2, 0x1b($fp)
8002616c: 5d 98 00 08  	j	0x26174 <.text+0x6174>
80026170: 00 00 00 00  	nop
80026174: 1b 00 c1 93  	lbu	$1, 0x1b($fp)
80026178: 01 00 21 30  	andi	$1, $1, 0x1
8002617c: 21 00 20 14  	bnez	$1, 0x80026204 <.text+0x6204>
80026180: 00 00 00 00  	nop
80026184: 63 98 00 08  	j	0x2618c <.text+0x618c>
80026188: 00 00 00 00  	nop
8002618c: 10 00 c1 8f  	lw	$1, 0x10($fp)
80026190: 38 00 c1 af  	sw	$1, 0x38($fp)
80026194: 01 00 03 24  	addiu	$3, $zero, 0x1
80026198: 3c 00 c3 af  	sw	$3, 0x3c($fp)
8002619c: 04 00 22 24  	addiu	$2, $1, 0x4
800261a0: 5c 00 c2 af  	sw	$2, 0x5c($fp)
800261a4: 40 00 c2 af  	sw	$2, 0x40($fp)
800261a8: 04 00 22 8c  	lw	$2, 0x4($1)
800261ac: 48 00 c2 af  	sw	$2, 0x48($fp)
800261b0: 4c 00 c3 af  	sw	$3, 0x4c($fp)
800261b4: 54 00 c2 af  	sw	$2, 0x54($fp)
800261b8: ff ff 03 24  	addiu	$3, $zero, -0x1
800261bc: 58 00 c3 af  	sw	$3, 0x58($fp)
800261c0: ff ff 42 24  	addiu	$2, $2, -0x1
800261c4: 50 00 c2 af  	sw	$2, 0x50($fp)
800261c8: 50 00 c2 8f  	lw	$2, 0x50($fp)
800261cc: 44 00 c2 af  	sw	$2, 0x44($fp)
800261d0: 44 00 c2 8f  	lw	$2, 0x44($fp)
800261d4: 04 00 22 ac  	sw	$2, 0x4($1)
800261d8: 04 00 21 8c  	lw	$1, 0x4($1)
800261dc: 34 00 c1 af  	sw	$1, 0x34($fp)
800261e0: 34 00 c1 8f  	lw	$1, 0x34($fp)
800261e4: 20 00 c1 af  	sw	$1, 0x20($fp)
800261e8: 20 00 c1 27  	addiu	$1, $fp, 0x20
800261ec: 28 00 c1 af  	sw	$1, 0x28($fp)
800261f0: 20 00 c1 8f  	lw	$1, 0x20($fp)
800261f4: 2c 00 c1 af  	sw	$1, 0x2c($fp)
800261f8: 14 00 c1 af  	sw	$1, 0x14($fp)
800261fc: 84 98 00 08  	j	0x26210 <.text+0x6210>
80026200: 00 00 00 00  	nop
80026204: 14 00 c0 af  	sw	$zero, 0x14($fp)
80026208: 84 98 00 08  	j	0x26210 <.text+0x6210>
8002620c: 00 00 00 00  	nop
80026210: 14 00 c2 8f  	lw	$2, 0x14($fp)
80026214: 25 e8 c0 03  	move	$sp, $fp
80026218: 60 00 be 8f  	lw	$fp, 0x60($sp)
8002621c: 64 00 bf 8f  	lw	$ra, 0x64($sp)
80026220: 68 00 bd 27  	addiu	$sp, $sp, 0x68
80026224: 08 00 e0 03  	jr	$ra
80026228: 00 00 00 00  	nop
8002622c: f0 ff bd 27  	addiu	$sp, $sp, -0x10
80026230: 0c 00 bf af  	sw	$ra, 0xc($sp)
80026234: 08 00 be af  	sw	$fp, 0x8($sp)
80026238: 25 f0 a0 03  	move	$fp, $sp
8002623c: 25 10 80 00  	move	$2, $4
80026240: 04 00 c2 af  	sw	$2, 0x4($fp)
80026244: 25 e8 c0 03  	move	$sp, $fp
80026248: 08 00 be 8f  	lw	$fp, 0x8($sp)
8002624c: 0c 00 bf 8f  	lw	$ra, 0xc($sp)
80026250: 10 00 bd 27  	addiu	$sp, $sp, 0x10
80026254: 08 00 e0 03  	jr	$ra
80026258: 00 00 00 00  	nop
8002625c: d8 ff bd 27  	addiu	$sp, $sp, -0x28
80026260: 24 00 bf af  	sw	$ra, 0x24($sp)
80026264: 20 00 be af  	sw	$fp, 0x20($sp)
80026268: 25 f0 a0 03  	move	$fp, $sp
8002626c: 18 00 c4 af  	sw	$4, 0x18($fp)
80026270: 8b 98 00 0c  	jal	0x2622c <.text+0x622c>
80026274: 00 00 00 00  	nop
80026278: 14 00 c2 af  	sw	$2, 0x14($fp)
8002627c: 14 00 c1 8f  	lw	$1, 0x14($fp)
80026280: 09 00 20 14  	bnez	$1, 0x800262a8 <.text+0x62a8>
80026284: 00 00 00 00  	nop
80026288: a4 98 00 08  	j	0x26290 <.text+0x6290>
8002628c: 00 00 00 00  	nop
80026290: b4 a9 00 0c  	jal	0x2a6d0 <.text+0xa6d0>
80026294: 00 00 00 00  	nop
80026298: 0c 00 40 14  	bnez	$2, 0x800262cc <.text+0x62cc>
8002629c: 00 00 00 00  	nop
800262a0: b2 98 00 08  	j	0x262c8 <.text+0x62c8>
800262a4: 00 00 00 00  	nop
800262a8: 14 00 c2 8f  	lw	$2, 0x14($fp)
800262ac: 1c 00 c2 af  	sw	$2, 0x1c($fp)
800262b0: 25 e8 c0 03  	move	$sp, $fp
800262b4: 20 00 be 8f  	lw	$fp, 0x20($sp)
800262b8: 24 00 bf 8f  	lw	$ra, 0x24($sp)
800262bc: 28 00 bd 27  	addiu	$sp, $sp, 0x28
800262c0: 08 00 e0 03  	jr	$ra
800262c4: 00 00 00 00  	nop
800262c8: 0d 00 00 00  	break
800262cc: 11 99 00 0c  	jal	0x26444 <.text+0x6444>
800262d0: 00 00 00 00  	nop
800262d4: b2 98 00 08  	j	0x262c8 <.text+0x62c8>
800262d8: 00 00 00 00  	nop
800262dc: e0 ff bd 27  	addiu	$sp, $sp, -0x20
800262e0: 1c 00 bf af  	sw	$ra, 0x1c($sp)
800262e4: 18 00 be af  	sw	$fp, 0x18($sp)
800262e8: 25 f0 a0 03  	move	$fp, $sp
800262ec: 0c 00 c4 af  	sw	$4, 0xc($fp)
800262f0: 10 00 c5 af  	sw	$5, 0x10($fp)
800262f4: 04 00 c4 af  	sw	$4, 0x4($fp)
800262f8: 08 00 c5 af  	sw	$5, 0x8($fp)
800262fc: 04 00 c2 8f  	lw	$2, 0x4($fp)
80026300: 08 00 c3 8f  	lw	$3, 0x8($fp)
80026304: 25 e8 c0 03  	move	$sp, $fp
80026308: 18 00 be 8f  	lw	$fp, 0x18($sp)
8002630c: 1c 00 bf 8f  	lw	$ra, 0x1c($sp)
80026310: 20 00 bd 27  	addiu	$sp, $sp, 0x20
80026314: 08 00 e0 03  	jr	$ra
80026318: 00 00 00 00  	nop
8002631c: f0 ff bd 27  	addiu	$sp, $sp, -0x10
80026320: 0c 00 bf af  	sw	$ra, 0xc($sp)
80026324: 08 00 be af  	sw	$fp, 0x8($sp)
80026328: 25 f0 a0 03  	move	$fp, $sp
8002632c: 25 e8 c0 03  	move	$sp, $fp
80026330: 08 00 be 8f  	lw	$fp, 0x8($sp)
80026334: 0c 00 bf 8f  	lw	$ra, 0xc($sp)
80026338: 10 00 bd 27  	addiu	$sp, $sp, 0x10
8002633c: 08 00 e0 03  	jr	$ra
80026340: 00 00 00 00  	nop
80026344: c8 ff bd 27  	addiu	$sp, $sp, -0x38
80026348: 34 00 bf af  	sw	$ra, 0x34($sp)
8002634c: 30 00 be af  	sw	$fp, 0x30($sp)
80026350: 25 f0 a0 03  	move	$fp, $sp
80026354: 10 00 c5 af  	sw	$5, 0x10($fp)
80026358: 14 00 c4 af  	sw	$4, 0x14($fp)
8002635c: 24 00 c4 af  	sw	$4, 0x24($fp)
80026360: 28 00 c5 af  	sw	$5, 0x28($fp)
80026364: 2c 00 c6 af  	sw	$6, 0x2c($fp)
80026368: 20 00 c6 af  	sw	$6, 0x20($fp)
8002636c: 20 00 c5 8f  	lw	$5, 0x20($fp)
80026370: 68 b9 00 0c  	jal	0x2e5a0 <.text+0xe5a0>
80026374: 00 00 00 00  	nop
80026378: 10 00 c5 8f  	lw	$5, 0x10($fp)
8002637c: 14 00 c4 8f  	lw	$4, 0x14($fp)
80026380: 18 00 c5 af  	sw	$5, 0x18($fp)
80026384: 1c 00 c2 af  	sw	$2, 0x1c($fp)
80026388: 18 00 c5 8f  	lw	$5, 0x18($fp)
8002638c: 1c 00 c6 8f  	lw	$6, 0x1c($fp)
80026390: 18 be 00 0c  	jal	0x2f860 <.text+0xf860>
80026394: 00 00 00 00  	nop
80026398: 25 e8 c0 03  	move	$sp, $fp
8002639c: 30 00 be 8f  	lw	$fp, 0x30($sp)
800263a0: 34 00 bf 8f  	lw	$ra, 0x34($sp)
800263a4: 38 00 bd 27  	addiu	$sp, $sp, 0x38
800263a8: 08 00 e0 03  	jr	$ra
800263ac: 00 00 00 00  	nop
800263b0: c8 ff bd 27  	addiu	$sp, $sp, -0x38
800263b4: 34 00 bf af  	sw	$ra, 0x34($sp)
800263b8: 30 00 be af  	sw	$fp, 0x30($sp)
800263bc: 25 f0 a0 03  	move	$fp, $sp
800263c0: 1c 00 c6 af  	sw	$6, 0x1c($fp)
800263c4: 18 00 c5 af  	sw	$5, 0x18($fp)
800263c8: 14 00 c4 af  	sw	$4, 0x14($fp)
800263cc: 20 00 c4 af  	sw	$4, 0x20($fp)
800263d0: 24 00 c5 af  	sw	$5, 0x24($fp)
800263d4: 28 00 c6 af  	sw	$6, 0x28($fp)
800263d8: c7 98 00 0c  	jal	0x2631c <.text+0x631c>
800263dc: 00 00 00 00  	nop
800263e0: 14 00 c4 8f  	lw	$4, 0x14($fp)
800263e4: 18 00 c5 8f  	lw	$5, 0x18($fp)
800263e8: 1c 00 c6 8f  	lw	$6, 0x1c($fp)
800263ec: f3 97 00 0c  	jal	0x25fcc <.text+0x5fcc>
800263f0: 00 00 00 00  	nop
800263f4: 25 e8 c0 03  	move	$sp, $fp
800263f8: 30 00 be 8f  	lw	$fp, 0x30($sp)
800263fc: 34 00 bf 8f  	lw	$ra, 0x34($sp)
80026400: 38 00 bd 27  	addiu	$sp, $sp, 0x38
80026404: 08 00 e0 03  	jr	$ra
80026408: 00 00 00 00  	nop
8002640c: e0 ff bd 27  	addiu	$sp, $sp, -0x20
80026410: 1c 00 bf af  	sw	$ra, 0x1c($sp)
80026414: 18 00 be af  	sw	$fp, 0x18($sp)
80026418: 25 f0 a0 03  	move	$fp, $sp
8002641c: 10 00 c4 af  	sw	$4, 0x10($fp)
80026420: 14 00 c5 af  	sw	$5, 0x14($fp)
80026424: 09 be 00 0c  	jal	0x2f824 <.text+0xf824>
80026428: 00 00 00 00  	nop
8002642c: 25 e8 c0 03  	move	$sp, $fp
80026430: 18 00 be 8f  	lw	$fp, 0x18($sp)
80026434: 1c 00 bf 8f  	lw	$ra, 0x1c($sp)
80026438: 20 00 bd 27  	addiu	$sp, $sp, 0x20
8002643c: 08 00 e0 03  	jr	$ra
80026440: 00 00 00 00  	nop
80026444: e8 ff bd 27  	addiu	$sp, $sp, -0x18
80026448: 14 00 bf af  	sw	$ra, 0x14($sp)
8002644c: 10 00 be af  	sw	$fp, 0x10($sp)
80026450: 25 f0 a0 03  	move	$fp, $sp
80026454: 17 99 00 08  	j	0x2645c <.text+0x645c>
80026458: 00 00 00 00  	nop
8002645c: 03 80 01 3c  	lui	$1, 0x8003
80026460: 84 0d 24 24  	addiu	$4, $1, 0xd84
80026464: 5c 00 05 24  	addiu	$5, $zero, 0x5c
80026468: 57 b5 00 0c  	jal	0x2d55c <.text+0xd55c>
8002646c: 00 00 00 00  	nop
80026470: d8 ff bd 27  	addiu	$sp, $sp, -0x28
80026474: 24 00 bf af  	sw	$ra, 0x24($sp)
80026478: 20 00 be af  	sw	$fp, 0x20($sp)
8002647c: 25 f0 a0 03  	move	$fp, $sp
80026480: 10 00 c6 af  	sw	$6, 0x10($fp)
80026484: 18 00 c4 af  	sw	$4, 0x18($fp)
80026488: 1c 00 c5 af  	sw	$5, 0x1c($fp)
8002648c: 23 08 85 00  	subu	$1, $4, $5
80026490: 14 00 c1 af  	sw	$1, 0x14($fp)
80026494: 2b 08 85 00  	sltu	$1, $4, $5
80026498: 0a 00 20 14  	bnez	$1, 0x800264c4 <.text+0x64c4>
8002649c: 00 00 00 00  	nop
800264a0: 2a 99 00 08  	j	0x264a8 <.text+0x64a8>
800264a4: 00 00 00 00  	nop
800264a8: 14 00 c2 8f  	lw	$2, 0x14($fp)
800264ac: 25 e8 c0 03  	move	$sp, $fp
800264b0: 20 00 be 8f  	lw	$fp, 0x20($sp)
800264b4: 24 00 bf 8f  	lw	$ra, 0x24($sp)
800264b8: 28 00 bd 27  	addiu	$sp, $sp, 0x28
800264bc: 08 00 e0 03  	jr	$ra
800264c0: 00 00 00 00  	nop
800264c4: 10 00 c4 8f  	lw	$4, 0x10($fp)
800264c8: ce b2 00 0c  	jal	0x2cb38 <.text+0xcb38>
800264cc: 00 00 00 00  	nop
800264d0: d0 ff bd 27  	addiu	$sp, $sp, -0x30
800264d4: 2c 00 bf af  	sw	$ra, 0x2c($sp)
800264d8: 28 00 be af  	sw	$fp, 0x28($sp)
800264dc: 25 f0 a0 03  	move	$fp, $sp
800264e0: 14 00 c6 af  	sw	$6, 0x14($fp)
800264e4: 18 00 c5 af  	sw	$5, 0x18($fp)
800264e8: 1c 00 c4 af  	sw	$4, 0x1c($fp)
800264ec: 20 00 c4 af  	sw	$4, 0x20($fp)
800264f0: 24 00 c5 af  	sw	$5, 0x24($fp)
800264f4: 0e 00 a0 10  	beqz	$5, 0x80026530 <.text+0x6530>
800264f8: 00 00 00 00  	nop
800264fc: 41 99 00 08  	j	0x26504 <.text+0x6504>
80026500: 00 00 00 00  	nop
80026504: 18 00 c1 8f  	lw	$1, 0x18($fp)
80026508: 1c 00 c2 8f  	lw	$2, 0x1c($fp)
8002650c: 1b 00 41 00  	divu	$zero, $2, $1
80026510: f4 01 20 00  	teq	$1, $zero, 0x7
80026514: 12 10 00 00  	mflo	$2
80026518: 25 e8 c0 03  	move	$sp, $fp
8002651c: 28 00 be 8f  	lw	$fp, 0x28($sp)
80026520: 2c 00 bf 8f  	lw	$ra, 0x2c($sp)
80026524: 30 00 bd 27  	addiu	$sp, $sp, 0x30
80026528: 08 00 e0 03  	jr	$ra
8002652c: 00 00 00 00  	nop
80026530: 14 00 c4 8f  	lw	$4, 0x14($fp)
80026534: 0e b3 00 0c  	jal	0x2cc38 <.text+0xcc38>
80026538: 00 00 00 00  	nop
8002653c: d0 ff bd 27  	addiu	$sp, $sp, -0x30
80026540: 2c 00 bf af  	sw	$ra, 0x2c($sp)
80026544: 28 00 be af  	sw	$fp, 0x28($sp)
80026548: 25 f0 a0 03  	move	$fp, $sp
8002654c: 14 00 c6 af  	sw	$6, 0x14($fp)
80026550: 18 00 c5 af  	sw	$5, 0x18($fp)
80026554: 1c 00 c4 af  	sw	$4, 0x1c($fp)
80026558: 20 00 c4 af  	sw	$4, 0x20($fp)
8002655c: 24 00 c5 af  	sw	$5, 0x24($fp)
80026560: 0e 00 a0 10  	beqz	$5, 0x8002659c <.text+0x659c>
80026564: 00 00 00 00  	nop
80026568: 5c 99 00 08  	j	0x26570 <.text+0x6570>
8002656c: 00 00 00 00  	nop
80026570: 18 00 c1 8f  	lw	$1, 0x18($fp)
80026574: 1c 00 c2 8f  	lw	$2, 0x1c($fp)
80026578: 1b 00 41 00  	divu	$zero, $2, $1
8002657c: f4 01 20 00  	teq	$1, $zero, 0x7
80026580: 10 10 00 00  	mfhi	$2
80026584: 25 e8 c0 03  	move	$sp, $fp
80026588: 28 00 be 8f  	lw	$fp, 0x28($sp)
8002658c: 2c 00 bf 8f  	lw	$ra, 0x2c($sp)
80026590: 30 00 bd 27  	addiu	$sp, $sp, 0x30
80026594: 08 00 e0 03  	jr	$ra
80026598: 00 00 00 00  	nop
8002659c: 14 00 c4 8f  	lw	$4, 0x14($fp)
800265a0: 1e b3 00 0c  	jal	0x2cc78 <.text+0xcc78>
800265a4: 00 00 00 00  	nop
800265a8: d0 ff bd 27  	addiu	$sp, $sp, -0x30
800265ac: 2c 00 bf af  	sw	$ra, 0x2c($sp)
800265b0: 28 00 be af  	sw	$fp, 0x28($sp)
800265b4: 25 f0 a0 03  	move	$fp, $sp
800265b8: 14 00 c6 af  	sw	$6, 0x14($fp)
800265bc: 18 00 c5 af  	sw	$5, 0x18($fp)
800265c0: 1c 00 c4 af  	sw	$4, 0x1c($fp)
800265c4: 20 00 c5 af  	sw	$5, 0x20($fp)
800265c8: 24 00 c6 af  	sw	$6, 0x24($fp)
800265cc: 2b 08 a4 00  	sltu	$1, $5, $4
800265d0: 08 00 20 10  	beqz	$1, 0x800265f4 <.text+0x65f4>
800265d4: 00 00 00 00  	nop
800265d8: 78 99 00 08  	j	0x265e0 <.text+0x65e0>
800265dc: 00 00 00 00  	nop
800265e0: 03 80 01 3c  	lui	$1, 0x8003
800265e4: e0 0d 24 24  	addiu	$4, $1, 0xde0
800265e8: 66 00 05 24  	addiu	$5, $zero, 0x66
800265ec: 57 b5 00 0c  	jal	0x2d55c <.text+0xd55c>
800265f0: 00 00 00 00  	nop
800265f4: 14 00 c1 8f  	lw	$1, 0x14($fp)
800265f8: 18 00 c2 8f  	lw	$2, 0x18($fp)
800265fc: 2b 08 22 00  	sltu	$1, $1, $2
80026600: f7 ff 20 14  	bnez	$1, 0x800265e0 <.text+0x65e0>
80026604: 00 00 00 00  	nop
80026608: 84 99 00 08  	j	0x26610 <.text+0x6610>
8002660c: 00 00 00 00  	nop
80026610: 25 e8 c0 03  	move	$sp, $fp
80026614: 28 00 be 8f  	lw	$fp, 0x28($sp)
80026618: 2c 00 bf 8f  	lw	$ra, 0x2c($sp)
8002661c: 30 00 bd 27  	addiu	$sp, $sp, 0x30
80026620: 08 00 e0 03  	jr	$ra
80026624: 00 00 00 00  	nop
80026628: d8 ff bd 27  	addiu	$sp, $sp, -0x28
8002662c: 24 00 bf af  	sw	$ra, 0x24($sp)
80026630: 20 00 be af  	sw	$fp, 0x20($sp)
80026634: 25 f0 a0 03  	move	$fp, $sp
80026638: 18 00 c4 af  	sw	$4, 0x18($fp)
8002663c: 1c 00 c5 af  	sw	$5, 0x1c($fp)
80026640: 18 00 c5 8f  	lw	$5, 0x18($fp)
80026644: 1c 00 c6 8f  	lw	$6, 0x1c($fp)
80026648: 17 00 c4 27  	addiu	$4, $fp, 0x17
8002664c: 6f aa 00 0c  	jal	0x2a9bc <.text+0xa9bc>
80026650: 00 00 00 00  	nop
80026654: 25 e8 c0 03  	move	$sp, $fp
80026658: 20 00 be 8f  	lw	$fp, 0x20($sp)
8002665c: 24 00 bf 8f  	lw	$ra, 0x24($sp)
80026660: 28 00 bd 27  	addiu	$sp, $sp, 0x28
80026664: 08 00 e0 03  	jr	$ra
80026668: 00 00 00 00  	nop
8002666c: d8 ff bd 27  	addiu	$sp, $sp, -0x28
80026670: 24 00 bf af  	sw	$ra, 0x24($sp)
80026674: 20 00 be af  	sw	$fp, 0x20($sp)
80026678: 25 f0 a0 03  	move	$fp, $sp
8002667c: 14 00 c4 af  	sw	$4, 0x14($fp)
80026680: 18 00 c5 af  	sw	$5, 0x18($fp)
80026684: 14 00 c4 8f  	lw	$4, 0x14($fp)
80026688: 18 00 c5 8f  	lw	$5, 0x18($fp)
8002668c: ad b2 00 0c  	jal	0x2cab4 <.text+0xcab4>
80026690: 00 00 00 00  	nop
80026694: 25 e8 c0 03  	move	$sp, $fp
80026698: 20 00 be 8f  	lw	$fp, 0x20($sp)
8002669c: 24 00 bf 8f  	lw	$ra, 0x24($sp)
800266a0: 28 00 bd 27  	addiu	$sp, $sp, 0x28
800266a4: 08 00 e0 03  	jr	$ra
800266a8: 00 00 00 00  	nop
800266ac: f0 ff bd 27  	addiu	$sp, $sp, -0x10
800266b0: 0c 00 bf af  	sw	$ra, 0xc($sp)
800266b4: 08 00 be af  	sw	$fp, 0x8($sp)
800266b8: 25 f0 a0 03  	move	$fp, $sp
800266bc: 04 00 c4 af  	sw	$4, 0x4($fp)
800266c0: 25 e8 c0 03  	move	$sp, $fp
800266c4: 08 00 be 8f  	lw	$fp, 0x8($sp)
800266c8: 0c 00 bf 8f  	lw	$ra, 0xc($sp)
800266cc: 10 00 bd 27  	addiu	$sp, $sp, 0x10
800266d0: 08 00 e0 03  	jr	$ra
800266d4: 00 00 00 00  	nop
800266d8: e0 ff bd 27  	addiu	$sp, $sp, -0x20
800266dc: 1c 00 bf af  	sw	$ra, 0x1c($sp)
800266e0: 18 00 be af  	sw	$fp, 0x18($sp)
800266e4: 25 f0 a0 03  	move	$fp, $sp
800266e8: 14 00 c4 af  	sw	$4, 0x14($fp)
800266ec: 4b a1 00 0c  	jal	0x2852c <.text+0x852c>
800266f0: 00 00 00 00  	nop
800266f4: 25 e8 c0 03  	move	$sp, $fp
800266f8: 18 00 be 8f  	lw	$fp, 0x18($sp)
800266fc: 1c 00 bf 8f  	lw	$ra, 0x1c($sp)
80026700: 20 00 bd 27  	addiu	$sp, $sp, 0x20
80026704: 08 00 e0 03  	jr	$ra
80026708: 00 00 00 00  	nop
8002670c: f0 ff bd 27  	addiu	$sp, $sp, -0x10
80026710: 0c 00 bf af  	sw	$ra, 0xc($sp)
80026714: 08 00 be af  	sw	$fp, 0x8($sp)
80026718: 25 f0 a0 03  	move	$fp, $sp
8002671c: 25 10 80 00  	move	$2, $4
80026720: 00 00 c5 af  	sw	$5, 0x0($fp)
80026724: 04 00 c6 af  	sw	$6, 0x4($fp)
80026728: 00 00 85 ac  	sw	$5, 0x0($4)
8002672c: 04 00 86 ac  	sw	$6, 0x4($4)
80026730: 08 00 80 ac  	sw	$zero, 0x8($4)
80026734: 25 e8 c0 03  	move	$sp, $fp
80026738: 08 00 be 8f  	lw	$fp, 0x8($sp)
8002673c: 0c 00 bf 8f  	lw	$ra, 0xc($sp)
80026740: 10 00 bd 27  	addiu	$sp, $sp, 0x10
80026744: 08 00 e0 03  	jr	$ra
80026748: 00 00 00 00  	nop
8002674c: f0 ff bd 27  	addiu	$sp, $sp, -0x10
80026750: 0c 00 bf af  	sw	$ra, 0xc($sp)
80026754: 08 00 be af  	sw	$fp, 0x8($sp)
80026758: 25 f0 a0 03  	move	$fp, $sp
8002675c: 25 10 80 00  	move	$2, $4
80026760: 00 00 c5 af  	sw	$5, 0x0($fp)
80026764: 04 00 c6 af  	sw	$6, 0x4($fp)
80026768: 00 00 85 ac  	sw	$5, 0x0($4)
8002676c: 04 00 86 ac  	sw	$6, 0x4($4)
80026770: 08 00 80 ac  	sw	$zero, 0x8($4)
80026774: 25 e8 c0 03  	move	$sp, $fp
80026778: 08 00 be 8f  	lw	$fp, 0x8($sp)
8002677c: 0c 00 bf 8f  	lw	$ra, 0xc($sp)
80026780: 10 00 bd 27  	addiu	$sp, $sp, 0x10
80026784: 08 00 e0 03  	jr	$ra
80026788: 00 00 00 00  	nop
8002678c: b0 ff bd 27  	addiu	$sp, $sp, -0x50
80026790: 4c 00 bf af  	sw	$ra, 0x4c($sp)
80026794: 48 00 be af  	sw	$fp, 0x48($sp)
80026798: 25 f0 a0 03  	move	$fp, $sp
8002679c: 20 00 c4 af  	sw	$4, 0x20($fp)
800267a0: 3c 00 c4 af  	sw	$4, 0x3c($fp)
800267a4: 3f 97 00 0c  	jal	0x25cfc <.text+0x5cfc>
800267a8: 00 00 00 00  	nop
800267ac: 25 20 40 00  	move	$4, $2
800267b0: 7c bc 00 0c  	jal	0x2f1f0 <.text+0xf1f0>
800267b4: 00 00 00 00  	nop
800267b8: 30 00 c2 af  	sw	$2, 0x30($fp)
800267bc: 30 00 c1 8f  	lw	$1, 0x30($fp)
800267c0: 11 00 20 10  	beqz	$1, 0x80026808 <.text+0x6808>
800267c4: 00 00 00 00  	nop
800267c8: f4 99 00 08  	j	0x267d0 <.text+0x67d0>
800267cc: 00 00 00 00  	nop
800267d0: 20 00 c1 8f  	lw	$1, 0x20($fp)
800267d4: 30 00 c2 8f  	lw	$2, 0x30($fp)
800267d8: 14 00 c2 af  	sw	$2, 0x14($fp)
800267dc: 40 00 c2 af  	sw	$2, 0x40($fp)
800267e0: 08 00 22 8c  	lw	$2, 0x8($1)
800267e4: 18 00 c2 af  	sw	$2, 0x18($fp)
800267e8: 44 00 c2 af  	sw	$2, 0x44($fp)
800267ec: 08 00 21 8c  	lw	$1, 0x8($1)
800267f0: 01 00 21 24  	addiu	$1, $1, 0x1
800267f4: 1c 00 c1 af  	sw	$1, 0x1c($fp)
800267f8: 16 00 20 10  	beqz	$1, 0x80026854 <.text+0x6854>
800267fc: 00 00 00 00  	nop
80026800: 08 9a 00 08  	j	0x26820 <.text+0x6820>
80026804: 00 00 00 00  	nop
80026808: 95 bc 00 0c  	jal	0x2f254 <.text+0xf254>
8002680c: 00 00 00 00  	nop
80026810: 28 00 c2 af  	sw	$2, 0x28($fp)
80026814: 2c 00 c3 af  	sw	$3, 0x2c($fp)
80026818: 19 9a 00 08  	j	0x26864 <.text+0x6864>
8002681c: 00 00 00 00  	nop
80026820: 14 00 c1 8f  	lw	$1, 0x14($fp)
80026824: 18 00 c2 8f  	lw	$2, 0x18($fp)
80026828: 1c 00 c3 8f  	lw	$3, 0x1c($fp)
8002682c: 20 00 c4 8f  	lw	$4, 0x20($fp)
80026830: 08 00 83 ac  	sw	$3, 0x8($4)
80026834: 34 00 c2 af  	sw	$2, 0x34($fp)
80026838: 38 00 c1 af  	sw	$1, 0x38($fp)
8002683c: 34 00 c2 8f  	lw	$2, 0x34($fp)
80026840: 38 00 c1 8f  	lw	$1, 0x38($fp)
80026844: 28 00 c2 af  	sw	$2, 0x28($fp)
80026848: 2c 00 c1 af  	sw	$1, 0x2c($fp)
8002684c: 19 9a 00 08  	j	0x26864 <.text+0x6864>
80026850: 00 00 00 00  	nop
80026854: 03 80 01 3c  	lui	$1, 0x8003
80026858: cc 0e 24 24  	addiu	$4, $1, 0xecc
8002685c: be b2 00 0c  	jal	0x2caf8 <.text+0xcaf8>
80026860: 00 00 00 00  	nop
80026864: 28 00 c2 8f  	lw	$2, 0x28($fp)
80026868: 2c 00 c3 8f  	lw	$3, 0x2c($fp)
8002686c: 25 e8 c0 03  	move	$sp, $fp
80026870: 48 00 be 8f  	lw	$fp, 0x48($sp)
80026874: 4c 00 bf 8f  	lw	$ra, 0x4c($sp)
80026878: 50 00 bd 27  	addiu	$sp, $sp, 0x50
8002687c: 08 00 e0 03  	jr	$ra
80026880: 00 00 00 00  	nop
80026884: b0 ff bd 27  	addiu	$sp, $sp, -0x50
80026888: 4c 00 bf af  	sw	$ra, 0x4c($sp)
8002688c: 48 00 be af  	sw	$fp, 0x48($sp)
80026890: 25 f0 a0 03  	move	$fp, $sp
80026894: 20 00 c4 af  	sw	$4, 0x20($fp)
80026898: 3c 00 c4 af  	sw	$4, 0x3c($fp)
8002689c: 7b 97 00 0c  	jal	0x25dec <.text+0x5dec>
800268a0: 00 00 00 00  	nop
800268a4: 25 20 40 00  	move	$4, $2
800268a8: 63 bc 00 0c  	jal	0x2f18c <.text+0xf18c>
800268ac: 00 00 00 00  	nop
800268b0: 30 00 c2 af  	sw	$2, 0x30($fp)
800268b4: 30 00 c1 8f  	lw	$1, 0x30($fp)
800268b8: 11 00 20 10  	beqz	$1, 0x80026900 <.text+0x6900>
800268bc: 00 00 00 00  	nop
800268c0: 32 9a 00 08  	j	0x268c8 <.text+0x68c8>
800268c4: 00 00 00 00  	nop
800268c8: 20 00 c1 8f  	lw	$1, 0x20($fp)
800268cc: 30 00 c2 8f  	lw	$2, 0x30($fp)
800268d0: 14 00 c2 af  	sw	$2, 0x14($fp)
800268d4: 40 00 c2 af  	sw	$2, 0x40($fp)
800268d8: 08 00 22 8c  	lw	$2, 0x8($1)
800268dc: 18 00 c2 af  	sw	$2, 0x18($fp)
800268e0: 44 00 c2 af  	sw	$2, 0x44($fp)
800268e4: 08 00 21 8c  	lw	$1, 0x8($1)
800268e8: 01 00 21 24  	addiu	$1, $1, 0x1
800268ec: 1c 00 c1 af  	sw	$1, 0x1c($fp)
800268f0: 16 00 20 10  	beqz	$1, 0x8002694c <.text+0x694c>
800268f4: 00 00 00 00  	nop
800268f8: 46 9a 00 08  	j	0x26918 <.text+0x6918>
800268fc: 00 00 00 00  	nop
80026900: af bc 00 0c  	jal	0x2f2bc <.text+0xf2bc>
80026904: 00 00 00 00  	nop
80026908: 28 00 c2 af  	sw	$2, 0x28($fp)
8002690c: 2c 00 c3 af  	sw	$3, 0x2c($fp)
80026910: 57 9a 00 08  	j	0x2695c <.text+0x695c>
80026914: 00 00 00 00  	nop
80026918: 14 00 c1 8f  	lw	$1, 0x14($fp)
8002691c: 18 00 c2 8f  	lw	$2, 0x18($fp)
80026920: 1c 00 c3 8f  	lw	$3, 0x1c($fp)
80026924: 20 00 c4 8f  	lw	$4, 0x20($fp)
80026928: 08 00 83 ac  	sw	$3, 0x8($4)
8002692c: 34 00 c2 af  	sw	$2, 0x34($fp)
80026930: 38 00 c1 af  	sw	$1, 0x38($fp)
80026934: 34 00 c2 8f  	lw	$2, 0x34($fp)
80026938: 38 00 c1 8f  	lw	$1, 0x38($fp)
8002693c: 28 00 c2 af  	sw	$2, 0x28($fp)
80026940: 2c 00 c1 af  	sw	$1, 0x2c($fp)
80026944: 57 9a 00 08  	j	0x2695c <.text+0x695c>
80026948: 00 00 00 00  	nop
8002694c: 03 80 01 3c  	lui	$1, 0x8003
80026950: cc 0e 24 24  	addiu	$4, $1, 0xecc
80026954: be b2 00 0c  	jal	0x2caf8 <.text+0xcaf8>
80026958: 00 00 00 00  	nop
8002695c: 28 00 c2 8f  	lw	$2, 0x28($fp)
80026960: 2c 00 c3 8f  	lw	$3, 0x2c($fp)
80026964: 25 e8 c0 03  	move	$sp, $fp
80026968: 48 00 be 8f  	lw	$fp, 0x48($sp)
8002696c: 4c 00 bf 8f  	lw	$ra, 0x4c($sp)
80026970: 50 00 bd 27  	addiu	$sp, $sp, 0x50
80026974: 08 00 e0 03  	jr	$ra
80026978: 00 00 00 00  	nop
8002697c: f8 ff bd 27  	addiu	$sp, $sp, -0x8
80026980: 04 00 bf af  	sw	$ra, 0x4($sp)
80026984: 00 00 be af  	sw	$fp, 0x0($sp)
80026988: 25 f0 a0 03  	move	$fp, $sp
8002698c: 25 10 80 00  	move	$2, $4
80026990: 08 00 a1 8c  	lw	$1, 0x8($5)
80026994: 08 00 81 ac  	sw	$1, 0x8($4)
80026998: 04 00 a1 8c  	lw	$1, 0x4($5)
8002699c: 04 00 81 ac  	sw	$1, 0x4($4)
800269a0: 00 00 a1 8c  	lw	$1, 0x0($5)
800269a4: 00 00 81 ac  	sw	$1, 0x0($4)
800269a8: 25 e8 c0 03  	move	$sp, $fp
800269ac: 00 00 be 8f  	lw	$fp, 0x0($sp)
800269b0: 04 00 bf 8f  	lw	$ra, 0x4($sp)
800269b4: 08 00 bd 27  	addiu	$sp, $sp, 0x8
800269b8: 08 00 e0 03  	jr	$ra
800269bc: 00 00 00 00  	nop
800269c0: f8 ff bd 27  	addiu	$sp, $sp, -0x8
800269c4: 04 00 bf af  	sw	$ra, 0x4($sp)
800269c8: 00 00 be af  	sw	$fp, 0x0($sp)
800269cc: 25 f0 a0 03  	move	$fp, $sp
800269d0: 25 10 80 00  	move	$2, $4
800269d4: 08 00 a1 8c  	lw	$1, 0x8($5)
800269d8: 08 00 81 ac  	sw	$1, 0x8($4)
800269dc: 04 00 a1 8c  	lw	$1, 0x4($5)
800269e0: 04 00 81 ac  	sw	$1, 0x4($4)
800269e4: 00 00 a1 8c  	lw	$1, 0x0($5)
800269e8: 00 00 81 ac  	sw	$1, 0x0($4)
800269ec: 25 e8 c0 03  	move	$sp, $fp
800269f0: 00 00 be 8f  	lw	$fp, 0x0($sp)
800269f4: 04 00 bf 8f  	lw	$ra, 0x4($sp)
800269f8: 08 00 bd 27  	addiu	$sp, $sp, 0x8
800269fc: 08 00 e0 03  	jr	$ra
80026a00: 00 00 00 00  	nop
80026a04: e8 ff bd 27  	addiu	$sp, $sp, -0x18
80026a08: 14 00 bf af  	sw	$ra, 0x14($sp)
80026a0c: 10 00 be af  	sw	$fp, 0x10($sp)
80026a10: 25 f0 a0 03  	move	$fp, $sp
80026a14: 25 10 80 00  	move	$2, $4
80026a18: 28 00 c1 8f  	lw	$1, 0x28($fp)
80026a1c: 04 00 c5 af  	sw	$5, 0x4($fp)
80026a20: 08 00 c6 af  	sw	$6, 0x8($fp)
80026a24: 0e 00 c7 a3  	sb	$7, 0xe($fp)
80026a28: 0f 00 c1 a3  	sb	$1, 0xf($fp)
80026a2c: 03 80 03 3c  	lui	$3, 0x8003
80026a30: dc 0e 63 24  	addiu	$3, $3, 0xedc
80026a34: 00 00 83 ac  	sw	$3, 0x0($4)
80026a38: 03 80 03 3c  	lui	$3, 0x8003
80026a3c: dc 0e 63 24  	addiu	$3, $3, 0xedc
80026a40: 04 00 83 ac  	sw	$3, 0x4($4)
80026a44: 08 00 85 ac  	sw	$5, 0x8($4)
80026a48: 0c 00 86 ac  	sw	$6, 0xc($4)
80026a4c: 10 00 87 a0  	sb	$7, 0x10($4)
80026a50: 11 00 81 a0  	sb	$1, 0x11($4)
80026a54: 25 e8 c0 03  	move	$sp, $fp
80026a58: 10 00 be 8f  	lw	$fp, 0x10($sp)
80026a5c: 14 00 bf 8f  	lw	$ra, 0x14($sp)
80026a60: 18 00 bd 27  	addiu	$sp, $sp, 0x18
80026a64: 08 00 e0 03  	jr	$ra
80026a68: 00 00 00 00  	nop
80026a6c: 90 ff bd 27  	addiu	$sp, $sp, -0x70
80026a70: 6c 00 bf af  	sw	$ra, 0x6c($sp)
80026a74: 68 00 be af  	sw	$fp, 0x68($sp)
80026a78: 25 f0 a0 03  	move	$fp, $sp
80026a7c: 1c 00 c5 af  	sw	$5, 0x1c($fp)
80026a80: 25 08 80 00  	move	$1, $4
80026a84: 1c 00 c4 8f  	lw	$4, 0x1c($fp)
80026a88: 20 00 c1 af  	sw	$1, 0x20($fp)
80026a8c: 58 00 c1 af  	sw	$1, 0x58($fp)
80026a90: 5c 00 c4 af  	sw	$4, 0x5c($fp)
80026a94: 03 80 01 3c  	lui	$1, 0x8003
80026a98: ec 0e 25 24  	addiu	$5, $1, 0xeec
80026a9c: 0c 00 06 24  	addiu	$6, $zero, 0xc
80026aa0: 34 b1 00 0c  	jal	0x2c4d0 <.text+0xc4d0>
80026aa4: 00 00 00 00  	nop
80026aa8: 25 20 40 00  	move	$4, $2
80026aac: b2 bd 00 0c  	jal	0x2f6c8 <.text+0xf6c8>
80026ab0: 00 00 00 00  	nop
80026ab4: 33 00 c2 a3  	sb	$2, 0x33($fp)
80026ab8: 33 00 c1 93  	lbu	$1, 0x33($fp)
80026abc: 01 00 21 30  	andi	$1, $1, 0x1
80026ac0: 12 00 20 14  	bnez	$1, 0x80026b0c <.text+0x6b0c>
80026ac4: 00 00 00 00  	nop
80026ac8: b4 9a 00 08  	j	0x26ad0 <.text+0x6ad0>
80026acc: 00 00 00 00  	nop
80026ad0: 1c 00 c5 8f  	lw	$5, 0x1c($fp)
80026ad4: 20 00 c1 8f  	lw	$1, 0x20($fp)
80026ad8: 0c 00 24 8c  	lw	$4, 0xc($1)
80026adc: 09 bd 00 0c  	jal	0x2f424 <.text+0xf424>
80026ae0: 00 00 00 00  	nop
80026ae4: 25 20 40 00  	move	$4, $2
80026ae8: b2 bd 00 0c  	jal	0x2f6c8 <.text+0xf6c8>
80026aec: 00 00 00 00  	nop
80026af0: 34 00 c2 a3  	sb	$2, 0x34($fp)
80026af4: 34 00 c1 93  	lbu	$1, 0x34($fp)
80026af8: 01 00 21 30  	andi	$1, $1, 0x1
80026afc: 0a 00 20 10  	beqz	$1, 0x80026b28 <.text+0x6b28>
80026b00: 00 00 00 00  	nop
80026b04: da 9a 00 08  	j	0x26b68 <.text+0x6b68>
80026b08: 00 00 00 00  	nop
80026b0c: 03 80 01 3c  	lui	$1, 0x8003
80026b10: d8 0f 24 24  	addiu	$4, $1, 0xfd8
80026b14: fb bd 00 0c  	jal	0x2f7ec <.text+0xf7ec>
80026b18: 00 00 00 00  	nop
80026b1c: 32 00 c2 a3  	sb	$2, 0x32($fp)
80026b20: 3a 9b 00 08  	j	0x26ce8 <.text+0x6ce8>
80026b24: 00 00 00 00  	nop
80026b28: 1c 00 c4 8f  	lw	$4, 0x1c($fp)
80026b2c: 03 80 01 3c  	lui	$1, 0x8003
80026b30: f8 0e 25 24  	addiu	$5, $1, 0xef8
80026b34: 01 00 06 24  	addiu	$6, $zero, 0x1
80026b38: 34 b1 00 0c  	jal	0x2c4d0 <.text+0xc4d0>
80026b3c: 00 00 00 00  	nop
80026b40: 25 20 40 00  	move	$4, $2
80026b44: b2 bd 00 0c  	jal	0x2f6c8 <.text+0xf6c8>
80026b48: 00 00 00 00  	nop
80026b4c: 35 00 c2 a3  	sb	$2, 0x35($fp)
80026b50: 35 00 c1 93  	lbu	$1, 0x35($fp)
80026b54: 01 00 21 30  	andi	$1, $1, 0x1
80026b58: 0a 00 20 10  	beqz	$1, 0x80026b84 <.text+0x6b84>
80026b5c: 00 00 00 00  	nop
80026b60: e7 9a 00 08  	j	0x26b9c <.text+0x6b9c>
80026b64: 00 00 00 00  	nop
80026b68: 03 80 01 3c  	lui	$1, 0x8003
80026b6c: c8 0f 24 24  	addiu	$4, $1, 0xfc8
80026b70: fb bd 00 0c  	jal	0x2f7ec <.text+0xf7ec>
80026b74: 00 00 00 00  	nop
80026b78: 32 00 c2 a3  	sb	$2, 0x32($fp)
80026b7c: 3a 9b 00 08  	j	0x26ce8 <.text+0x6ce8>
80026b80: 00 00 00 00  	nop
80026b84: 20 00 c1 8f  	lw	$1, 0x20($fp)
80026b88: 08 00 21 8c  	lw	$1, 0x8($1)
80026b8c: 0a 00 20 14  	bnez	$1, 0x80026bb8 <.text+0x6bb8>
80026b90: 00 00 00 00  	nop
80026b94: 02 9b 00 08  	j	0x26c08 <.text+0x6c08>
80026b98: 00 00 00 00  	nop
80026b9c: 03 80 01 3c  	lui	$1, 0x8003
80026ba0: b8 0f 24 24  	addiu	$4, $1, 0xfb8
80026ba4: fb bd 00 0c  	jal	0x2f7ec <.text+0xf7ec>
80026ba8: 00 00 00 00  	nop
80026bac: 32 00 c2 a3  	sb	$2, 0x32($fp)
80026bb0: 3a 9b 00 08  	j	0x26ce8 <.text+0x6ce8>
80026bb4: 00 00 00 00  	nop
80026bb8: 1c 00 c4 8f  	lw	$4, 0x1c($fp)
80026bbc: 20 00 c1 8f  	lw	$1, 0x20($fp)
80026bc0: 08 00 21 8c  	lw	$1, 0x8($1)
80026bc4: 18 00 c1 af  	sw	$1, 0x18($fp)
80026bc8: 60 00 c1 af  	sw	$1, 0x60($fp)
80026bcc: 03 80 01 3c  	lui	$1, 0x8003
80026bd0: f9 0e 25 24  	addiu	$5, $1, 0xef9
80026bd4: 01 00 06 24  	addiu	$6, $zero, 0x1
80026bd8: 34 b1 00 0c  	jal	0x2c4d0 <.text+0xc4d0>
80026bdc: 00 00 00 00  	nop
80026be0: 25 20 40 00  	move	$4, $2
80026be4: b2 bd 00 0c  	jal	0x2f6c8 <.text+0xf6c8>
80026be8: 00 00 00 00  	nop
80026bec: 36 00 c2 a3  	sb	$2, 0x36($fp)
80026bf0: 36 00 c1 93  	lbu	$1, 0x36($fp)
80026bf4: 01 00 21 30  	andi	$1, $1, 0x1
80026bf8: 0e 00 20 10  	beqz	$1, 0x80026c34 <.text+0x6c34>
80026bfc: 00 00 00 00  	nop
80026c00: 28 9b 00 08  	j	0x26ca0 <.text+0x6ca0>
80026c04: 00 00 00 00  	nop
80026c08: 20 00 c1 8f  	lw	$1, 0x20($fp)
80026c0c: 00 00 24 8c  	lw	$4, 0x0($1)
80026c10: 04 00 25 8c  	lw	$5, 0x4($1)
80026c14: fd a0 00 0c  	jal	0x283f4 <.text+0x83f4>
80026c18: 00 00 00 00  	nop
80026c1c: 50 00 c2 af  	sw	$2, 0x50($fp)
80026c20: 50 00 c1 8f  	lw	$1, 0x50($fp)
80026c24: 38 00 20 14  	bnez	$1, 0x80026d08 <.text+0x6d08>
80026c28: 00 00 00 00  	nop
80026c2c: 2f 9b 00 08  	j	0x26cbc <.text+0x6cbc>
80026c30: 00 00 00 00  	nop
80026c34: 1c 00 c4 8f  	lw	$4, 0x1c($fp)
80026c38: 18 00 c1 8f  	lw	$1, 0x18($fp)
80026c3c: 14 00 22 8c  	lw	$2, 0x14($1)
80026c40: 4c 00 c2 af  	sw	$2, 0x4c($fp)
80026c44: 10 00 22 8c  	lw	$2, 0x10($1)
80026c48: 48 00 c2 af  	sw	$2, 0x48($fp)
80026c4c: 0c 00 22 8c  	lw	$2, 0xc($1)
80026c50: 44 00 c2 af  	sw	$2, 0x44($fp)
80026c54: 08 00 22 8c  	lw	$2, 0x8($1)
80026c58: 40 00 c2 af  	sw	$2, 0x40($fp)
80026c5c: 04 00 22 8c  	lw	$2, 0x4($1)
80026c60: 3c 00 c2 af  	sw	$2, 0x3c($fp)
80026c64: 00 00 21 8c  	lw	$1, 0x0($1)
80026c68: 38 00 c1 af  	sw	$1, 0x38($fp)
80026c6c: 38 00 c5 27  	addiu	$5, $fp, 0x38
80026c70: 47 b1 00 0c  	jal	0x2c51c <.text+0xc51c>
80026c74: 00 00 00 00  	nop
80026c78: 25 20 40 00  	move	$4, $2
80026c7c: b2 bd 00 0c  	jal	0x2f6c8 <.text+0xf6c8>
80026c80: 00 00 00 00  	nop
80026c84: 37 00 c2 a3  	sb	$2, 0x37($fp)
80026c88: 37 00 c1 93  	lbu	$1, 0x37($fp)
80026c8c: 01 00 21 30  	andi	$1, $1, 0x1
80026c90: 0a 00 20 10  	beqz	$1, 0x80026cbc <.text+0x6cbc>
80026c94: 00 00 00 00  	nop
80026c98: 33 9b 00 08  	j	0x26ccc <.text+0x6ccc>
80026c9c: 00 00 00 00  	nop
80026ca0: 03 80 01 3c  	lui	$1, 0x8003
80026ca4: 88 0f 24 24  	addiu	$4, $1, 0xf88
80026ca8: fb bd 00 0c  	jal	0x2f7ec <.text+0xf7ec>
80026cac: 00 00 00 00  	nop
80026cb0: 32 00 c2 a3  	sb	$2, 0x32($fp)
80026cb4: 3a 9b 00 08  	j	0x26ce8 <.text+0x6ce8>
80026cb8: 00 00 00 00  	nop
80026cbc: 00 00 01 24  	addiu	$1, $zero, 0x0
80026cc0: 32 00 c0 a3  	sb	$zero, 0x32($fp)
80026cc4: 3a 9b 00 08  	j	0x26ce8 <.text+0x6ce8>
80026cc8: 00 00 00 00  	nop
80026ccc: 03 80 01 3c  	lui	$1, 0x8003
80026cd0: 78 0f 24 24  	addiu	$4, $1, 0xf78
80026cd4: fb bd 00 0c  	jal	0x2f7ec <.text+0xf7ec>
80026cd8: 00 00 00 00  	nop
80026cdc: 32 00 c2 a3  	sb	$2, 0x32($fp)
80026ce0: 3a 9b 00 08  	j	0x26ce8 <.text+0x6ce8>
80026ce4: 00 00 00 00  	nop
80026ce8: 32 00 c1 93  	lbu	$1, 0x32($fp)
80026cec: 01 00 22 30  	andi	$2, $1, 0x1
80026cf0: 25 e8 c0 03  	move	$sp, $fp
80026cf4: 68 00 be 8f  	lw	$fp, 0x68($sp)
80026cf8: 6c 00 bf 8f  	lw	$ra, 0x6c($sp)
80026cfc: 70 00 bd 27  	addiu	$sp, $sp, 0x70
80026d00: 08 00 e0 03  	jr	$ra
80026d04: 00 00 00 00  	nop
80026d08: 1c 00 c4 8f  	lw	$4, 0x1c($fp)
80026d0c: 50 00 c1 8f  	lw	$1, 0x50($fp)
80026d10: 14 00 c1 af  	sw	$1, 0x14($fp)
80026d14: 64 00 c1 af  	sw	$1, 0x64($fp)
80026d18: 03 80 01 3c  	lui	$1, 0x8003
80026d1c: f9 0e 25 24  	addiu	$5, $1, 0xef9
80026d20: 01 00 06 24  	addiu	$6, $zero, 0x1
80026d24: 34 b1 00 0c  	jal	0x2c4d0 <.text+0xc4d0>
80026d28: 00 00 00 00  	nop
80026d2c: 25 20 40 00  	move	$4, $2
80026d30: b2 bd 00 0c  	jal	0x2f6c8 <.text+0xf6c8>
80026d34: 00 00 00 00  	nop
80026d38: 56 00 c2 a3  	sb	$2, 0x56($fp)
80026d3c: 56 00 c1 93  	lbu	$1, 0x56($fp)
80026d40: 01 00 21 30  	andi	$1, $1, 0x1
80026d44: 13 00 20 14  	bnez	$1, 0x80026d94 <.text+0x6d94>
80026d48: 00 00 00 00  	nop
80026d4c: 55 9b 00 08  	j	0x26d54 <.text+0x6d54>
80026d50: 00 00 00 00  	nop
80026d54: 1c 00 c4 8f  	lw	$4, 0x1c($fp)
80026d58: 14 00 c1 8f  	lw	$1, 0x14($fp)
80026d5c: 00 00 25 8c  	lw	$5, 0x0($1)
80026d60: 04 00 26 8c  	lw	$6, 0x4($1)
80026d64: 34 b1 00 0c  	jal	0x2c4d0 <.text+0xc4d0>
80026d68: 00 00 00 00  	nop
80026d6c: 25 20 40 00  	move	$4, $2
80026d70: b2 bd 00 0c  	jal	0x2f6c8 <.text+0xf6c8>
80026d74: 00 00 00 00  	nop
80026d78: 57 00 c2 a3  	sb	$2, 0x57($fp)
80026d7c: 57 00 c1 93  	lbu	$1, 0x57($fp)
80026d80: 01 00 21 30  	andi	$1, $1, 0x1
80026d84: cd ff 20 10  	beqz	$1, 0x80026cbc <.text+0x6cbc>
80026d88: 00 00 00 00  	nop
80026d8c: 6c 9b 00 08  	j	0x26db0 <.text+0x6db0>
80026d90: 00 00 00 00  	nop
80026d94: 03 80 01 3c  	lui	$1, 0x8003
80026d98: a8 0f 24 24  	addiu	$4, $1, 0xfa8
80026d9c: fb bd 00 0c  	jal	0x2f7ec <.text+0xf7ec>
80026da0: 00 00 00 00  	nop
80026da4: 32 00 c2 a3  	sb	$2, 0x32($fp)
80026da8: 3a 9b 00 08  	j	0x26ce8 <.text+0x6ce8>
80026dac: 00 00 00 00  	nop
80026db0: 03 80 01 3c  	lui	$1, 0x8003
80026db4: 98 0f 24 24  	addiu	$4, $1, 0xf98
80026db8: fb bd 00 0c  	jal	0x2f7ec <.text+0xf7ec>
80026dbc: 00 00 00 00  	nop
80026dc0: 32 00 c2 a3  	sb	$2, 0x32($fp)
80026dc4: 3a 9b 00 08  	j	0x26ce8 <.text+0x6ce8>
80026dc8: 00 00 00 00  	nop
80026dcc: e0 ff bd 27  	addiu	$sp, $sp, -0x20
80026dd0: 1c 00 bf af  	sw	$ra, 0x1c($sp)
80026dd4: 18 00 be af  	sw	$fp, 0x18($sp)
80026dd8: 25 f0 a0 03  	move	$fp, $sp
80026ddc: 10 00 c4 af  	sw	$4, 0x10($fp)
80026de0: 14 00 c5 af  	sw	$5, 0x14($fp)
80026de4: 8f 9b 00 0c  	jal	0x26e3c <.text+0x6e3c>
80026de8: 00 00 00 00  	nop
80026dec: 25 e8 c0 03  	move	$sp, $fp
80026df0: 18 00 be 8f  	lw	$fp, 0x18($sp)
80026df4: 1c 00 bf 8f  	lw	$ra, 0x1c($sp)
80026df8: 20 00 bd 27  	addiu	$sp, $sp, 0x20
80026dfc: 08 00 e0 03  	jr	$ra
80026e00: 00 00 00 00  	nop
80026e04: e0 ff bd 27  	addiu	$sp, $sp, -0x20
80026e08: 1c 00 bf af  	sw	$ra, 0x1c($sp)
80026e0c: 18 00 be af  	sw	$fp, 0x18($sp)
80026e10: 25 f0 a0 03  	move	$fp, $sp
80026e14: 10 00 c4 af  	sw	$4, 0x10($fp)
80026e18: 14 00 c5 af  	sw	$5, 0x14($fp)
80026e1c: 73 9b 00 0c  	jal	0x26dcc <.text+0x6dcc>
80026e20: 00 00 00 00  	nop
80026e24: 25 e8 c0 03  	move	$sp, $fp
80026e28: 18 00 be 8f  	lw	$fp, 0x18($sp)
80026e2c: 1c 00 bf 8f  	lw	$ra, 0x1c($sp)
80026e30: 20 00 bd 27  	addiu	$sp, $sp, 0x20
80026e34: 08 00 e0 03  	jr	$ra
80026e38: 00 00 00 00  	nop
80026e3c: c8 ff bd 27  	addiu	$sp, $sp, -0x38
80026e40: 34 00 bf af  	sw	$ra, 0x34($sp)
80026e44: 30 00 be af  	sw	$fp, 0x30($sp)
80026e48: 25 f0 a0 03  	move	$fp, $sp
80026e4c: 14 00 c4 af  	sw	$4, 0x14($fp)
80026e50: 18 00 c5 af  	sw	$5, 0x18($fp)
80026e54: 00 00 01 24  	addiu	$1, $zero, 0x0
80026e58: 2e 00 c0 a3  	sb	$zero, 0x2e($fp)
80026e5c: 2d 00 c0 a3  	sb	$zero, 0x2d($fp)
80026e60: 01 00 01 24  	addiu	$1, $zero, 0x1
80026e64: 2e 00 c1 a3  	sb	$1, 0x2e($fp)
80026e68: 2d 00 c1 a3  	sb	$1, 0x2d($fp)
80026e6c: 14 00 c1 27  	addiu	$1, $fp, 0x14
80026e70: 24 00 c1 af  	sw	$1, 0x24($fp)
80026e74: 18 00 c1 27  	addiu	$1, $fp, 0x18
80026e78: 28 00 c1 af  	sw	$1, 0x28($fp)
80026e7c: 24 00 c4 8f  	lw	$4, 0x24($fp)
80026e80: 28 00 c5 8f  	lw	$5, 0x28($fp)
80026e84: 9b 99 00 0c  	jal	0x2666c <.text+0x666c>
80026e88: 00 00 00 00  	nop
80026e8c: 23 00 c2 a3  	sb	$2, 0x23($fp)
80026e90: 23 00 c1 93  	lbu	$1, 0x23($fp)
80026e94: 01 00 21 24  	addiu	$1, $1, 0x1
80026e98: ff 00 21 30  	andi	$1, $1, 0xff
80026e9c: 02 00 21 2c  	sltiu	$1, $1, 0x2
80026ea0: 06 00 20 14  	bnez	$1, 0x80026ebc <.text+0x6ebc>
80026ea4: 00 00 00 00  	nop
80026ea8: ac 9b 00 08  	j	0x26eb0 <.text+0x6eb0>
80026eac: 00 00 00 00  	nop
80026eb0: b5 9b 00 08  	j	0x26ed4 <.text+0x6ed4>
80026eb4: 00 00 00 00  	nop
80026eb8: 0d 00 00 00  	break
80026ebc: 00 00 01 24  	addiu	$1, $zero, 0x0
80026ec0: 2e 00 c0 a3  	sb	$zero, 0x2e($fp)
80026ec4: 14 00 c1 8f  	lw	$1, 0x14($fp)
80026ec8: 1c 00 c1 af  	sw	$1, 0x1c($fp)
80026ecc: bb 9b 00 08  	j	0x26eec <.text+0x6eec>
80026ed0: 00 00 00 00  	nop
80026ed4: 00 00 01 24  	addiu	$1, $zero, 0x0
80026ed8: 2d 00 c0 a3  	sb	$zero, 0x2d($fp)
80026edc: 18 00 c1 8f  	lw	$1, 0x18($fp)
80026ee0: 1c 00 c1 af  	sw	$1, 0x1c($fp)
80026ee4: bb 9b 00 08  	j	0x26eec <.text+0x6eec>
80026ee8: 00 00 00 00  	nop
80026eec: 2d 00 c1 93  	lbu	$1, 0x2d($fp)
80026ef0: 01 00 21 30  	andi	$1, $1, 0x1
80026ef4: 09 00 20 14  	bnez	$1, 0x80026f1c <.text+0x6f1c>
80026ef8: 00 00 00 00  	nop
80026efc: c1 9b 00 08  	j	0x26f04 <.text+0x6f04>
80026f00: 00 00 00 00  	nop
80026f04: 2e 00 c1 93  	lbu	$1, 0x2e($fp)
80026f08: 01 00 21 30  	andi	$1, $1, 0x1
80026f0c: 0c 00 20 14  	bnez	$1, 0x80026f40 <.text+0x6f40>
80026f10: 00 00 00 00  	nop
80026f14: c9 9b 00 08  	j	0x26f24 <.text+0x6f24>
80026f18: 00 00 00 00  	nop
80026f1c: c1 9b 00 08  	j	0x26f04 <.text+0x6f04>
80026f20: 00 00 00 00  	nop
80026f24: 1c 00 c2 8f  	lw	$2, 0x1c($fp)
80026f28: 25 e8 c0 03  	move	$sp, $fp
80026f2c: 30 00 be 8f  	lw	$fp, 0x30($sp)
80026f30: 34 00 bf 8f  	lw	$ra, 0x34($sp)
80026f34: 38 00 bd 27  	addiu	$sp, $sp, 0x38
80026f38: 08 00 e0 03  	jr	$ra
80026f3c: 00 00 00 00  	nop
80026f40: c9 9b 00 08  	j	0x26f24 <.text+0x6f24>
80026f44: 00 00 00 00  	nop
80026f48: f0 ff bd 27  	addiu	$sp, $sp, -0x10
80026f4c: 0c 00 bf af  	sw	$ra, 0xc($sp)
80026f50: 08 00 be af  	sw	$fp, 0x8($sp)
80026f54: 25 f0 a0 03  	move	$fp, $sp
80026f58: 25 18 a0 00  	move	$3, $5
80026f5c: 25 10 80 00  	move	$2, $4
80026f60: 00 00 c2 af  	sw	$2, 0x0($fp)
80026f64: 04 00 c3 af  	sw	$3, 0x4($fp)
80026f68: 25 e8 c0 03  	move	$sp, $fp
80026f6c: 08 00 be 8f  	lw	$fp, 0x8($sp)
80026f70: 0c 00 bf 8f  	lw	$ra, 0xc($sp)
80026f74: 10 00 bd 27  	addiu	$sp, $sp, 0x10
80026f78: 08 00 e0 03  	jr	$ra
80026f7c: 00 00 00 00  	nop
80026f80: 80 fe bd 27  	addiu	$sp, $sp, -0x180
80026f84: 7c 01 bf af  	sw	$ra, 0x17c($sp)
80026f88: 78 01 be af  	sw	$fp, 0x178($sp)
80026f8c: 25 f0 a0 03  	move	$fp, $sp
80026f90: 68 00 c6 af  	sw	$6, 0x68($fp)
80026f94: 25 08 a0 00  	move	$1, $5
80026f98: 6c 00 c1 af  	sw	$1, 0x6c($fp)
80026f9c: 7c 00 c4 af  	sw	$4, 0x7c($fp)
80026fa0: b3 00 c5 a3  	sb	$5, 0xb3($fp)
80026fa4: b4 00 c6 af  	sw	$6, 0xb4($fp)
80026fa8: 0f 01 c5 93  	lbu	$5, 0x10f($fp)
80026fac: 81 00 c4 27  	addiu	$4, $fp, 0x81
80026fb0: 70 00 c4 af  	sw	$4, 0x70($fp)
80026fb4: 27 00 06 24  	addiu	$6, $zero, 0x27
80026fb8: 74 00 c6 af  	sw	$6, 0x74($fp)
80026fbc: 31 be 00 0c  	jal	0x2f8c4 <.text+0xf8c4>
80026fc0: 00 00 00 00  	nop
80026fc4: 70 00 c1 8f  	lw	$1, 0x70($fp)
80026fc8: 74 00 c2 8f  	lw	$2, 0x74($fp)
80026fcc: a8 00 c2 af  	sw	$2, 0xa8($fp)
80026fd0: 10 01 c1 af  	sw	$1, 0x110($fp)
80026fd4: 14 01 c2 af  	sw	$2, 0x114($fp)
80026fd8: 70 01 c1 af  	sw	$1, 0x170($fp)
80026fdc: 74 01 c2 af  	sw	$2, 0x174($fp)
80026fe0: b8 00 c1 af  	sw	$1, 0xb8($fp)
80026fe4: 03 80 01 3c  	lui	$1, 0x8003
80026fe8: f0 0b 21 8c  	lw	$1, 0xbf0($1)
80026fec: 78 00 c1 af  	sw	$1, 0x78($fp)
80026ff0: 68 01 c1 af  	sw	$1, 0x168($fp)
80026ff4: c8 00 02 24  	addiu	$2, $zero, 0xc8
80026ff8: 6c 01 c2 af  	sw	$2, 0x16c($fp)
80026ffc: bc 00 c1 af  	sw	$1, 0xbc($fp)
80027000: 01 00 01 24  	addiu	$1, $zero, 0x1
80027004: 0a 00 20 14  	bnez	$1, 0x80027030 <.text+0x7030>
80027008: 00 00 00 00  	nop
8002700c: 05 9c 00 08  	j	0x27014 <.text+0x7014>
80027010: 00 00 00 00  	nop
80027014: 03 80 01 3c  	lui	$1, 0x8003
80027018: e8 0f 24 24  	addiu	$4, $1, 0xfe8
8002701c: 03 80 01 3c  	lui	$1, 0x8003
80027020: 90 10 26 24  	addiu	$6, $1, 0x1090
80027024: 33 00 05 24  	addiu	$5, $zero, 0x33
80027028: 44 b5 00 0c  	jal	0x2d510 <.text+0xd510>
8002702c: 00 00 00 00  	nop
80027030: 7c 00 c1 8f  	lw	$1, 0x7c($fp)
80027034: 10 27 21 2c  	sltiu	$1, $1, 0x2710
80027038: 0b 00 20 10  	beqz	$1, 0x80027068 <.text+0x7068>
8002703c: 00 00 00 00  	nop
80027040: 12 9c 00 08  	j	0x27048 <.text+0x7048>
80027044: 00 00 00 00  	nop
80027048: 7c 00 c1 8f  	lw	$1, 0x7c($fp)
8002704c: ac 00 c1 af  	sw	$1, 0xac($fp)
80027050: ac 00 c1 8f  	lw	$1, 0xac($fp)
80027054: 64 00 21 2c  	sltiu	$1, $1, 0x64
80027058: 30 00 20 10  	beqz	$1, 0x8002711c <.text+0x711c>
8002705c: 00 00 00 00  	nop
80027060: 41 9c 00 08  	j	0x27104 <.text+0x7104>
80027064: 00 00 00 00  	nop
80027068: 7c 00 c1 8f  	lw	$1, 0x7c($fp)
8002706c: b7 d1 02 3c  	lui	$2, 0xd1b7
80027070: 59 17 43 34  	ori	$3, $2, 0x1759
80027074: 19 00 23 00  	multu	$1, $3
80027078: 10 10 00 00  	mfhi	$2
8002707c: 42 13 02 00  	srl	$2, $2, 0xd
80027080: 10 27 04 24  	addiu	$4, $zero, 0x2710
80027084: 02 10 44 70  	mul	$2, $2, $4
80027088: 23 08 22 00  	subu	$1, $1, $2
8002708c: d0 00 c1 af  	sw	$1, 0xd0($fp)
80027090: 7c 00 c2 8f  	lw	$2, 0x7c($fp)
80027094: 19 00 43 00  	multu	$2, $3
80027098: 10 10 00 00  	mfhi	$2
8002709c: 42 13 02 00  	srl	$2, $2, 0xd
800270a0: 7c 00 c2 af  	sw	$2, 0x7c($fp)
800270a4: 8f 02 02 3c  	lui	$2, 0x28f
800270a8: 29 5c 42 34  	ori	$2, $2, 0x5c29
800270ac: 19 00 22 00  	multu	$1, $2
800270b0: 10 10 00 00  	mfhi	$2
800270b4: 40 18 02 00  	sll	$3, $2, 0x1
800270b8: 5c 00 c3 af  	sw	$3, 0x5c($fp)
800270bc: d4 00 c3 af  	sw	$3, 0xd4($fp)
800270c0: 40 21 02 00  	sll	$4, $2, 0x5
800270c4: 80 18 02 00  	sll	$3, $2, 0x2
800270c8: 23 18 64 00  	subu	$3, $3, $4
800270cc: c0 11 02 00  	sll	$2, $2, 0x7
800270d0: 21 10 43 00  	addu	$2, $2, $3
800270d4: 23 08 22 00  	subu	$1, $1, $2
800270d8: 40 08 01 00  	sll	$1, $1, 0x1
800270dc: 60 00 c1 af  	sw	$1, 0x60($fp)
800270e0: d8 00 c1 af  	sw	$1, 0xd8($fp)
800270e4: a8 00 c1 8f  	lw	$1, 0xa8($fp)
800270e8: fc ff 22 24  	addiu	$2, $1, -0x4
800270ec: 64 00 c2 af  	sw	$2, 0x64($fp)
800270f0: 04 00 21 2c  	sltiu	$1, $1, 0x4
800270f4: 19 01 20 14  	bnez	$1, 0x8002755c <.text+0x755c>
800270f8: 00 00 00 00  	nop
800270fc: 20 9d 00 08  	j	0x27480 <.text+0x7480>
80027100: 00 00 00 00  	nop
80027104: ac 00 c1 8f  	lw	$1, 0xac($fp)
80027108: 0a 00 21 2c  	sltiu	$1, $1, 0xa
8002710c: 5c 00 20 14  	bnez	$1, 0x80027280 <.text+0x7280>
80027110: 00 00 00 00  	nop
80027114: 94 9c 00 08  	j	0x27250 <.text+0x7250>
80027118: 00 00 00 00  	nop
8002711c: ac 00 c1 8f  	lw	$1, 0xac($fp)
80027120: eb 51 02 3c  	lui	$2, 0x51eb
80027124: 1f 85 42 34  	ori	$2, $2, 0x851f
80027128: 19 00 22 00  	multu	$1, $2
8002712c: 10 18 00 00  	mfhi	$3
80027130: ff 7f 04 3c  	lui	$4, 0x7fff
80027134: e0 ff 84 34  	ori	$4, $4, 0xffe0
80027138: 24 28 64 00  	and	$5, $3, $4
8002713c: 42 19 03 00  	srl	$3, $3, 0x5
80027140: 80 20 03 00  	sll	$4, $3, 0x2
80027144: 23 20 85 00  	subu	$4, $4, $5
80027148: c0 19 03 00  	sll	$3, $3, 0x7
8002714c: 21 18 64 00  	addu	$3, $3, $4
80027150: 23 08 23 00  	subu	$1, $1, $3
80027154: 40 08 01 00  	sll	$1, $1, 0x1
80027158: 54 00 c1 af  	sw	$1, 0x54($fp)
8002715c: c0 00 c1 af  	sw	$1, 0xc0($fp)
80027160: ac 00 c1 8f  	lw	$1, 0xac($fp)
80027164: 19 00 22 00  	multu	$1, $2
80027168: 10 08 00 00  	mfhi	$1
8002716c: 42 09 01 00  	srl	$1, $1, 0x5
80027170: ac 00 c1 af  	sw	$1, 0xac($fp)
80027174: a8 00 c1 8f  	lw	$1, 0xa8($fp)
80027178: fe ff 22 24  	addiu	$2, $1, -0x2
8002717c: 58 00 c2 af  	sw	$2, 0x58($fp)
80027180: 02 00 21 2c  	sltiu	$1, $1, 0x2
80027184: 2e 00 20 14  	bnez	$1, 0x80027240 <.text+0x7240>
80027188: 00 00 00 00  	nop
8002718c: 65 9c 00 08  	j	0x27194 <.text+0x7194>
80027190: 00 00 00 00  	nop
80027194: 78 00 c1 8f  	lw	$1, 0x78($fp)
80027198: 54 00 c2 8f  	lw	$2, 0x54($fp)
8002719c: 58 00 c3 8f  	lw	$3, 0x58($fp)
800271a0: a8 00 c3 af  	sw	$3, 0xa8($fp)
800271a4: 30 01 c1 af  	sw	$1, 0x130($fp)
800271a8: 34 01 c2 af  	sw	$2, 0x134($fp)
800271ac: 21 10 22 00  	addu	$2, $1, $2
800271b0: 4c 00 c2 af  	sw	$2, 0x4c($fp)
800271b4: a8 00 c3 8f  	lw	$3, 0xa8($fp)
800271b8: 81 00 c1 27  	addiu	$1, $fp, 0x81
800271bc: 60 01 c1 af  	sw	$1, 0x160($fp)
800271c0: 64 01 c3 af  	sw	$3, 0x164($fp)
800271c4: 21 08 23 00  	addu	$1, $1, $3
800271c8: 50 00 c1 af  	sw	$1, 0x50($fp)
800271cc: 00 01 c2 af  	sw	$2, 0x100($fp)
800271d0: 04 01 c1 af  	sw	$1, 0x104($fp)
800271d4: 02 00 01 24  	addiu	$1, $zero, 0x2
800271d8: 08 01 c1 af  	sw	$1, 0x108($fp)
800271dc: b4 a9 00 0c  	jal	0x2a6d0 <.text+0xa6d0>
800271e0: 00 00 00 00  	nop
800271e4: 0e 00 40 10  	beqz	$2, 0x80027220 <.text+0x7220>
800271e8: 00 00 00 00  	nop
800271ec: 7d 9c 00 08  	j	0x271f4 <.text+0x71f4>
800271f0: 00 00 00 00  	nop
800271f4: 50 00 c5 8f  	lw	$5, 0x50($fp)
800271f8: 4c 00 c4 8f  	lw	$4, 0x4c($fp)
800271fc: 25 10 a0 03  	move	$2, $sp
80027200: 02 00 01 24  	addiu	$1, $zero, 0x2
80027204: 10 00 41 ac  	sw	$1, 0x10($2)
80027208: 01 00 07 24  	addiu	$7, $zero, 0x1
8002720c: 25 30 e0 00  	move	$6, $7
80027210: ca bc 00 0c  	jal	0x2f328 <.text+0xf328>
80027214: 00 00 00 00  	nop
80027218: 88 9c 00 08  	j	0x27220 <.text+0x7220>
8002721c: 00 00 00 00  	nop
80027220: 50 00 c2 8f  	lw	$2, 0x50($fp)
80027224: 4c 00 c1 8f  	lw	$1, 0x4c($fp)
80027228: 01 00 23 90  	lbu	$3, 0x1($1)
8002722c: 01 00 43 a0  	sb	$3, 0x1($2)
80027230: 00 00 21 90  	lbu	$1, 0x0($1)
80027234: 00 00 41 a0  	sb	$1, 0x0($2)
80027238: 41 9c 00 08  	j	0x27104 <.text+0x7104>
8002723c: 00 00 00 00  	nop
80027240: 03 80 01 3c  	lui	$1, 0x8003
80027244: 90 10 24 24  	addiu	$4, $1, 0x1090
80027248: ce b2 00 0c  	jal	0x2cb38 <.text+0xcb38>
8002724c: 00 00 00 00  	nop
80027250: ac 00 c1 8f  	lw	$1, 0xac($fp)
80027254: 40 08 01 00  	sll	$1, $1, 0x1
80027258: 44 00 c1 af  	sw	$1, 0x44($fp)
8002725c: c4 00 c1 af  	sw	$1, 0xc4($fp)
80027260: a8 00 c1 8f  	lw	$1, 0xa8($fp)
80027264: fe ff 22 24  	addiu	$2, $1, -0x2
80027268: 48 00 c2 af  	sw	$2, 0x48($fp)
8002726c: 02 00 21 2c  	sltiu	$1, $1, 0x2
80027270: 35 00 20 14  	bnez	$1, 0x80027348 <.text+0x7348>
80027274: 00 00 00 00  	nop
80027278: a7 9c 00 08  	j	0x2729c <.text+0x729c>
8002727c: 00 00 00 00  	nop
80027280: a8 00 c1 8f  	lw	$1, 0xa8($fp)
80027284: ff ff 22 24  	addiu	$2, $1, -0x1
80027288: 40 00 c2 af  	sw	$2, 0x40($fp)
8002728c: 4b 00 20 10  	beqz	$1, 0x800273bc <.text+0x73bc>
80027290: 00 00 00 00  	nop
80027294: e5 9c 00 08  	j	0x27394 <.text+0x7394>
80027298: 00 00 00 00  	nop
8002729c: 78 00 c1 8f  	lw	$1, 0x78($fp)
800272a0: 44 00 c2 8f  	lw	$2, 0x44($fp)
800272a4: 48 00 c3 8f  	lw	$3, 0x48($fp)
800272a8: a8 00 c3 af  	sw	$3, 0xa8($fp)
800272ac: 28 01 c1 af  	sw	$1, 0x128($fp)
800272b0: 2c 01 c2 af  	sw	$2, 0x12c($fp)
800272b4: 21 10 22 00  	addu	$2, $1, $2
800272b8: 38 00 c2 af  	sw	$2, 0x38($fp)
800272bc: a8 00 c3 8f  	lw	$3, 0xa8($fp)
800272c0: 81 00 c1 27  	addiu	$1, $fp, 0x81
800272c4: 58 01 c1 af  	sw	$1, 0x158($fp)
800272c8: 5c 01 c3 af  	sw	$3, 0x15c($fp)
800272cc: 21 08 23 00  	addu	$1, $1, $3
800272d0: 3c 00 c1 af  	sw	$1, 0x3c($fp)
800272d4: f4 00 c2 af  	sw	$2, 0xf4($fp)
800272d8: f8 00 c1 af  	sw	$1, 0xf8($fp)
800272dc: 02 00 01 24  	addiu	$1, $zero, 0x2
800272e0: fc 00 c1 af  	sw	$1, 0xfc($fp)
800272e4: b4 a9 00 0c  	jal	0x2a6d0 <.text+0xa6d0>
800272e8: 00 00 00 00  	nop
800272ec: 0e 00 40 10  	beqz	$2, 0x80027328 <.text+0x7328>
800272f0: 00 00 00 00  	nop
800272f4: bf 9c 00 08  	j	0x272fc <.text+0x72fc>
800272f8: 00 00 00 00  	nop
800272fc: 3c 00 c5 8f  	lw	$5, 0x3c($fp)
80027300: 38 00 c4 8f  	lw	$4, 0x38($fp)
80027304: 25 10 a0 03  	move	$2, $sp
80027308: 02 00 01 24  	addiu	$1, $zero, 0x2
8002730c: 10 00 41 ac  	sw	$1, 0x10($2)
80027310: 01 00 07 24  	addiu	$7, $zero, 0x1
80027314: 25 30 e0 00  	move	$6, $7
80027318: ca bc 00 0c  	jal	0x2f328 <.text+0xf328>
8002731c: 00 00 00 00  	nop
80027320: ca 9c 00 08  	j	0x27328 <.text+0x7328>
80027324: 00 00 00 00  	nop
80027328: 3c 00 c2 8f  	lw	$2, 0x3c($fp)
8002732c: 38 00 c1 8f  	lw	$1, 0x38($fp)
80027330: 01 00 23 90  	lbu	$3, 0x1($1)
80027334: 01 00 43 a0  	sb	$3, 0x1($2)
80027338: 00 00 21 90  	lbu	$1, 0x0($1)
8002733c: 00 00 41 a0  	sb	$1, 0x0($2)
80027340: d6 9c 00 08  	j	0x27358 <.text+0x7358>
80027344: 00 00 00 00  	nop
80027348: 03 80 01 3c  	lui	$1, 0x8003
8002734c: 90 10 24 24  	addiu	$4, $1, 0x1090
80027350: ce b2 00 0c  	jal	0x2cb38 <.text+0xcb38>
80027354: 00 00 00 00  	nop
80027358: a8 00 c2 8f  	lw	$2, 0xa8($fp)
8002735c: 81 00 c1 27  	addiu	$1, $fp, 0x81
80027360: 48 01 c1 af  	sw	$1, 0x148($fp)
80027364: 4c 01 c2 af  	sw	$2, 0x14c($fp)
80027368: 21 08 22 00  	addu	$1, $1, $2
8002736c: 30 00 c1 af  	sw	$1, 0x30($fp)
80027370: a8 00 c1 8f  	lw	$1, 0xa8($fp)
80027374: 27 00 02 24  	addiu	$2, $zero, 0x27
80027378: 23 10 41 00  	subu	$2, $2, $1
8002737c: 34 00 c2 af  	sw	$2, 0x34($fp)
80027380: 28 00 21 2c  	sltiu	$1, $1, 0x28
80027384: 3a 00 20 10  	beqz	$1, 0x80027470 <.text+0x7470>
80027388: 00 00 00 00  	nop
8002738c: 00 9d 00 08  	j	0x27400 <.text+0x7400>
80027390: 00 00 00 00  	nop
80027394: 40 00 c1 8f  	lw	$1, 0x40($fp)
80027398: a8 00 c1 af  	sw	$1, 0xa8($fp)
8002739c: ac 00 c1 93  	lbu	$1, 0xac($fp)
800273a0: 30 00 22 24  	addiu	$2, $1, 0x30
800273a4: 2c 00 c2 af  	sw	$2, 0x2c($fp)
800273a8: ff 00 41 30  	andi	$1, $2, 0xff
800273ac: 10 00 22 14  	bne	$1, $2, 0x800273f0 <.text+0x73f0>
800273b0: 00 00 00 00  	nop
800273b4: f3 9c 00 08  	j	0x273cc <.text+0x73cc>
800273b8: 00 00 00 00  	nop
800273bc: 03 80 01 3c  	lui	$1, 0x8003
800273c0: 90 10 24 24  	addiu	$4, $1, 0x1090
800273c4: ce b2 00 0c  	jal	0x2cb38 <.text+0xcb38>
800273c8: 00 00 00 00  	nop
800273cc: 2c 00 c1 8f  	lw	$1, 0x2c($fp)
800273d0: a8 00 c3 8f  	lw	$3, 0xa8($fp)
800273d4: 81 00 c2 27  	addiu	$2, $fp, 0x81
800273d8: 50 01 c2 af  	sw	$2, 0x150($fp)
800273dc: 54 01 c3 af  	sw	$3, 0x154($fp)
800273e0: 21 10 43 00  	addu	$2, $2, $3
800273e4: 00 00 41 a0  	sb	$1, 0x0($2)
800273e8: d6 9c 00 08  	j	0x27358 <.text+0x7358>
800273ec: 00 00 00 00  	nop
800273f0: 03 80 01 3c  	lui	$1, 0x8003
800273f4: 90 10 24 24  	addiu	$4, $1, 0x1090
800273f8: be b2 00 0c  	jal	0x2caf8 <.text+0xcaf8>
800273fc: 00 00 00 00  	nop
80027400: 34 00 c5 8f  	lw	$5, 0x34($fp)
80027404: 30 00 c4 8f  	lw	$4, 0x30($fp)
80027408: 7d a1 00 0c  	jal	0x285f4 <.text+0x85f4>
8002740c: 00 00 00 00  	nop
80027410: 25 20 40 00  	move	$4, $2
80027414: 25 28 60 00  	move	$5, $3
80027418: d2 9b 00 0c  	jal	0x26f48 <.text+0x6f48>
8002741c: 00 00 00 00  	nop
80027420: 6c 00 c1 8f  	lw	$1, 0x6c($fp)
80027424: 68 00 c4 8f  	lw	$4, 0x68($fp)
80027428: 25 28 60 00  	move	$5, $3
8002742c: c8 00 c2 af  	sw	$2, 0xc8($fp)
80027430: cc 00 c5 af  	sw	$5, 0xcc($fp)
80027434: 25 18 a0 03  	move	$3, $sp
80027438: 14 00 65 ac  	sw	$5, 0x14($3)
8002743c: 10 00 62 ac  	sw	$2, 0x10($3)
80027440: 01 00 25 30  	andi	$5, $1, 0x1
80027444: 03 80 01 3c  	lui	$1, 0x8003
80027448: a0 10 26 24  	addiu	$6, $1, 0x10a0
8002744c: 00 00 07 24  	addiu	$7, $zero, 0x0
80027450: a6 ad 00 0c  	jal	0x2b698 <.text+0xb698>
80027454: 00 00 00 00  	nop
80027458: 25 e8 c0 03  	move	$sp, $fp
8002745c: 78 01 be 8f  	lw	$fp, 0x178($sp)
80027460: 7c 01 bf 8f  	lw	$ra, 0x17c($sp)
80027464: 80 01 bd 27  	addiu	$sp, $sp, 0x180
80027468: 08 00 e0 03  	jr	$ra
8002746c: 00 00 00 00  	nop
80027470: 03 80 01 3c  	lui	$1, 0x8003
80027474: 90 10 24 24  	addiu	$4, $1, 0x1090
80027478: ce b2 00 0c  	jal	0x2cb38 <.text+0xcb38>
8002747c: 00 00 00 00  	nop
80027480: 78 00 c1 8f  	lw	$1, 0x78($fp)
80027484: 5c 00 c2 8f  	lw	$2, 0x5c($fp)
80027488: 64 00 c3 8f  	lw	$3, 0x64($fp)
8002748c: a8 00 c3 af  	sw	$3, 0xa8($fp)
80027490: 20 01 c1 af  	sw	$1, 0x120($fp)
80027494: 24 01 c2 af  	sw	$2, 0x124($fp)
80027498: 21 10 22 00  	addu	$2, $1, $2
8002749c: 24 00 c2 af  	sw	$2, 0x24($fp)
800274a0: a8 00 c3 8f  	lw	$3, 0xa8($fp)
800274a4: 81 00 c1 27  	addiu	$1, $fp, 0x81
800274a8: 40 01 c1 af  	sw	$1, 0x140($fp)
800274ac: 44 01 c3 af  	sw	$3, 0x144($fp)
800274b0: 21 08 23 00  	addu	$1, $1, $3
800274b4: 28 00 c1 af  	sw	$1, 0x28($fp)
800274b8: e8 00 c2 af  	sw	$2, 0xe8($fp)
800274bc: ec 00 c1 af  	sw	$1, 0xec($fp)
800274c0: 02 00 01 24  	addiu	$1, $zero, 0x2
800274c4: f0 00 c1 af  	sw	$1, 0xf0($fp)
800274c8: b4 a9 00 0c  	jal	0x2a6d0 <.text+0xa6d0>
800274cc: 00 00 00 00  	nop
800274d0: 0e 00 40 10  	beqz	$2, 0x8002750c <.text+0x750c>
800274d4: 00 00 00 00  	nop
800274d8: 38 9d 00 08  	j	0x274e0 <.text+0x74e0>
800274dc: 00 00 00 00  	nop
800274e0: 28 00 c5 8f  	lw	$5, 0x28($fp)
800274e4: 24 00 c4 8f  	lw	$4, 0x24($fp)
800274e8: 25 10 a0 03  	move	$2, $sp
800274ec: 02 00 01 24  	addiu	$1, $zero, 0x2
800274f0: 10 00 41 ac  	sw	$1, 0x10($2)
800274f4: 01 00 07 24  	addiu	$7, $zero, 0x1
800274f8: 25 30 e0 00  	move	$6, $7
800274fc: ca bc 00 0c  	jal	0x2f328 <.text+0xf328>
80027500: 00 00 00 00  	nop
80027504: 43 9d 00 08  	j	0x2750c <.text+0x750c>
80027508: 00 00 00 00  	nop
8002750c: 78 00 c1 8f  	lw	$1, 0x78($fp)
80027510: 60 00 c2 8f  	lw	$2, 0x60($fp)
80027514: 28 00 c4 8f  	lw	$4, 0x28($fp)
80027518: 24 00 c3 8f  	lw	$3, 0x24($fp)
8002751c: 01 00 65 90  	lbu	$5, 0x1($3)
80027520: 01 00 85 a0  	sb	$5, 0x1($4)
80027524: 00 00 63 90  	lbu	$3, 0x0($3)
80027528: 00 00 83 a0  	sb	$3, 0x0($4)
8002752c: 18 01 c1 af  	sw	$1, 0x118($fp)
80027530: 1c 01 c2 af  	sw	$2, 0x11c($fp)
80027534: 21 08 22 00  	addu	$1, $1, $2
80027538: 1c 00 c1 af  	sw	$1, 0x1c($fp)
8002753c: a8 00 c2 8f  	lw	$2, 0xa8($fp)
80027540: 02 00 41 24  	addiu	$1, $2, 0x2
80027544: 20 00 c1 af  	sw	$1, 0x20($fp)
80027548: 2b 08 22 00  	sltu	$1, $1, $2
8002754c: 2b 00 20 14  	bnez	$1, 0x800275fc <.text+0x75fc>
80027550: 00 00 00 00  	nop
80027554: 5b 9d 00 08  	j	0x2756c <.text+0x756c>
80027558: 00 00 00 00  	nop
8002755c: 03 80 01 3c  	lui	$1, 0x8003
80027560: 90 10 24 24  	addiu	$4, $1, 0x1090
80027564: ce b2 00 0c  	jal	0x2cb38 <.text+0xcb38>
80027568: 00 00 00 00  	nop
8002756c: 1c 00 c2 8f  	lw	$2, 0x1c($fp)
80027570: 20 00 c3 8f  	lw	$3, 0x20($fp)
80027574: 81 00 c1 27  	addiu	$1, $fp, 0x81
80027578: 38 01 c1 af  	sw	$1, 0x138($fp)
8002757c: 3c 01 c3 af  	sw	$3, 0x13c($fp)
80027580: 21 08 23 00  	addu	$1, $1, $3
80027584: 18 00 c1 af  	sw	$1, 0x18($fp)
80027588: dc 00 c2 af  	sw	$2, 0xdc($fp)
8002758c: e0 00 c1 af  	sw	$1, 0xe0($fp)
80027590: 02 00 01 24  	addiu	$1, $zero, 0x2
80027594: e4 00 c1 af  	sw	$1, 0xe4($fp)
80027598: b4 a9 00 0c  	jal	0x2a6d0 <.text+0xa6d0>
8002759c: 00 00 00 00  	nop
800275a0: 0e 00 40 10  	beqz	$2, 0x800275dc <.text+0x75dc>
800275a4: 00 00 00 00  	nop
800275a8: 6c 9d 00 08  	j	0x275b0 <.text+0x75b0>
800275ac: 00 00 00 00  	nop
800275b0: 18 00 c5 8f  	lw	$5, 0x18($fp)
800275b4: 1c 00 c4 8f  	lw	$4, 0x1c($fp)
800275b8: 25 10 a0 03  	move	$2, $sp
800275bc: 02 00 01 24  	addiu	$1, $zero, 0x2
800275c0: 10 00 41 ac  	sw	$1, 0x10($2)
800275c4: 01 00 07 24  	addiu	$7, $zero, 0x1
800275c8: 25 30 e0 00  	move	$6, $7
800275cc: ca bc 00 0c  	jal	0x2f328 <.text+0xf328>
800275d0: 00 00 00 00  	nop
800275d4: 77 9d 00 08  	j	0x275dc <.text+0x75dc>
800275d8: 00 00 00 00  	nop
800275dc: 18 00 c2 8f  	lw	$2, 0x18($fp)
800275e0: 1c 00 c1 8f  	lw	$1, 0x1c($fp)
800275e4: 01 00 23 90  	lbu	$3, 0x1($1)
800275e8: 01 00 43 a0  	sb	$3, 0x1($2)
800275ec: 00 00 21 90  	lbu	$1, 0x0($1)
800275f0: 00 00 41 a0  	sb	$1, 0x0($2)
800275f4: 0c 9c 00 08  	j	0x27030 <.text+0x7030>
800275f8: 00 00 00 00  	nop
800275fc: 03 80 01 3c  	lui	$1, 0x8003
80027600: 90 10 24 24  	addiu	$4, $1, 0x1090
80027604: be b2 00 0c  	jal	0x2caf8 <.text+0xcaf8>
80027608: 00 00 00 00  	nop
8002760c: c0 ff bd 27  	addiu	$sp, $sp, -0x40
80027610: 3c 00 bf af  	sw	$ra, 0x3c($sp)
80027614: 38 00 be af  	sw	$fp, 0x38($sp)
80027618: 25 f0 a0 03  	move	$fp, $sp
8002761c: 14 00 c5 af  	sw	$5, 0x14($fp)
80027620: 18 00 c4 af  	sw	$4, 0x18($fp)
80027624: 24 00 c4 af  	sw	$4, 0x24($fp)
80027628: 28 00 c5 af  	sw	$5, 0x28($fp)
8002762c: 01 00 01 24  	addiu	$1, $zero, 0x1
80027630: 1c 00 c1 af  	sw	$1, 0x1c($fp)
80027634: 2f 00 c1 a3  	sb	$1, 0x2f($fp)
80027638: 0f 00 20 14  	bnez	$1, 0x80027678 <.text+0x7678>
8002763c: 00 00 00 00  	nop
80027640: 92 9d 00 08  	j	0x27648 <.text+0x7648>
80027644: 00 00 00 00  	nop
80027648: 18 00 c4 8f  	lw	$4, 0x18($fp)
8002764c: 72 93 00 0c  	jal	0x24dc8 <.text+0x4dc8>
80027650: 00 00 00 00  	nop
80027654: 27 08 40 00  	not	$1, $2
80027658: 30 00 c1 af  	sw	$1, 0x30($fp)
8002765c: 01 00 01 24  	addiu	$1, $zero, 0x1
80027660: 34 00 c1 af  	sw	$1, 0x34($fp)
80027664: 00 00 01 24  	addiu	$1, $zero, 0x0
80027668: 23 08 02 00  	negu	$1, $2
8002766c: 20 00 c1 af  	sw	$1, 0x20($fp)
80027670: a4 9d 00 08  	j	0x27690 <.text+0x7690>
80027674: 00 00 00 00  	nop
80027678: 18 00 c4 8f  	lw	$4, 0x18($fp)
8002767c: 72 93 00 0c  	jal	0x24dc8 <.text+0x4dc8>
80027680: 00 00 00 00  	nop
80027684: 20 00 c2 af  	sw	$2, 0x20($fp)
80027688: a4 9d 00 08  	j	0x27690 <.text+0x7690>
8002768c: 00 00 00 00  	nop
80027690: 14 00 c6 8f  	lw	$6, 0x14($fp)
80027694: 1c 00 c1 8f  	lw	$1, 0x1c($fp)
80027698: 20 00 c4 8f  	lw	$4, 0x20($fp)
8002769c: 01 00 25 30  	andi	$5, $1, 0x1
800276a0: e0 9b 00 0c  	jal	0x26f80 <.text+0x6f80>
800276a4: 00 00 00 00  	nop
800276a8: 25 e8 c0 03  	move	$sp, $fp
800276ac: 38 00 be 8f  	lw	$fp, 0x38($sp)
800276b0: 3c 00 bf 8f  	lw	$ra, 0x3c($sp)
800276b4: 40 00 bd 27  	addiu	$sp, $sp, 0x40
800276b8: 08 00 e0 03  	jr	$ra
800276bc: 00 00 00 00  	nop
800276c0: c0 ff bd 27  	addiu	$sp, $sp, -0x40
800276c4: 3c 00 bf af  	sw	$ra, 0x3c($sp)
800276c8: 38 00 be af  	sw	$fp, 0x38($sp)
800276cc: 25 f0 a0 03  	move	$fp, $sp
800276d0: 14 00 c5 af  	sw	$5, 0x14($fp)
800276d4: 18 00 c4 af  	sw	$4, 0x18($fp)
800276d8: 24 00 c4 af  	sw	$4, 0x24($fp)
800276dc: 28 00 c5 af  	sw	$5, 0x28($fp)
800276e0: 01 00 01 24  	addiu	$1, $zero, 0x1
800276e4: 1c 00 c1 af  	sw	$1, 0x1c($fp)
800276e8: 2f 00 c1 a3  	sb	$1, 0x2f($fp)
800276ec: 0f 00 20 14  	bnez	$1, 0x8002772c <.text+0x772c>
800276f0: 00 00 00 00  	nop
800276f4: bf 9d 00 08  	j	0x276fc <.text+0x76fc>
800276f8: 00 00 00 00  	nop
800276fc: 18 00 c4 8f  	lw	$4, 0x18($fp)
80027700: a1 93 00 0c  	jal	0x24e84 <.text+0x4e84>
80027704: 00 00 00 00  	nop
80027708: 27 08 40 00  	not	$1, $2
8002770c: 30 00 c1 af  	sw	$1, 0x30($fp)
80027710: 01 00 01 24  	addiu	$1, $zero, 0x1
80027714: 34 00 c1 af  	sw	$1, 0x34($fp)
80027718: 00 00 01 24  	addiu	$1, $zero, 0x0
8002771c: 23 08 02 00  	negu	$1, $2
80027720: 20 00 c1 af  	sw	$1, 0x20($fp)
80027724: d1 9d 00 08  	j	0x27744 <.text+0x7744>
80027728: 00 00 00 00  	nop
8002772c: 18 00 c4 8f  	lw	$4, 0x18($fp)
80027730: a1 93 00 0c  	jal	0x24e84 <.text+0x4e84>
80027734: 00 00 00 00  	nop
80027738: 20 00 c2 af  	sw	$2, 0x20($fp)
8002773c: d1 9d 00 08  	j	0x27744 <.text+0x7744>
80027740: 00 00 00 00  	nop
80027744: 14 00 c6 8f  	lw	$6, 0x14($fp)
80027748: 1c 00 c1 8f  	lw	$1, 0x1c($fp)
8002774c: 20 00 c4 8f  	lw	$4, 0x20($fp)
80027750: 01 00 25 30  	andi	$5, $1, 0x1
80027754: e0 9b 00 0c  	jal	0x26f80 <.text+0x6f80>
80027758: 00 00 00 00  	nop
8002775c: 25 e8 c0 03  	move	$sp, $fp
80027760: 38 00 be 8f  	lw	$fp, 0x38($sp)
80027764: 3c 00 bf 8f  	lw	$ra, 0x3c($sp)
80027768: 40 00 bd 27  	addiu	$sp, $sp, 0x40
8002776c: 08 00 e0 03  	jr	$ra
80027770: 00 00 00 00  	nop
80027774: c0 ff bd 27  	addiu	$sp, $sp, -0x40
80027778: 3c 00 bf af  	sw	$ra, 0x3c($sp)
8002777c: 38 00 be af  	sw	$fp, 0x38($sp)
80027780: 25 f0 a0 03  	move	$fp, $sp
80027784: 14 00 c5 af  	sw	$5, 0x14($fp)
80027788: 18 00 c4 af  	sw	$4, 0x18($fp)
8002778c: 24 00 c4 af  	sw	$4, 0x24($fp)
80027790: 28 00 c5 af  	sw	$5, 0x28($fp)
80027794: 01 00 01 24  	addiu	$1, $zero, 0x1
80027798: 1c 00 c1 af  	sw	$1, 0x1c($fp)
8002779c: 2f 00 c1 a3  	sb	$1, 0x2f($fp)
800277a0: 0f 00 20 14  	bnez	$1, 0x800277e0 <.text+0x77e0>
800277a4: 00 00 00 00  	nop
800277a8: ec 9d 00 08  	j	0x277b0 <.text+0x77b0>
800277ac: 00 00 00 00  	nop
800277b0: 18 00 c4 8f  	lw	$4, 0x18($fp)
800277b4: ad 93 00 0c  	jal	0x24eb4 <.text+0x4eb4>
800277b8: 00 00 00 00  	nop
800277bc: 27 08 40 00  	not	$1, $2
800277c0: 30 00 c1 af  	sw	$1, 0x30($fp)
800277c4: 01 00 01 24  	addiu	$1, $zero, 0x1
800277c8: 34 00 c1 af  	sw	$1, 0x34($fp)
800277cc: 00 00 01 24  	addiu	$1, $zero, 0x0
800277d0: 23 08 02 00  	negu	$1, $2
800277d4: 20 00 c1 af  	sw	$1, 0x20($fp)
800277d8: fe 9d 00 08  	j	0x277f8 <.text+0x77f8>
800277dc: 00 00 00 00  	nop
800277e0: 18 00 c4 8f  	lw	$4, 0x18($fp)
800277e4: ad 93 00 0c  	jal	0x24eb4 <.text+0x4eb4>
800277e8: 00 00 00 00  	nop
800277ec: 20 00 c2 af  	sw	$2, 0x20($fp)
800277f0: fe 9d 00 08  	j	0x277f8 <.text+0x77f8>
800277f4: 00 00 00 00  	nop
800277f8: 14 00 c6 8f  	lw	$6, 0x14($fp)
800277fc: 1c 00 c1 8f  	lw	$1, 0x1c($fp)
80027800: 20 00 c4 8f  	lw	$4, 0x20($fp)
80027804: 01 00 25 30  	andi	$5, $1, 0x1
80027808: e0 9b 00 0c  	jal	0x26f80 <.text+0x6f80>
8002780c: 00 00 00 00  	nop
80027810: 25 e8 c0 03  	move	$sp, $fp
80027814: 38 00 be 8f  	lw	$fp, 0x38($sp)
80027818: 3c 00 bf 8f  	lw	$ra, 0x3c($sp)
8002781c: 40 00 bd 27  	addiu	$sp, $sp, 0x40
80027820: 08 00 e0 03  	jr	$ra
80027824: 00 00 00 00  	nop
80027828: d0 ff bd 27  	addiu	$sp, $sp, -0x30
8002782c: 2c 00 bf af  	sw	$ra, 0x2c($sp)
80027830: 28 00 be af  	sw	$fp, 0x28($sp)
80027834: 25 f0 a0 03  	move	$fp, $sp
80027838: 18 00 c5 af  	sw	$5, 0x18($fp)
8002783c: 14 00 c4 af  	sw	$4, 0x14($fp)
80027840: 20 00 c4 af  	sw	$4, 0x20($fp)
80027844: 26 00 c5 a3  	sb	$5, 0x26($fp)
80027848: 23 9f 00 0c  	jal	0x27c8c <.text+0x7c8c>
8002784c: 00 00 00 00  	nop
80027850: 14 00 c4 8f  	lw	$4, 0x14($fp)
80027854: 18 00 c5 8f  	lw	$5, 0x18($fp)
80027858: 1c 00 c2 af  	sw	$2, 0x1c($fp)
8002785c: 27 00 c2 a3  	sb	$2, 0x27($fp)
80027860: 74 9f 00 0c  	jal	0x27dd0 <.text+0x7dd0>
80027864: 00 00 00 00  	nop
80027868: 1c 00 c2 8f  	lw	$2, 0x1c($fp)
8002786c: 25 e8 c0 03  	move	$sp, $fp
80027870: 28 00 be 8f  	lw	$fp, 0x28($sp)
80027874: 2c 00 bf 8f  	lw	$ra, 0x2c($sp)
80027878: 30 00 bd 27  	addiu	$sp, $sp, 0x30
8002787c: 08 00 e0 03  	jr	$ra
80027880: 00 00 00 00  	nop
80027884: d0 ff bd 27  	addiu	$sp, $sp, -0x30
80027888: 2c 00 bf af  	sw	$ra, 0x2c($sp)
8002788c: 28 00 be af  	sw	$fp, 0x28($sp)
80027890: 25 f0 a0 03  	move	$fp, $sp
80027894: 14 00 c5 af  	sw	$5, 0x14($fp)
80027898: 10 00 c4 af  	sw	$4, 0x10($fp)
8002789c: 1c 00 c4 af  	sw	$4, 0x1c($fp)
800278a0: 20 00 c5 af  	sw	$5, 0x20($fp)
800278a4: 3d 9f 00 0c  	jal	0x27cf4 <.text+0x7cf4>
800278a8: 00 00 00 00  	nop
800278ac: 10 00 c4 8f  	lw	$4, 0x10($fp)
800278b0: 14 00 c5 8f  	lw	$5, 0x14($fp)
800278b4: 18 00 c2 af  	sw	$2, 0x18($fp)
800278b8: 24 00 c2 af  	sw	$2, 0x24($fp)
800278bc: 57 9f 00 0c  	jal	0x27d5c <.text+0x7d5c>
800278c0: 00 00 00 00  	nop
800278c4: 18 00 c2 8f  	lw	$2, 0x18($fp)
800278c8: 25 e8 c0 03  	move	$sp, $fp
800278cc: 28 00 be 8f  	lw	$fp, 0x28($sp)
800278d0: 2c 00 bf 8f  	lw	$ra, 0x2c($sp)
800278d4: 30 00 bd 27  	addiu	$sp, $sp, 0x30
800278d8: 08 00 e0 03  	jr	$ra
800278dc: 00 00 00 00  	nop
800278e0: e8 ff bd 27  	addiu	$sp, $sp, -0x18
800278e4: 14 00 bf af  	sw	$ra, 0x14($sp)
800278e8: 10 00 be af  	sw	$fp, 0x10($sp)
800278ec: 25 f0 a0 03  	move	$fp, $sp
800278f0: 08 00 c4 af  	sw	$4, 0x8($fp)
800278f4: 0c 00 c5 af  	sw	$5, 0xc($fp)
800278f8: 00 00 c4 af  	sw	$4, 0x0($fp)
800278fc: 04 00 c5 af  	sw	$5, 0x4($fp)
80027900: 04 00 c2 8f  	lw	$2, 0x4($fp)
80027904: 25 e8 c0 03  	move	$sp, $fp
80027908: 10 00 be 8f  	lw	$fp, 0x10($sp)
8002790c: 14 00 bf 8f  	lw	$ra, 0x14($sp)
80027910: 18 00 bd 27  	addiu	$sp, $sp, 0x18
80027914: 08 00 e0 03  	jr	$ra
80027918: 00 00 00 00  	nop
8002791c: e8 ff bd 27  	addiu	$sp, $sp, -0x18
80027920: 14 00 bf af  	sw	$ra, 0x14($sp)
80027924: 10 00 be af  	sw	$fp, 0x10($sp)
80027928: 25 f0 a0 03  	move	$fp, $sp
8002792c: 08 00 c4 af  	sw	$4, 0x8($fp)
80027930: 0c 00 c5 af  	sw	$5, 0xc($fp)
80027934: 00 00 c4 af  	sw	$4, 0x0($fp)
80027938: 04 00 c5 af  	sw	$5, 0x4($fp)
8002793c: 04 00 c2 8f  	lw	$2, 0x4($fp)
80027940: 25 e8 c0 03  	move	$sp, $fp
80027944: 10 00 be 8f  	lw	$fp, 0x10($sp)
80027948: 14 00 bf 8f  	lw	$ra, 0x14($sp)
8002794c: 18 00 bd 27  	addiu	$sp, $sp, 0x18
80027950: 08 00 e0 03  	jr	$ra
80027954: 00 00 00 00  	nop
80027958: e8 ff bd 27  	addiu	$sp, $sp, -0x18
8002795c: 14 00 bf af  	sw	$ra, 0x14($sp)
80027960: 10 00 be af  	sw	$fp, 0x10($sp)
80027964: 25 f0 a0 03  	move	$fp, $sp
80027968: 08 00 c4 af  	sw	$4, 0x8($fp)
8002796c: 0c 00 c5 af  	sw	$5, 0xc($fp)
80027970: 00 00 c4 af  	sw	$4, 0x0($fp)
80027974: 04 00 c5 af  	sw	$5, 0x4($fp)
80027978: 04 00 c2 8f  	lw	$2, 0x4($fp)
8002797c: 25 e8 c0 03  	move	$sp, $fp
80027980: 10 00 be 8f  	lw	$fp, 0x10($sp)
80027984: 14 00 bf 8f  	lw	$ra, 0x14($sp)
80027988: 18 00 bd 27  	addiu	$sp, $sp, 0x18
8002798c: 08 00 e0 03  	jr	$ra
80027990: 00 00 00 00  	nop
80027994: e8 ff bd 27  	addiu	$sp, $sp, -0x18
80027998: 14 00 bf af  	sw	$ra, 0x14($sp)
8002799c: 10 00 be af  	sw	$fp, 0x10($sp)
800279a0: 25 f0 a0 03  	move	$fp, $sp
800279a4: 08 00 c4 af  	sw	$4, 0x8($fp)
800279a8: 0c 00 c5 af  	sw	$5, 0xc($fp)
800279ac: 00 00 c4 af  	sw	$4, 0x0($fp)
800279b0: 04 00 c5 af  	sw	$5, 0x4($fp)
800279b4: 04 00 c2 8f  	lw	$2, 0x4($fp)
800279b8: 25 e8 c0 03  	move	$sp, $fp
800279bc: 10 00 be 8f  	lw	$fp, 0x10($sp)
800279c0: 14 00 bf 8f  	lw	$ra, 0x14($sp)
800279c4: 18 00 bd 27  	addiu	$sp, $sp, 0x18
800279c8: 08 00 e0 03  	jr	$ra
800279cc: 00 00 00 00  	nop
800279d0: e0 ff bd 27  	addiu	$sp, $sp, -0x20
800279d4: 1c 00 bf af  	sw	$ra, 0x1c($sp)
800279d8: 18 00 be af  	sw	$fp, 0x18($sp)
800279dc: 25 f0 a0 03  	move	$fp, $sp
800279e0: 10 00 c4 af  	sw	$4, 0x10($fp)
800279e4: 14 00 c5 af  	sw	$5, 0x14($fp)
800279e8: 08 00 c4 af  	sw	$4, 0x8($fp)
800279ec: 0c 00 c5 af  	sw	$5, 0xc($fp)
800279f0: 08 00 c2 8f  	lw	$2, 0x8($fp)
800279f4: 0c 00 c1 8f  	lw	$1, 0xc($fp)
800279f8: 00 00 c2 af  	sw	$2, 0x0($fp)
800279fc: 04 00 c1 af  	sw	$1, 0x4($fp)
80027a00: 00 00 c2 8f  	lw	$2, 0x0($fp)
80027a04: 04 00 c3 8f  	lw	$3, 0x4($fp)
80027a08: 25 e8 c0 03  	move	$sp, $fp
80027a0c: 18 00 be 8f  	lw	$fp, 0x18($sp)
80027a10: 1c 00 bf 8f  	lw	$ra, 0x1c($sp)
80027a14: 20 00 bd 27  	addiu	$sp, $sp, 0x20
80027a18: 08 00 e0 03  	jr	$ra
80027a1c: 00 00 00 00  	nop
80027a20: e0 ff bd 27  	addiu	$sp, $sp, -0x20
80027a24: 1c 00 bf af  	sw	$ra, 0x1c($sp)
80027a28: 18 00 be af  	sw	$fp, 0x18($sp)
80027a2c: 25 f0 a0 03  	move	$fp, $sp
80027a30: 10 00 c4 af  	sw	$4, 0x10($fp)
80027a34: 14 00 c5 af  	sw	$5, 0x14($fp)
80027a38: 08 00 c4 af  	sw	$4, 0x8($fp)
80027a3c: 0c 00 c5 af  	sw	$5, 0xc($fp)
80027a40: 08 00 c2 8f  	lw	$2, 0x8($fp)
80027a44: 0c 00 c1 8f  	lw	$1, 0xc($fp)
80027a48: 00 00 c2 af  	sw	$2, 0x0($fp)
80027a4c: 04 00 c1 af  	sw	$1, 0x4($fp)
80027a50: 00 00 c2 8f  	lw	$2, 0x0($fp)
80027a54: 04 00 c3 8f  	lw	$3, 0x4($fp)
80027a58: 25 e8 c0 03  	move	$sp, $fp
80027a5c: 18 00 be 8f  	lw	$fp, 0x18($sp)
80027a60: 1c 00 bf 8f  	lw	$ra, 0x1c($sp)
80027a64: 20 00 bd 27  	addiu	$sp, $sp, 0x20
80027a68: 08 00 e0 03  	jr	$ra
80027a6c: 00 00 00 00  	nop
80027a70: e0 ff bd 27  	addiu	$sp, $sp, -0x20
80027a74: 1c 00 bf af  	sw	$ra, 0x1c($sp)
80027a78: 18 00 be af  	sw	$fp, 0x18($sp)
80027a7c: 25 f0 a0 03  	move	$fp, $sp
80027a80: 10 00 c4 af  	sw	$4, 0x10($fp)
80027a84: 14 00 c5 af  	sw	$5, 0x14($fp)
80027a88: 08 00 c4 af  	sw	$4, 0x8($fp)
80027a8c: 0c 00 c5 af  	sw	$5, 0xc($fp)
80027a90: 08 00 c2 8f  	lw	$2, 0x8($fp)
80027a94: 0c 00 c1 8f  	lw	$1, 0xc($fp)
80027a98: 00 00 c2 af  	sw	$2, 0x0($fp)
80027a9c: 04 00 c1 af  	sw	$1, 0x4($fp)
80027aa0: 00 00 c2 8f  	lw	$2, 0x0($fp)
80027aa4: 04 00 c3 8f  	lw	$3, 0x4($fp)
80027aa8: 25 e8 c0 03  	move	$sp, $fp
80027aac: 18 00 be 8f  	lw	$fp, 0x18($sp)
80027ab0: 1c 00 bf 8f  	lw	$ra, 0x1c($sp)
80027ab4: 20 00 bd 27  	addiu	$sp, $sp, 0x20
80027ab8: 08 00 e0 03  	jr	$ra
80027abc: 00 00 00 00  	nop
80027ac0: e0 ff bd 27  	addiu	$sp, $sp, -0x20
80027ac4: 1c 00 bf af  	sw	$ra, 0x1c($sp)
80027ac8: 18 00 be af  	sw	$fp, 0x18($sp)
80027acc: 25 f0 a0 03  	move	$fp, $sp
80027ad0: 10 00 c4 af  	sw	$4, 0x10($fp)
80027ad4: 14 00 c5 af  	sw	$5, 0x14($fp)
80027ad8: 08 00 c4 af  	sw	$4, 0x8($fp)
80027adc: 0c 00 c5 af  	sw	$5, 0xc($fp)
80027ae0: 08 00 c2 8f  	lw	$2, 0x8($fp)
80027ae4: 0c 00 c1 8f  	lw	$1, 0xc($fp)
80027ae8: 00 00 c2 af  	sw	$2, 0x0($fp)
80027aec: 04 00 c1 af  	sw	$1, 0x4($fp)
80027af0: 00 00 c2 8f  	lw	$2, 0x0($fp)
80027af4: 04 00 c3 8f  	lw	$3, 0x4($fp)
80027af8: 25 e8 c0 03  	move	$sp, $fp
80027afc: 18 00 be 8f  	lw	$fp, 0x18($sp)
80027b00: 1c 00 bf 8f  	lw	$ra, 0x1c($sp)
80027b04: 20 00 bd 27  	addiu	$sp, $sp, 0x20
80027b08: 08 00 e0 03  	jr	$ra
80027b0c: 00 00 00 00  	nop
80027b10: e0 ff bd 27  	addiu	$sp, $sp, -0x20
80027b14: 1c 00 bf af  	sw	$ra, 0x1c($sp)
80027b18: 18 00 be af  	sw	$fp, 0x18($sp)
80027b1c: 25 f0 a0 03  	move	$fp, $sp
80027b20: 10 00 c4 af  	sw	$4, 0x10($fp)
80027b24: 14 00 c5 af  	sw	$5, 0x14($fp)
80027b28: 08 00 c4 af  	sw	$4, 0x8($fp)
80027b2c: 0c 00 c5 af  	sw	$5, 0xc($fp)
80027b30: 08 00 c2 8f  	lw	$2, 0x8($fp)
80027b34: 0c 00 c1 8f  	lw	$1, 0xc($fp)
80027b38: 00 00 c2 af  	sw	$2, 0x0($fp)
80027b3c: 04 00 c1 af  	sw	$1, 0x4($fp)
80027b40: 00 00 c2 8f  	lw	$2, 0x0($fp)
80027b44: 04 00 c3 8f  	lw	$3, 0x4($fp)
80027b48: 25 e8 c0 03  	move	$sp, $fp
80027b4c: 18 00 be 8f  	lw	$fp, 0x18($sp)
80027b50: 1c 00 bf 8f  	lw	$ra, 0x1c($sp)
80027b54: 20 00 bd 27  	addiu	$sp, $sp, 0x20
80027b58: 08 00 e0 03  	jr	$ra
80027b5c: 00 00 00 00  	nop
80027b60: d8 ff bd 27  	addiu	$sp, $sp, -0x28
80027b64: 24 00 bf af  	sw	$ra, 0x24($sp)
80027b68: 20 00 be af  	sw	$fp, 0x20($sp)
80027b6c: 25 f0 a0 03  	move	$fp, $sp
80027b70: 14 00 c4 af  	sw	$4, 0x14($fp)
80027b74: 18 00 c5 af  	sw	$5, 0x18($fp)
80027b78: 1c 00 c4 af  	sw	$4, 0x1c($fp)
80027b7c: 88 9e 00 0c  	jal	0x27a20 <.text+0x7a20>
80027b80: 00 00 00 00  	nop
80027b84: 25 e8 c0 03  	move	$sp, $fp
80027b88: 20 00 be 8f  	lw	$fp, 0x20($sp)
80027b8c: 24 00 bf 8f  	lw	$ra, 0x24($sp)
80027b90: 28 00 bd 27  	addiu	$sp, $sp, 0x28
80027b94: 08 00 e0 03  	jr	$ra
80027b98: 00 00 00 00  	nop
80027b9c: d8 ff bd 27  	addiu	$sp, $sp, -0x28
80027ba0: 24 00 bf af  	sw	$ra, 0x24($sp)
80027ba4: 20 00 be af  	sw	$fp, 0x20($sp)
80027ba8: 25 f0 a0 03  	move	$fp, $sp
80027bac: 14 00 c4 af  	sw	$4, 0x14($fp)
80027bb0: 18 00 c5 af  	sw	$5, 0x18($fp)
80027bb4: 1c 00 c4 af  	sw	$4, 0x1c($fp)
80027bb8: 9c 9e 00 0c  	jal	0x27a70 <.text+0x7a70>
80027bbc: 00 00 00 00  	nop
80027bc0: 25 e8 c0 03  	move	$sp, $fp
80027bc4: 20 00 be 8f  	lw	$fp, 0x20($sp)
80027bc8: 24 00 bf 8f  	lw	$ra, 0x24($sp)
80027bcc: 28 00 bd 27  	addiu	$sp, $sp, 0x28
80027bd0: 08 00 e0 03  	jr	$ra
80027bd4: 00 00 00 00  	nop
80027bd8: d8 ff bd 27  	addiu	$sp, $sp, -0x28
80027bdc: 24 00 bf af  	sw	$ra, 0x24($sp)
80027be0: 20 00 be af  	sw	$fp, 0x20($sp)
80027be4: 25 f0 a0 03  	move	$fp, $sp
80027be8: 14 00 c4 af  	sw	$4, 0x14($fp)
80027bec: 18 00 c5 af  	sw	$5, 0x18($fp)
80027bf0: 1c 00 c4 af  	sw	$4, 0x1c($fp)
80027bf4: b0 9e 00 0c  	jal	0x27ac0 <.text+0x7ac0>
80027bf8: 00 00 00 00  	nop
80027bfc: 25 e8 c0 03  	move	$sp, $fp
80027c00: 20 00 be 8f  	lw	$fp, 0x20($sp)
80027c04: 24 00 bf 8f  	lw	$ra, 0x24($sp)
80027c08: 28 00 bd 27  	addiu	$sp, $sp, 0x28
80027c0c: 08 00 e0 03  	jr	$ra
80027c10: 00 00 00 00  	nop
80027c14: d8 ff bd 27  	addiu	$sp, $sp, -0x28
80027c18: 24 00 bf af  	sw	$ra, 0x24($sp)
80027c1c: 20 00 be af  	sw	$fp, 0x20($sp)
80027c20: 25 f0 a0 03  	move	$fp, $sp
80027c24: 14 00 c4 af  	sw	$4, 0x14($fp)
80027c28: 18 00 c5 af  	sw	$5, 0x18($fp)
80027c2c: 1c 00 c4 af  	sw	$4, 0x1c($fp)
80027c30: 74 9e 00 0c  	jal	0x279d0 <.text+0x79d0>
80027c34: 00 00 00 00  	nop
80027c38: 25 e8 c0 03  	move	$sp, $fp
80027c3c: 20 00 be 8f  	lw	$fp, 0x20($sp)
80027c40: 24 00 bf 8f  	lw	$ra, 0x24($sp)
80027c44: 28 00 bd 27  	addiu	$sp, $sp, 0x28
80027c48: 08 00 e0 03  	jr	$ra
80027c4c: 00 00 00 00  	nop
80027c50: d8 ff bd 27  	addiu	$sp, $sp, -0x28
80027c54: 24 00 bf af  	sw	$ra, 0x24($sp)
80027c58: 20 00 be af  	sw	$fp, 0x20($sp)
80027c5c: 25 f0 a0 03  	move	$fp, $sp
80027c60: 14 00 c4 af  	sw	$4, 0x14($fp)
80027c64: 18 00 c5 af  	sw	$5, 0x18($fp)
80027c68: 1c 00 c4 af  	sw	$4, 0x1c($fp)
80027c6c: c4 9e 00 0c  	jal	0x27b10 <.text+0x7b10>
80027c70: 00 00 00 00  	nop
80027c74: 25 e8 c0 03  	move	$sp, $fp
80027c78: 20 00 be 8f  	lw	$fp, 0x20($sp)
80027c7c: 24 00 bf 8f  	lw	$ra, 0x24($sp)
80027c80: 28 00 bd 27  	addiu	$sp, $sp, 0x28
80027c84: 08 00 e0 03  	jr	$ra
80027c88: 00 00 00 00  	nop
80027c8c: e0 ff bd 27  	addiu	$sp, $sp, -0x20
80027c90: 1c 00 bf af  	sw	$ra, 0x1c($sp)
80027c94: 18 00 be af  	sw	$fp, 0x18($sp)
80027c98: 25 f0 a0 03  	move	$fp, $sp
80027c9c: 10 00 c4 af  	sw	$4, 0x10($fp)
80027ca0: 14 00 c4 af  	sw	$4, 0x14($fp)
80027ca4: b4 a9 00 0c  	jal	0x2a6d0 <.text+0xa6d0>
80027ca8: 00 00 00 00  	nop
80027cac: 0b 00 40 14  	bnez	$2, 0x80027cdc <.text+0x7cdc>
80027cb0: 00 00 00 00  	nop
80027cb4: 2f 9f 00 08  	j	0x27cbc <.text+0x7cbc>
80027cb8: 00 00 00 00  	nop
80027cbc: 10 00 c1 8f  	lw	$1, 0x10($fp)
80027cc0: 00 00 22 90  	lbu	$2, 0x0($1)
80027cc4: 25 e8 c0 03  	move	$sp, $fp
80027cc8: 18 00 be 8f  	lw	$fp, 0x18($sp)
80027ccc: 1c 00 bf 8f  	lw	$ra, 0x1c($sp)
80027cd0: 20 00 bd 27  	addiu	$sp, $sp, 0x20
80027cd4: 08 00 e0 03  	jr	$ra
80027cd8: 00 00 00 00  	nop
80027cdc: 10 00 c4 8f  	lw	$4, 0x10($fp)
80027ce0: 01 00 05 24  	addiu	$5, $zero, 0x1
80027ce4: e4 a4 00 0c  	jal	0x29390 <.text+0x9390>
80027ce8: 00 00 00 00  	nop
80027cec: 2f 9f 00 08  	j	0x27cbc <.text+0x7cbc>
80027cf0: 00 00 00 00  	nop
80027cf4: e0 ff bd 27  	addiu	$sp, $sp, -0x20
80027cf8: 1c 00 bf af  	sw	$ra, 0x1c($sp)
80027cfc: 18 00 be af  	sw	$fp, 0x18($sp)
80027d00: 25 f0 a0 03  	move	$fp, $sp
80027d04: 10 00 c4 af  	sw	$4, 0x10($fp)
80027d08: 14 00 c4 af  	sw	$4, 0x14($fp)
80027d0c: b4 a9 00 0c  	jal	0x2a6d0 <.text+0xa6d0>
80027d10: 00 00 00 00  	nop
80027d14: 0b 00 40 14  	bnez	$2, 0x80027d44 <.text+0x7d44>
80027d18: 00 00 00 00  	nop
80027d1c: 49 9f 00 08  	j	0x27d24 <.text+0x7d24>
80027d20: 00 00 00 00  	nop
80027d24: 10 00 c1 8f  	lw	$1, 0x10($fp)
80027d28: 00 00 22 8c  	lw	$2, 0x0($1)
80027d2c: 25 e8 c0 03  	move	$sp, $fp
80027d30: 18 00 be 8f  	lw	$fp, 0x18($sp)
80027d34: 1c 00 bf 8f  	lw	$ra, 0x1c($sp)
80027d38: 20 00 bd 27  	addiu	$sp, $sp, 0x20
80027d3c: 08 00 e0 03  	jr	$ra
80027d40: 00 00 00 00  	nop
80027d44: 10 00 c4 8f  	lw	$4, 0x10($fp)
80027d48: 04 00 05 24  	addiu	$5, $zero, 0x4
80027d4c: e4 a4 00 0c  	jal	0x29390 <.text+0x9390>
80027d50: 00 00 00 00  	nop
80027d54: 49 9f 00 08  	j	0x27d24 <.text+0x7d24>
80027d58: 00 00 00 00  	nop
80027d5c: d8 ff bd 27  	addiu	$sp, $sp, -0x28
80027d60: 24 00 bf af  	sw	$ra, 0x24($sp)
80027d64: 20 00 be af  	sw	$fp, 0x20($sp)
80027d68: 25 f0 a0 03  	move	$fp, $sp
80027d6c: 10 00 c5 af  	sw	$5, 0x10($fp)
80027d70: 14 00 c4 af  	sw	$4, 0x14($fp)
80027d74: 18 00 c4 af  	sw	$4, 0x18($fp)
80027d78: 1c 00 c5 af  	sw	$5, 0x1c($fp)
80027d7c: b4 a9 00 0c  	jal	0x2a6d0 <.text+0xa6d0>
80027d80: 00 00 00 00  	nop
80027d84: 0c 00 40 14  	bnez	$2, 0x80027db8 <.text+0x7db8>
80027d88: 00 00 00 00  	nop
80027d8c: 65 9f 00 08  	j	0x27d94 <.text+0x7d94>
80027d90: 00 00 00 00  	nop
80027d94: 10 00 c1 8f  	lw	$1, 0x10($fp)
80027d98: 14 00 c2 8f  	lw	$2, 0x14($fp)
80027d9c: 00 00 41 ac  	sw	$1, 0x0($2)
80027da0: 25 e8 c0 03  	move	$sp, $fp
80027da4: 20 00 be 8f  	lw	$fp, 0x20($sp)
80027da8: 24 00 bf 8f  	lw	$ra, 0x24($sp)
80027dac: 28 00 bd 27  	addiu	$sp, $sp, 0x28
80027db0: 08 00 e0 03  	jr	$ra
80027db4: 00 00 00 00  	nop
80027db8: 14 00 c4 8f  	lw	$4, 0x14($fp)
80027dbc: 04 00 05 24  	addiu	$5, $zero, 0x4
80027dc0: fb a4 00 0c  	jal	0x293ec <.text+0x93ec>
80027dc4: 00 00 00 00  	nop
80027dc8: 65 9f 00 08  	j	0x27d94 <.text+0x7d94>
80027dcc: 00 00 00 00  	nop
80027dd0: d8 ff bd 27  	addiu	$sp, $sp, -0x28
80027dd4: 24 00 bf af  	sw	$ra, 0x24($sp)
80027dd8: 20 00 be af  	sw	$fp, 0x20($sp)
80027ddc: 25 f0 a0 03  	move	$fp, $sp
80027de0: 10 00 c4 af  	sw	$4, 0x10($fp)
80027de4: 25 08 a0 00  	move	$1, $5
80027de8: 14 00 c1 af  	sw	$1, 0x14($fp)
80027dec: 18 00 c4 af  	sw	$4, 0x18($fp)
80027df0: 1f 00 c5 a3  	sb	$5, 0x1f($fp)
80027df4: b4 a9 00 0c  	jal	0x2a6d0 <.text+0xa6d0>
80027df8: 00 00 00 00  	nop
80027dfc: 0c 00 40 14  	bnez	$2, 0x80027e30 <.text+0x7e30>
80027e00: 00 00 00 00  	nop
80027e04: 83 9f 00 08  	j	0x27e0c <.text+0x7e0c>
80027e08: 00 00 00 00  	nop
80027e0c: 14 00 c1 8f  	lw	$1, 0x14($fp)
80027e10: 10 00 c2 8f  	lw	$2, 0x10($fp)
80027e14: 00 00 41 a0  	sb	$1, 0x0($2)
80027e18: 25 e8 c0 03  	move	$sp, $fp
80027e1c: 20 00 be 8f  	lw	$fp, 0x20($sp)
80027e20: 24 00 bf 8f  	lw	$ra, 0x24($sp)
80027e24: 28 00 bd 27  	addiu	$sp, $sp, 0x28
80027e28: 08 00 e0 03  	jr	$ra
80027e2c: 00 00 00 00  	nop
80027e30: 10 00 c4 8f  	lw	$4, 0x10($fp)
80027e34: 01 00 05 24  	addiu	$5, $zero, 0x1
80027e38: fb a4 00 0c  	jal	0x293ec <.text+0x93ec>
80027e3c: 00 00 00 00  	nop
80027e40: 83 9f 00 08  	j	0x27e0c <.text+0x7e0c>
80027e44: 00 00 00 00  	nop
80027e48: d8 ff bd 27  	addiu	$sp, $sp, -0x28
80027e4c: 24 00 bf af  	sw	$ra, 0x24($sp)
80027e50: 20 00 be af  	sw	$fp, 0x20($sp)
80027e54: 25 f0 a0 03  	move	$fp, $sp
80027e58: 14 00 c4 af  	sw	$4, 0x14($fp)
80027e5c: 18 00 c4 af  	sw	$4, 0x18($fp)
80027e60: b4 a9 00 0c  	jal	0x2a6d0 <.text+0xa6d0>
80027e64: 00 00 00 00  	nop
80027e68: 0d 00 40 14  	bnez	$2, 0x80027ea0 <.text+0x7ea0>
80027e6c: 00 00 00 00  	nop
80027e70: 9e 9f 00 08  	j	0x27e78 <.text+0x7e78>
80027e74: 00 00 00 00  	nop
80027e78: 14 00 c1 8f  	lw	$1, 0x14($fp)
80027e7c: 00 00 21 8c  	lw	$1, 0x0($1)
80027e80: 1c 00 c1 af  	sw	$1, 0x1c($fp)
80027e84: 1c 00 c2 8f  	lw	$2, 0x1c($fp)
80027e88: 25 e8 c0 03  	move	$sp, $fp
80027e8c: 20 00 be 8f  	lw	$fp, 0x20($sp)
80027e90: 24 00 bf 8f  	lw	$ra, 0x24($sp)
80027e94: 28 00 bd 27  	addiu	$sp, $sp, 0x28
80027e98: 08 00 e0 03  	jr	$ra
80027e9c: 00 00 00 00  	nop
80027ea0: 14 00 c4 8f  	lw	$4, 0x14($fp)
80027ea4: 04 00 05 24  	addiu	$5, $zero, 0x4
80027ea8: 12 a5 00 0c  	jal	0x29448 <.text+0x9448>
80027eac: 00 00 00 00  	nop
80027eb0: 9e 9f 00 08  	j	0x27e78 <.text+0x7e78>
80027eb4: 00 00 00 00  	nop
80027eb8: 70 ff bd 27  	addiu	$sp, $sp, -0x90
80027ebc: 8c 00 bf af  	sw	$ra, 0x8c($sp)
80027ec0: 88 00 be af  	sw	$fp, 0x88($sp)
80027ec4: 25 f0 a0 03  	move	$fp, $sp
80027ec8: 28 00 c5 af  	sw	$5, 0x28($fp)
80027ecc: 3c 00 c4 af  	sw	$4, 0x3c($fp)
80027ed0: 40 00 c5 af  	sw	$5, 0x40($fp)
80027ed4: 01 00 01 24  	addiu	$1, $zero, 0x1
80027ed8: 44 00 c1 af  	sw	$1, 0x44($fp)
80027edc: 25 10 80 00  	move	$2, $4
80027ee0: 2c 00 c2 af  	sw	$2, 0x2c($fp)
80027ee4: 48 00 c4 af  	sw	$4, 0x48($fp)
80027ee8: ff ff a2 24  	addiu	$2, $5, -0x1
80027eec: 30 00 c2 af  	sw	$2, 0x30($fp)
80027ef0: 4c 00 c2 af  	sw	$2, 0x4c($fp)
80027ef4: 0b 00 20 14  	bnez	$1, 0x80027f24 <.text+0x7f24>
80027ef8: 00 00 00 00  	nop
80027efc: c1 9f 00 08  	j	0x27f04 <.text+0x7f04>
80027f00: 00 00 00 00  	nop
80027f04: 2c 00 c1 8f  	lw	$1, 0x2c($fp)
80027f08: 30 00 c2 8f  	lw	$2, 0x30($fp)
80027f0c: 24 08 22 00  	and	$1, $1, $2
80027f10: 50 00 c1 af  	sw	$1, 0x50($fp)
80027f14: 09 00 20 10  	beqz	$1, 0x80027f3c <.text+0x7f3c>
80027f18: 00 00 00 00  	nop
80027f1c: d2 9f 00 08  	j	0x27f48 <.text+0x7f48>
80027f20: 00 00 00 00  	nop
80027f24: 54 00 c0 af  	sw	$zero, 0x54($fp)
80027f28: 01 00 01 24  	addiu	$1, $zero, 0x1
80027f2c: 11 00 20 14  	bnez	$1, 0x80027f74 <.text+0x7f74>
80027f30: 00 00 00 00  	nop
80027f34: ee 9f 00 08  	j	0x27fb8 <.text+0x7fb8>
80027f38: 00 00 00 00  	nop
80027f3c: 34 00 c0 af  	sw	$zero, 0x34($fp)
80027f40: d6 9f 00 08  	j	0x27f58 <.text+0x7f58>
80027f44: 00 00 00 00  	nop
80027f48: ff ff 01 24  	addiu	$1, $zero, -0x1
80027f4c: 34 00 c1 af  	sw	$1, 0x34($fp)
80027f50: d6 9f 00 08  	j	0x27f58 <.text+0x7f58>
80027f54: 00 00 00 00  	nop
80027f58: 34 00 c2 8f  	lw	$2, 0x34($fp)
80027f5c: 25 e8 c0 03  	move	$sp, $fp
80027f60: 88 00 be 8f  	lw	$fp, 0x88($sp)
80027f64: 8c 00 bf 8f  	lw	$ra, 0x8c($sp)
80027f68: 90 00 bd 27  	addiu	$sp, $sp, 0x90
80027f6c: 08 00 e0 03  	jr	$ra
80027f70: 00 00 00 00  	nop
80027f74: 2c 00 c2 8f  	lw	$2, 0x2c($fp)
80027f78: 28 00 c3 8f  	lw	$3, 0x28($fp)
80027f7c: 30 00 c1 8f  	lw	$1, 0x30($fp)
80027f80: 21 08 41 00  	addu	$1, $2, $1
80027f84: 00 00 04 24  	addiu	$4, $zero, 0x0
80027f88: 23 18 03 00  	negu	$3, $3
80027f8c: 24 08 23 00  	and	$1, $1, $3
80027f90: 58 00 c1 af  	sw	$1, 0x58($fp)
80027f94: 23 08 22 00  	subu	$1, $1, $2
80027f98: 24 00 c1 af  	sw	$1, 0x24($fp)
80027f9c: 5c 00 c1 af  	sw	$1, 0x5c($fp)
80027fa0: 60 00 c0 af  	sw	$zero, 0x60($fp)
80027fa4: 01 00 01 24  	addiu	$1, $zero, 0x1
80027fa8: 17 00 20 14  	bnez	$1, 0x80028008 <.text+0x8008>
80027fac: 00 00 00 00  	nop
80027fb0: 06 a0 00 08  	j	0x28018 <.text+0x8018>
80027fb4: 00 00 00 00  	nop
80027fb8: 28 00 c2 8f  	lw	$2, 0x28($fp)
80027fbc: 64 00 c0 af  	sw	$zero, 0x64($fp)
80027fc0: 64 00 c1 8f  	lw	$1, 0x64($fp)
80027fc4: 1c 00 c1 af  	sw	$1, 0x1c($fp)
80027fc8: 68 00 c1 af  	sw	$1, 0x68($fp)
80027fcc: ff ff 43 24  	addiu	$3, $2, -0x1
80027fd0: 27 10 40 00  	not	$2, $2
80027fd4: 24 10 43 00  	and	$2, $2, $3
80027fd8: 20 18 43 70  	clz	$3, $2
80027fdc: 20 00 02 24  	addiu	$2, $zero, 0x20
80027fe0: 23 10 43 00  	subu	$2, $2, $3
80027fe4: 6c 00 c2 af  	sw	$2, 0x6c($fp)
80027fe8: 6c 00 c2 8f  	lw	$2, 0x6c($fp)
80027fec: 20 00 c2 af  	sw	$2, 0x20($fp)
80027ff0: 70 00 c2 af  	sw	$2, 0x70($fp)
80027ff4: 2b 08 22 00  	sltu	$1, $1, $2
80027ff8: 0f 00 20 14  	bnez	$1, 0x80028038 <.text+0x8038>
80027ffc: 00 00 00 00  	nop
80028000: 0a a0 00 08  	j	0x28028 <.text+0x8028>
80028004: 00 00 00 00  	nop
80028008: 24 00 c1 8f  	lw	$1, 0x24($fp)
8002800c: 34 00 c1 af  	sw	$1, 0x34($fp)
80028010: d6 9f 00 08  	j	0x27f58 <.text+0x7f58>
80028014: 00 00 00 00  	nop
80028018: ff ff 01 24  	addiu	$1, $zero, -0x1
8002801c: 34 00 c1 af  	sw	$1, 0x34($fp)
80028020: d6 9f 00 08  	j	0x27f58 <.text+0x7f58>
80028024: 00 00 00 00  	nop
80028028: 20 00 c1 8f  	lw	$1, 0x20($fp)
8002802c: 38 00 c1 af  	sw	$1, 0x38($fp)
80028030: 12 a0 00 08  	j	0x28048 <.text+0x8048>
80028034: 00 00 00 00  	nop
80028038: 1c 00 c1 8f  	lw	$1, 0x1c($fp)
8002803c: 38 00 c1 af  	sw	$1, 0x38($fp)
80028040: 12 a0 00 08  	j	0x28048 <.text+0x8048>
80028044: 00 00 00 00  	nop
80028048: 2c 00 c1 8f  	lw	$1, 0x2c($fp)
8002804c: 38 00 c3 8f  	lw	$3, 0x38($fp)
80028050: 01 00 02 24  	addiu	$2, $zero, 0x1
80028054: 04 10 62 00  	sllv	$2, $2, $3
80028058: 74 00 c2 af  	sw	$2, 0x74($fp)
8002805c: ff ff 42 24  	addiu	$2, $2, -0x1
80028060: 24 08 22 00  	and	$1, $1, $2
80028064: 20 00 20 14  	bnez	$1, 0x800280e8 <.text+0x80e8>
80028068: 00 00 00 00  	nop
8002806c: 1d a0 00 08  	j	0x28074 <.text+0x8074>
80028070: 00 00 00 00  	nop
80028074: 2c 00 c1 8f  	lw	$1, 0x2c($fp)
80028078: 30 00 c2 8f  	lw	$2, 0x30($fp)
8002807c: 28 00 c3 8f  	lw	$3, 0x28($fp)
80028080: 38 00 c4 8f  	lw	$4, 0x38($fp)
80028084: 06 28 83 00  	srlv	$5, $3, $4
80028088: 78 00 c5 af  	sw	$5, 0x78($fp)
8002808c: ff ff a3 24  	addiu	$3, $5, -0x1
80028090: 18 00 c3 af  	sw	$3, 0x18($fp)
80028094: 7c 00 c3 af  	sw	$3, 0x7c($fp)
80028098: 01 00 43 30  	andi	$3, $2, 0x1
8002809c: 38 00 c4 8f  	lw	$4, 0x38($fp)
800280a0: 06 20 83 00  	srlv	$4, $3, $4
800280a4: 80 00 c4 af  	sw	$4, 0x80($fp)
800280a8: 24 08 22 00  	and	$1, $1, $2
800280ac: 38 00 c2 8f  	lw	$2, 0x38($fp)
800280b0: 06 08 41 00  	srlv	$1, $1, $2
800280b4: 23 08 a1 00  	subu	$1, $5, $1
800280b8: 14 00 c1 af  	sw	$1, 0x14($fp)
800280bc: 84 00 c1 af  	sw	$1, 0x84($fp)
800280c0: 3e a0 00 0c  	jal	0x280f8 <.text+0x80f8>
800280c4: 00 00 00 00  	nop
800280c8: 14 00 c1 8f  	lw	$1, 0x14($fp)
800280cc: 25 18 40 00  	move	$3, $2
800280d0: 18 00 c2 8f  	lw	$2, 0x18($fp)
800280d4: 02 08 23 70  	mul	$1, $1, $3
800280d8: 24 08 22 00  	and	$1, $1, $2
800280dc: 34 00 c1 af  	sw	$1, 0x34($fp)
800280e0: d6 9f 00 08  	j	0x27f58 <.text+0x7f58>
800280e4: 00 00 00 00  	nop
800280e8: ff ff 01 24  	addiu	$1, $zero, -0x1
800280ec: 34 00 c1 af  	sw	$1, 0x34($fp)
800280f0: d6 9f 00 08  	j	0x27f58 <.text+0x7f58>
800280f4: 00 00 00 00  	nop
800280f8: b0 ff bd 27  	addiu	$sp, $sp, -0x50
800280fc: 4c 00 bf af  	sw	$ra, 0x4c($sp)
80028100: 48 00 be af  	sw	$fp, 0x48($sp)
80028104: 25 f0 a0 03  	move	$fp, $sp
80028108: 14 00 c5 af  	sw	$5, 0x14($fp)
8002810c: 18 00 c4 af  	sw	$4, 0x18($fp)
80028110: 34 00 c4 af  	sw	$4, 0x34($fp)
80028114: 38 00 c5 af  	sw	$5, 0x38($fp)
80028118: ff ff a1 24  	addiu	$1, $5, -0x1
8002811c: 1c 00 c1 af  	sw	$1, 0x1c($fp)
80028120: 3c 00 c1 af  	sw	$1, 0x3c($fp)
80028124: 03 80 02 3c  	lui	$2, 0x8003
80028128: 30 01 41 90  	lbu	$1, 0x130($2)
8002812c: 30 01 49 24  	addiu	$9, $2, 0x130
80028130: 01 00 22 91  	lbu	$2, 0x1($9)
80028134: 02 00 23 91  	lbu	$3, 0x2($9)
80028138: 03 00 25 91  	lbu	$5, 0x3($9)
8002813c: 04 00 26 91  	lbu	$6, 0x4($9)
80028140: 05 00 27 91  	lbu	$7, 0x5($9)
80028144: 06 00 28 91  	lbu	$8, 0x6($9)
80028148: 07 00 29 91  	lbu	$9, 0x7($9)
8002814c: 2f 00 c9 a3  	sb	$9, 0x2f($fp)
80028150: 2e 00 c8 a3  	sb	$8, 0x2e($fp)
80028154: 2d 00 c7 a3  	sb	$7, 0x2d($fp)
80028158: 2c 00 c6 a3  	sb	$6, 0x2c($fp)
8002815c: 2b 00 c5 a3  	sb	$5, 0x2b($fp)
80028160: 2a 00 c3 a3  	sb	$3, 0x2a($fp)
80028164: 29 00 c2 a3  	sb	$2, 0x29($fp)
80028168: 28 00 c1 a3  	sb	$1, 0x28($fp)
8002816c: 40 10 81 7c  	ext	$1, $4, 0x1, 0x3
80028170: 20 00 c1 af  	sw	$1, 0x20($fp)
80028174: 08 00 21 2c  	sltiu	$1, $1, 0x8
80028178: 0c 00 20 10  	beqz	$1, 0x800281ac <.text+0x81ac>
8002817c: 00 00 00 00  	nop
80028180: 62 a0 00 08  	j	0x28188 <.text+0x8188>
80028184: 00 00 00 00  	nop
80028188: 20 00 c2 8f  	lw	$2, 0x20($fp)
8002818c: 28 00 c1 27  	addiu	$1, $fp, 0x28
80028190: 21 08 22 00  	addu	$1, $1, $2
80028194: 00 00 21 90  	lbu	$1, 0x0($1)
80028198: 24 00 c1 af  	sw	$1, 0x24($fp)
8002819c: 10 00 01 24  	addiu	$1, $zero, 0x10
800281a0: 30 00 c1 af  	sw	$1, 0x30($fp)
800281a4: 71 a0 00 08  	j	0x281c4 <.text+0x81c4>
800281a8: 00 00 00 00  	nop
800281ac: 20 00 c4 8f  	lw	$4, 0x20($fp)
800281b0: 03 80 01 3c  	lui	$1, 0x8003
800281b4: 14 11 26 24  	addiu	$6, $1, 0x1114
800281b8: 08 00 05 24  	addiu	$5, $zero, 0x8
800281bc: 6b b5 00 0c  	jal	0x2d5ac <.text+0xd5ac>
800281c0: 00 00 00 00  	nop
800281c4: 14 00 c2 8f  	lw	$2, 0x14($fp)
800281c8: 30 00 c1 8f  	lw	$1, 0x30($fp)
800281cc: 2b 08 22 00  	sltu	$1, $1, $2
800281d0: 16 00 20 10  	beqz	$1, 0x8002822c <.text+0x822c>
800281d4: 00 00 00 00  	nop
800281d8: 78 a0 00 08  	j	0x281e0 <.text+0x81e0>
800281dc: 00 00 00 00  	nop
800281e0: 18 00 c2 8f  	lw	$2, 0x18($fp)
800281e4: 24 00 c1 8f  	lw	$1, 0x24($fp)
800281e8: 02 18 41 70  	mul	$3, $2, $1
800281ec: 02 00 02 24  	addiu	$2, $zero, 0x2
800281f0: 23 10 43 00  	subu	$2, $2, $3
800281f4: 02 08 22 70  	mul	$1, $1, $2
800281f8: 24 00 c1 af  	sw	$1, 0x24($fp)
800281fc: 30 00 c3 8f  	lw	$3, 0x30($fp)
80028200: 19 00 63 00  	multu	$3, $3
80028204: 10 08 00 00  	mfhi	$1
80028208: 2b 10 01 00  	sltu	$2, $zero, $1
8002820c: 02 18 63 70  	mul	$3, $3, $3
80028210: 10 00 c3 af  	sw	$3, 0x10($fp)
80028214: 40 00 c3 af  	sw	$3, 0x40($fp)
80028218: 47 00 c2 a3  	sb	$2, 0x47($fp)
8002821c: 0c 00 20 10  	beqz	$1, 0x80028250 <.text+0x8250>
80028220: 00 00 00 00  	nop
80028224: 8b a0 00 08  	j	0x2822c <.text+0x822c>
80028228: 00 00 00 00  	nop
8002822c: 1c 00 c2 8f  	lw	$2, 0x1c($fp)
80028230: 24 00 c1 8f  	lw	$1, 0x24($fp)
80028234: 24 10 22 00  	and	$2, $1, $2
80028238: 25 e8 c0 03  	move	$sp, $fp
8002823c: 48 00 be 8f  	lw	$fp, 0x48($sp)
80028240: 4c 00 bf 8f  	lw	$ra, 0x4c($sp)
80028244: 50 00 bd 27  	addiu	$sp, $sp, 0x50
80028248: 08 00 e0 03  	jr	$ra
8002824c: 00 00 00 00  	nop
80028250: 10 00 c1 8f  	lw	$1, 0x10($fp)
80028254: 30 00 c1 af  	sw	$1, 0x30($fp)
80028258: 71 a0 00 08  	j	0x281c4 <.text+0x81c4>
8002825c: 00 00 00 00  	nop
80028260: b0 ff bd 27  	addiu	$sp, $sp, -0x50
80028264: 4c 00 bf af  	sw	$ra, 0x4c($sp)
80028268: 48 00 be af  	sw	$fp, 0x48($sp)
8002826c: 25 f0 a0 03  	move	$fp, $sp
80028270: 1c 00 c5 af  	sw	$5, 0x1c($fp)
80028274: 18 00 c4 af  	sw	$4, 0x18($fp)
80028278: 40 00 c4 af  	sw	$4, 0x40($fp)
8002827c: 44 00 c5 af  	sw	$5, 0x44($fp)
80028280: 19 a1 00 0c  	jal	0x28464 <.text+0x8464>
80028284: 00 00 00 00  	nop
80028288: 14 00 c2 af  	sw	$2, 0x14($fp)
8002828c: 25 30 60 00  	move	$6, $3
80028290: 14 00 c3 8f  	lw	$3, 0x14($fp)
80028294: 25 08 80 00  	move	$1, $4
80028298: 18 00 c4 8f  	lw	$4, 0x18($fp)
8002829c: 25 10 a0 00  	move	$2, $5
800282a0: 1c 00 c5 8f  	lw	$5, 0x1c($fp)
800282a4: 24 00 c6 af  	sw	$6, 0x24($fp)
800282a8: 20 00 c3 af  	sw	$3, 0x20($fp)
800282ac: 2c 00 c2 af  	sw	$2, 0x2c($fp)
800282b0: 28 00 c1 af  	sw	$1, 0x28($fp)
800282b4: 0c 00 b9 8c  	lw	$25, 0xc($5)
800282b8: 09 f8 20 03  	jalr	$25
800282bc: 00 00 00 00  	nop
800282c0: 34 00 c3 af  	sw	$3, 0x34($fp)
800282c4: 30 00 c2 af  	sw	$2, 0x30($fp)
800282c8: 3c 00 c5 af  	sw	$5, 0x3c($fp)
800282cc: 38 00 c4 af  	sw	$4, 0x38($fp)
800282d0: 20 00 c4 27  	addiu	$4, $fp, 0x20
800282d4: 30 00 c5 27  	addiu	$5, $fp, 0x30
800282d8: 0b a1 00 0c  	jal	0x2842c <.text+0x842c>
800282dc: 00 00 00 00  	nop
800282e0: 25 e8 c0 03  	move	$sp, $fp
800282e4: 48 00 be 8f  	lw	$fp, 0x48($sp)
800282e8: 4c 00 bf 8f  	lw	$ra, 0x4c($sp)
800282ec: 50 00 bd 27  	addiu	$sp, $sp, 0x50
800282f0: 08 00 e0 03  	jr	$ra
800282f4: 00 00 00 00  	nop
800282f8: d0 ff bd 27  	addiu	$sp, $sp, -0x30
800282fc: 2c 00 bf af  	sw	$ra, 0x2c($sp)
80028300: 28 00 be af  	sw	$fp, 0x28($sp)
80028304: 25 f0 a0 03  	move	$fp, $sp
80028308: 14 00 c5 af  	sw	$5, 0x14($fp)
8002830c: 18 00 c4 af  	sw	$4, 0x18($fp)
80028310: 20 00 c4 af  	sw	$4, 0x20($fp)
80028314: 24 00 c5 af  	sw	$5, 0x24($fp)
80028318: 98 a0 00 0c  	jal	0x28260 <.text+0x8260>
8002831c: 00 00 00 00  	nop
80028320: 06 00 40 14  	bnez	$2, 0x8002833c <.text+0x833c>
80028324: 00 00 00 00  	nop
80028328: cc a0 00 08  	j	0x28330 <.text+0x8330>
8002832c: 00 00 00 00  	nop
80028330: 1c 00 c0 af  	sw	$zero, 0x1c($fp)
80028334: d6 a0 00 08  	j	0x28358 <.text+0x8358>
80028338: 00 00 00 00  	nop
8002833c: 14 00 c5 8f  	lw	$5, 0x14($fp)
80028340: 18 00 c4 8f  	lw	$4, 0x18($fp)
80028344: dd a0 00 0c  	jal	0x28374 <.text+0x8374>
80028348: 00 00 00 00  	nop
8002834c: 1c 00 c2 af  	sw	$2, 0x1c($fp)
80028350: d6 a0 00 08  	j	0x28358 <.text+0x8358>
80028354: 00 00 00 00  	nop
80028358: 1c 00 c2 8f  	lw	$2, 0x1c($fp)
8002835c: 25 e8 c0 03  	move	$sp, $fp
80028360: 28 00 be 8f  	lw	$fp, 0x28($sp)
80028364: 2c 00 bf 8f  	lw	$ra, 0x2c($sp)
80028368: 30 00 bd 27  	addiu	$sp, $sp, 0x30
8002836c: 08 00 e0 03  	jr	$ra
80028370: 00 00 00 00  	nop
80028374: d8 ff bd 27  	addiu	$sp, $sp, -0x28
80028378: 24 00 bf af  	sw	$ra, 0x24($sp)
8002837c: 20 00 be af  	sw	$fp, 0x20($sp)
80028380: 25 f0 a0 03  	move	$fp, $sp
80028384: 10 00 c5 af  	sw	$5, 0x10($fp)
80028388: 14 00 c4 af  	sw	$4, 0x14($fp)
8002838c: 18 00 c4 af  	sw	$4, 0x18($fp)
80028390: 1c 00 c5 af  	sw	$5, 0x1c($fp)
80028394: e7 a0 00 08  	j	0x2839c <.text+0x839c>
80028398: 00 00 00 00  	nop
8002839c: 10 00 c5 8f  	lw	$5, 0x10($fp)
800283a0: 14 00 c4 8f  	lw	$4, 0x14($fp)
800283a4: 98 a0 00 0c  	jal	0x28260 <.text+0x8260>
800283a8: 00 00 00 00  	nop
800283ac: 0a 00 40 14  	bnez	$2, 0x800283d8 <.text+0x83d8>
800283b0: 00 00 00 00  	nop
800283b4: ef a0 00 08  	j	0x283bc <.text+0x83bc>
800283b8: 00 00 00 00  	nop
800283bc: 03 80 01 3c  	lui	$1, 0x8003
800283c0: 24 11 24 24  	addiu	$4, $1, 0x1124
800283c4: 03 80 01 3c  	lui	$1, 0x8003
800283c8: f4 11 26 24  	addiu	$6, $1, 0x11f4
800283cc: 20 00 05 24  	addiu	$5, $zero, 0x20
800283d0: 44 b5 00 0c  	jal	0x2d510 <.text+0xd510>
800283d4: 00 00 00 00  	nop
800283d8: 14 00 c2 8f  	lw	$2, 0x14($fp)
800283dc: 25 e8 c0 03  	move	$sp, $fp
800283e0: 20 00 be 8f  	lw	$fp, 0x20($sp)
800283e4: 24 00 bf 8f  	lw	$ra, 0x24($sp)
800283e8: 28 00 bd 27  	addiu	$sp, $sp, 0x28
800283ec: 08 00 e0 03  	jr	$ra
800283f0: 00 00 00 00  	nop
800283f4: e0 ff bd 27  	addiu	$sp, $sp, -0x20
800283f8: 1c 00 bf af  	sw	$ra, 0x1c($sp)
800283fc: 18 00 be af  	sw	$fp, 0x18($sp)
80028400: 25 f0 a0 03  	move	$fp, $sp
80028404: 10 00 c4 af  	sw	$4, 0x10($fp)
80028408: 14 00 c5 af  	sw	$5, 0x14($fp)
8002840c: be a0 00 0c  	jal	0x282f8 <.text+0x82f8>
80028410: 00 00 00 00  	nop
80028414: 25 e8 c0 03  	move	$sp, $fp
80028418: 18 00 be 8f  	lw	$fp, 0x18($sp)
8002841c: 1c 00 bf 8f  	lw	$ra, 0x1c($sp)
80028420: 20 00 bd 27  	addiu	$sp, $sp, 0x20
80028424: 08 00 e0 03  	jr	$ra
80028428: 00 00 00 00  	nop
8002842c: e0 ff bd 27  	addiu	$sp, $sp, -0x20
80028430: 1c 00 bf af  	sw	$ra, 0x1c($sp)
80028434: 18 00 be af  	sw	$fp, 0x18($sp)
80028438: 25 f0 a0 03  	move	$fp, $sp
8002843c: 10 00 c4 af  	sw	$4, 0x10($fp)
80028440: 14 00 c5 af  	sw	$5, 0x14($fp)
80028444: 8e a5 00 0c  	jal	0x29638 <.text+0x9638>
80028448: 00 00 00 00  	nop
8002844c: 25 e8 c0 03  	move	$sp, $fp
80028450: 18 00 be 8f  	lw	$fp, 0x18($sp)
80028454: 1c 00 bf 8f  	lw	$ra, 0x1c($sp)
80028458: 20 00 bd 27  	addiu	$sp, $sp, 0x20
8002845c: 08 00 e0 03  	jr	$ra
80028460: 00 00 00 00  	nop
80028464: a8 ff bd 27  	addiu	$sp, $sp, -0x58
80028468: 54 00 bf af  	sw	$ra, 0x54($sp)
8002846c: 50 00 be af  	sw	$fp, 0x50($sp)
80028470: 25 f0 a0 03  	move	$fp, $sp
80028474: bc fd 01 3c  	lui	$1, 0xfdbc
80028478: 81 16 21 34  	ori	$1, $1, 0x1681
8002847c: 2c 00 c1 af  	sw	$1, 0x2c($fp)
80028480: b1 00 01 3c  	lui	$1, 0xb1
80028484: 64 ef 21 34  	ori	$1, $1, 0xef64
80028488: 28 00 c1 af  	sw	$1, 0x28($fp)
8002848c: a2 c1 01 3c  	lui	$1, 0xc1a2
80028490: 9c c8 21 34  	ori	$1, $1, 0xc89c
80028494: 24 00 c1 af  	sw	$1, 0x24($fp)
80028498: 1e cd 01 3c  	lui	$1, 0xcd1e
8002849c: c1 7b 21 34  	ori	$1, $1, 0x7bc1
800284a0: 20 00 c1 af  	sw	$1, 0x20($fp)
800284a4: 20 00 c1 8f  	lw	$1, 0x20($fp)
800284a8: 24 00 c2 8f  	lw	$2, 0x24($fp)
800284ac: 28 00 c3 8f  	lw	$3, 0x28($fp)
800284b0: 2c 00 c4 8f  	lw	$4, 0x2c($fp)
800284b4: 3c 00 c4 af  	sw	$4, 0x3c($fp)
800284b8: 38 00 c3 af  	sw	$3, 0x38($fp)
800284bc: 34 00 c2 af  	sw	$2, 0x34($fp)
800284c0: 30 00 c1 af  	sw	$1, 0x30($fp)
800284c4: 44 00 c4 af  	sw	$4, 0x44($fp)
800284c8: 40 00 c3 af  	sw	$3, 0x40($fp)
800284cc: 4c 00 c2 af  	sw	$2, 0x4c($fp)
800284d0: 48 00 c1 af  	sw	$1, 0x48($fp)
800284d4: 14 00 c4 af  	sw	$4, 0x14($fp)
800284d8: 10 00 c3 af  	sw	$3, 0x10($fp)
800284dc: 1c 00 c2 af  	sw	$2, 0x1c($fp)
800284e0: 18 00 c1 af  	sw	$1, 0x18($fp)
800284e4: 10 00 c3 8f  	lw	$3, 0x10($fp)
800284e8: 14 00 c4 8f  	lw	$4, 0x14($fp)
800284ec: 18 00 c1 8f  	lw	$1, 0x18($fp)
800284f0: 1c 00 c2 8f  	lw	$2, 0x1c($fp)
800284f4: 04 00 c4 af  	sw	$4, 0x4($fp)
800284f8: 00 00 c3 af  	sw	$3, 0x0($fp)
800284fc: 0c 00 c2 af  	sw	$2, 0xc($fp)
80028500: 08 00 c1 af  	sw	$1, 0x8($fp)
80028504: 00 00 c2 8f  	lw	$2, 0x0($fp)
80028508: 04 00 c3 8f  	lw	$3, 0x4($fp)
8002850c: 08 00 c4 8f  	lw	$4, 0x8($fp)
80028510: 0c 00 c5 8f  	lw	$5, 0xc($fp)
80028514: 25 e8 c0 03  	move	$sp, $fp
80028518: 50 00 be 8f  	lw	$fp, 0x50($sp)
8002851c: 54 00 bf 8f  	lw	$ra, 0x54($sp)
80028520: 58 00 bd 27  	addiu	$sp, $sp, 0x58
80028524: 08 00 e0 03  	jr	$ra
80028528: 00 00 00 00  	nop
8002852c: a8 ff bd 27  	addiu	$sp, $sp, -0x58
80028530: 54 00 bf af  	sw	$ra, 0x54($sp)
80028534: 50 00 be af  	sw	$fp, 0x50($sp)
80028538: 25 f0 a0 03  	move	$fp, $sp
8002853c: cb de 01 3c  	lui	$1, 0xdecb
80028540: 50 ed 21 34  	ori	$1, $1, 0xed50
80028544: 2c 00 c1 af  	sw	$1, 0x2c($fp)
80028548: 98 e3 01 3c  	lui	$1, 0xe398
8002854c: c3 c2 21 34  	ori	$1, $1, 0xc2c3
80028550: 28 00 c1 af  	sw	$1, 0x28($fp)
80028554: 9e 13 01 3c  	lui	$1, 0x139e
80028558: de 0b 21 34  	ori	$1, $1, 0xbde
8002855c: 24 00 c1 af  	sw	$1, 0x24($fp)
80028560: 8c 09 01 3c  	lui	$1, 0x98c
80028564: c4 84 21 34  	ori	$1, $1, 0x84c4
80028568: 20 00 c1 af  	sw	$1, 0x20($fp)
8002856c: 20 00 c1 8f  	lw	$1, 0x20($fp)
80028570: 24 00 c2 8f  	lw	$2, 0x24($fp)
80028574: 28 00 c3 8f  	lw	$3, 0x28($fp)
80028578: 2c 00 c4 8f  	lw	$4, 0x2c($fp)
8002857c: 3c 00 c4 af  	sw	$4, 0x3c($fp)
80028580: 38 00 c3 af  	sw	$3, 0x38($fp)
80028584: 34 00 c2 af  	sw	$2, 0x34($fp)
80028588: 30 00 c1 af  	sw	$1, 0x30($fp)
8002858c: 44 00 c4 af  	sw	$4, 0x44($fp)
80028590: 40 00 c3 af  	sw	$3, 0x40($fp)
80028594: 4c 00 c2 af  	sw	$2, 0x4c($fp)
80028598: 48 00 c1 af  	sw	$1, 0x48($fp)
8002859c: 14 00 c4 af  	sw	$4, 0x14($fp)
800285a0: 10 00 c3 af  	sw	$3, 0x10($fp)
800285a4: 1c 00 c2 af  	sw	$2, 0x1c($fp)
800285a8: 18 00 c1 af  	sw	$1, 0x18($fp)
800285ac: 10 00 c3 8f  	lw	$3, 0x10($fp)
800285b0: 14 00 c4 8f  	lw	$4, 0x14($fp)
800285b4: 18 00 c1 8f  	lw	$1, 0x18($fp)
800285b8: 1c 00 c2 8f  	lw	$2, 0x1c($fp)
800285bc: 04 00 c4 af  	sw	$4, 0x4($fp)
800285c0: 00 00 c3 af  	sw	$3, 0x0($fp)
800285c4: 0c 00 c2 af  	sw	$2, 0xc($fp)
800285c8: 08 00 c1 af  	sw	$1, 0x8($fp)
800285cc: 00 00 c2 8f  	lw	$2, 0x0($fp)
800285d0: 04 00 c3 8f  	lw	$3, 0x4($fp)
800285d4: 08 00 c4 8f  	lw	$4, 0x8($fp)
800285d8: 0c 00 c5 8f  	lw	$5, 0xc($fp)
800285dc: 25 e8 c0 03  	move	$sp, $fp
800285e0: 50 00 be 8f  	lw	$fp, 0x50($sp)
800285e4: 54 00 bf 8f  	lw	$ra, 0x54($sp)
800285e8: 58 00 bd 27  	addiu	$sp, $sp, 0x58
800285ec: 08 00 e0 03  	jr	$ra
800285f0: 00 00 00 00  	nop
800285f4: d8 ff bd 27  	addiu	$sp, $sp, -0x28
800285f8: 24 00 bf af  	sw	$ra, 0x24($sp)
800285fc: 20 00 be af  	sw	$fp, 0x20($sp)
80028600: 25 f0 a0 03  	move	$fp, $sp
80028604: 10 00 c5 af  	sw	$5, 0x10($fp)
80028608: 14 00 c4 af  	sw	$4, 0x14($fp)
8002860c: 18 00 c4 af  	sw	$4, 0x18($fp)
80028610: 1c 00 c5 af  	sw	$5, 0x1c($fp)
80028614: b4 a9 00 0c  	jal	0x2a6d0 <.text+0xa6d0>
80028618: 00 00 00 00  	nop
8002861c: 0d 00 40 14  	bnez	$2, 0x80028654 <.text+0x8654>
80028620: 00 00 00 00  	nop
80028624: 8b a1 00 08  	j	0x2862c <.text+0x862c>
80028628: 00 00 00 00  	nop
8002862c: 10 00 c5 8f  	lw	$5, 0x10($fp)
80028630: 14 00 c4 8f  	lw	$4, 0x14($fp)
80028634: 05 9f 00 0c  	jal	0x27c14 <.text+0x7c14>
80028638: 00 00 00 00  	nop
8002863c: 25 e8 c0 03  	move	$sp, $fp
80028640: 20 00 be 8f  	lw	$fp, 0x20($sp)
80028644: 24 00 bf 8f  	lw	$ra, 0x24($sp)
80028648: 28 00 bd 27  	addiu	$sp, $sp, 0x28
8002864c: 08 00 e0 03  	jr	$ra
80028650: 00 00 00 00  	nop
80028654: 10 00 c7 8f  	lw	$7, 0x10($fp)
80028658: 14 00 c4 8f  	lw	$4, 0x14($fp)
8002865c: 01 00 06 24  	addiu	$6, $zero, 0x1
80028660: 25 28 c0 00  	move	$5, $6
80028664: 29 a5 00 0c  	jal	0x294a4 <.text+0x94a4>
80028668: 00 00 00 00  	nop
8002866c: 8b a1 00 08  	j	0x2862c <.text+0x862c>
80028670: 00 00 00 00  	nop
80028674: d8 ff bd 27  	addiu	$sp, $sp, -0x28
80028678: 24 00 bf af  	sw	$ra, 0x24($sp)
8002867c: 20 00 be af  	sw	$fp, 0x20($sp)
80028680: 25 f0 a0 03  	move	$fp, $sp
80028684: 10 00 c5 af  	sw	$5, 0x10($fp)
80028688: 14 00 c4 af  	sw	$4, 0x14($fp)
8002868c: 18 00 c4 af  	sw	$4, 0x18($fp)
80028690: 1c 00 c5 af  	sw	$5, 0x1c($fp)
80028694: b4 a9 00 0c  	jal	0x2a6d0 <.text+0xa6d0>
80028698: 00 00 00 00  	nop
8002869c: 0d 00 40 14  	bnez	$2, 0x800286d4 <.text+0x86d4>
800286a0: 00 00 00 00  	nop
800286a4: ab a1 00 08  	j	0x286ac <.text+0x86ac>
800286a8: 00 00 00 00  	nop
800286ac: 10 00 c5 8f  	lw	$5, 0x10($fp)
800286b0: 14 00 c4 8f  	lw	$4, 0x14($fp)
800286b4: f6 9e 00 0c  	jal	0x27bd8 <.text+0x7bd8>
800286b8: 00 00 00 00  	nop
800286bc: 25 e8 c0 03  	move	$sp, $fp
800286c0: 20 00 be 8f  	lw	$fp, 0x20($sp)
800286c4: 24 00 bf 8f  	lw	$ra, 0x24($sp)
800286c8: 28 00 bd 27  	addiu	$sp, $sp, 0x28
800286cc: 08 00 e0 03  	jr	$ra
800286d0: 00 00 00 00  	nop
800286d4: 10 00 c7 8f  	lw	$7, 0x10($fp)
800286d8: 14 00 c4 8f  	lw	$4, 0x14($fp)
800286dc: 04 00 06 24  	addiu	$6, $zero, 0x4
800286e0: 25 28 c0 00  	move	$5, $6
800286e4: 29 a5 00 0c  	jal	0x294a4 <.text+0x94a4>
800286e8: 00 00 00 00  	nop
800286ec: ab a1 00 08  	j	0x286ac <.text+0x86ac>
800286f0: 00 00 00 00  	nop
800286f4: d8 ff bd 27  	addiu	$sp, $sp, -0x28
800286f8: 24 00 bf af  	sw	$ra, 0x24($sp)
800286fc: 20 00 be af  	sw	$fp, 0x20($sp)
80028700: 25 f0 a0 03  	move	$fp, $sp
80028704: 10 00 c5 af  	sw	$5, 0x10($fp)
80028708: 14 00 c4 af  	sw	$4, 0x14($fp)
8002870c: 18 00 c4 af  	sw	$4, 0x18($fp)
80028710: 1c 00 c5 af  	sw	$5, 0x1c($fp)
80028714: b4 a9 00 0c  	jal	0x2a6d0 <.text+0xa6d0>
80028718: 00 00 00 00  	nop
8002871c: 0d 00 40 14  	bnez	$2, 0x80028754 <.text+0x8754>
80028720: 00 00 00 00  	nop
80028724: cb a1 00 08  	j	0x2872c <.text+0x872c>
80028728: 00 00 00 00  	nop
8002872c: 10 00 c5 8f  	lw	$5, 0x10($fp)
80028730: 14 00 c4 8f  	lw	$4, 0x14($fp)
80028734: d8 9e 00 0c  	jal	0x27b60 <.text+0x7b60>
80028738: 00 00 00 00  	nop
8002873c: 25 e8 c0 03  	move	$sp, $fp
80028740: 20 00 be 8f  	lw	$fp, 0x20($sp)
80028744: 24 00 bf 8f  	lw	$ra, 0x24($sp)
80028748: 28 00 bd 27  	addiu	$sp, $sp, 0x28
8002874c: 08 00 e0 03  	jr	$ra
80028750: 00 00 00 00  	nop
80028754: 10 00 c7 8f  	lw	$7, 0x10($fp)
80028758: 14 00 c4 8f  	lw	$4, 0x14($fp)
8002875c: 10 00 05 24  	addiu	$5, $zero, 0x10
80028760: 04 00 06 24  	addiu	$6, $zero, 0x4
80028764: 29 a5 00 0c  	jal	0x294a4 <.text+0x94a4>
80028768: 00 00 00 00  	nop
8002876c: cb a1 00 08  	j	0x2872c <.text+0x872c>
80028770: 00 00 00 00  	nop
80028774: f0 ff bd 27  	addiu	$sp, $sp, -0x10
80028778: 0c 00 bf af  	sw	$ra, 0xc($sp)
8002877c: 08 00 be af  	sw	$fp, 0x8($sp)
80028780: 25 f0 a0 03  	move	$fp, $sp
80028784: 00 00 c4 af  	sw	$4, 0x0($fp)
80028788: 04 00 c5 af  	sw	$5, 0x4($fp)
8002878c: 01 00 a2 2c  	sltiu	$2, $5, 0x1
80028790: 25 e8 c0 03  	move	$sp, $fp
80028794: 08 00 be 8f  	lw	$fp, 0x8($sp)
80028798: 0c 00 bf 8f  	lw	$ra, 0xc($sp)
8002879c: 10 00 bd 27  	addiu	$sp, $sp, 0x10
800287a0: 08 00 e0 03  	jr	$ra
800287a4: 00 00 00 00  	nop
800287a8: d8 ff bd 27  	addiu	$sp, $sp, -0x28
800287ac: 24 00 bf af  	sw	$ra, 0x24($sp)
800287b0: 20 00 be af  	sw	$fp, 0x20($sp)
800287b4: 25 f0 a0 03  	move	$fp, $sp
800287b8: 10 00 c6 af  	sw	$6, 0x10($fp)
800287bc: 25 30 a0 00  	move	$6, $5
800287c0: 25 28 80 00  	move	$5, $4
800287c4: 10 00 c4 8f  	lw	$4, 0x10($fp)
800287c8: 14 00 c5 af  	sw	$5, 0x14($fp)
800287cc: 18 00 c6 af  	sw	$6, 0x18($fp)
800287d0: 1c 00 c4 af  	sw	$4, 0x1c($fp)
800287d4: 6c a8 00 0c  	jal	0x2a1b0 <.text+0xa1b0>
800287d8: 00 00 00 00  	nop
800287dc: 25 e8 c0 03  	move	$sp, $fp
800287e0: 20 00 be 8f  	lw	$fp, 0x20($sp)
800287e4: 24 00 bf 8f  	lw	$ra, 0x24($sp)
800287e8: 28 00 bd 27  	addiu	$sp, $sp, 0x28
800287ec: 08 00 e0 03  	jr	$ra
800287f0: 00 00 00 00  	nop
800287f4: d8 ff bd 27  	addiu	$sp, $sp, -0x28
800287f8: 24 00 bf af  	sw	$ra, 0x24($sp)
800287fc: 20 00 be af  	sw	$fp, 0x20($sp)
80028800: 25 f0 a0 03  	move	$fp, $sp
80028804: 10 00 c6 af  	sw	$6, 0x10($fp)
80028808: 25 30 a0 00  	move	$6, $5
8002880c: 25 28 80 00  	move	$5, $4
80028810: 10 00 c4 8f  	lw	$4, 0x10($fp)
80028814: 14 00 c5 af  	sw	$5, 0x14($fp)
80028818: 18 00 c6 af  	sw	$6, 0x18($fp)
8002881c: 1c 00 c4 af  	sw	$4, 0x1c($fp)
80028820: 8d a8 00 0c  	jal	0x2a234 <.text+0xa234>
80028824: 00 00 00 00  	nop
80028828: 25 e8 c0 03  	move	$sp, $fp
8002882c: 20 00 be 8f  	lw	$fp, 0x20($sp)
80028830: 24 00 bf 8f  	lw	$ra, 0x24($sp)
80028834: 28 00 bd 27  	addiu	$sp, $sp, 0x28
80028838: 08 00 e0 03  	jr	$ra
8002883c: 00 00 00 00  	nop
80028840: d8 ff bd 27  	addiu	$sp, $sp, -0x28
80028844: 24 00 bf af  	sw	$ra, 0x24($sp)
80028848: 20 00 be af  	sw	$fp, 0x20($sp)
8002884c: 25 f0 a0 03  	move	$fp, $sp
80028850: 10 00 c6 af  	sw	$6, 0x10($fp)
80028854: 25 30 a0 00  	move	$6, $5
80028858: 25 28 80 00  	move	$5, $4
8002885c: 10 00 c4 8f  	lw	$4, 0x10($fp)
80028860: 14 00 c5 af  	sw	$5, 0x14($fp)
80028864: 18 00 c6 af  	sw	$6, 0x18($fp)
80028868: 1c 00 c4 af  	sw	$4, 0x1c($fp)
8002886c: ae a8 00 0c  	jal	0x2a2b8 <.text+0xa2b8>
80028870: 00 00 00 00  	nop
80028874: 25 e8 c0 03  	move	$sp, $fp
80028878: 20 00 be 8f  	lw	$fp, 0x20($sp)
8002887c: 24 00 bf 8f  	lw	$ra, 0x24($sp)
80028880: 28 00 bd 27  	addiu	$sp, $sp, 0x28
80028884: 08 00 e0 03  	jr	$ra
80028888: 00 00 00 00  	nop
8002888c: e0 ff bd 27  	addiu	$sp, $sp, -0x20
80028890: 1c 00 bf af  	sw	$ra, 0x1c($sp)
80028894: 18 00 be af  	sw	$fp, 0x18($sp)
80028898: 25 f0 a0 03  	move	$fp, $sp
8002889c: 10 00 c4 af  	sw	$4, 0x10($fp)
800288a0: 14 00 c5 af  	sw	$5, 0x14($fp)
800288a4: be 95 00 0c  	jal	0x256f8 <.text+0x56f8>
800288a8: 00 00 00 00  	nop
800288ac: 25 e8 c0 03  	move	$sp, $fp
800288b0: 18 00 be 8f  	lw	$fp, 0x18($sp)
800288b4: 1c 00 bf 8f  	lw	$ra, 0x1c($sp)
800288b8: 20 00 bd 27  	addiu	$sp, $sp, 0x20
800288bc: 08 00 e0 03  	jr	$ra
800288c0: 00 00 00 00  	nop
800288c4: e0 ff bd 27  	addiu	$sp, $sp, -0x20
800288c8: 1c 00 bf af  	sw	$ra, 0x1c($sp)
800288cc: 18 00 be af  	sw	$fp, 0x18($sp)
800288d0: 25 f0 a0 03  	move	$fp, $sp
800288d4: 10 00 c4 af  	sw	$4, 0x10($fp)
800288d8: 14 00 c5 af  	sw	$5, 0x14($fp)
800288dc: e7 95 00 0c  	jal	0x2579c <.text+0x579c>
800288e0: 00 00 00 00  	nop
800288e4: 25 e8 c0 03  	move	$sp, $fp
800288e8: 18 00 be 8f  	lw	$fp, 0x18($sp)
800288ec: 1c 00 bf 8f  	lw	$ra, 0x1c($sp)
800288f0: 20 00 bd 27  	addiu	$sp, $sp, 0x20
800288f4: 08 00 e0 03  	jr	$ra
800288f8: 00 00 00 00  	nop
800288fc: e0 ff bd 27  	addiu	$sp, $sp, -0x20
80028900: 1c 00 bf af  	sw	$ra, 0x1c($sp)
80028904: 18 00 be af  	sw	$fp, 0x18($sp)
80028908: 25 f0 a0 03  	move	$fp, $sp
8002890c: 10 00 c4 af  	sw	$4, 0x10($fp)
80028910: 14 00 c5 af  	sw	$5, 0x14($fp)
80028914: 10 96 00 0c  	jal	0x25840 <.text+0x5840>
80028918: 00 00 00 00  	nop
8002891c: 25 e8 c0 03  	move	$sp, $fp
80028920: 18 00 be 8f  	lw	$fp, 0x18($sp)
80028924: 1c 00 bf 8f  	lw	$ra, 0x1c($sp)
80028928: 20 00 bd 27  	addiu	$sp, $sp, 0x20
8002892c: 08 00 e0 03  	jr	$ra
80028930: 00 00 00 00  	nop
80028934: a8 ff bd 27  	addiu	$sp, $sp, -0x58
80028938: 54 00 bf af  	sw	$ra, 0x54($sp)
8002893c: 50 00 be af  	sw	$fp, 0x50($sp)
80028940: 25 f0 a0 03  	move	$fp, $sp
80028944: 14 00 c7 af  	sw	$7, 0x14($fp)
80028948: 18 00 c6 af  	sw	$6, 0x18($fp)
8002894c: 1c 00 c5 af  	sw	$5, 0x1c($fp)
80028950: 20 00 c4 af  	sw	$4, 0x20($fp)
80028954: 24 00 c4 af  	sw	$4, 0x24($fp)
80028958: 68 00 c1 8f  	lw	$1, 0x68($fp)
8002895c: 28 00 c1 af  	sw	$1, 0x28($fp)
80028960: 44 00 c5 af  	sw	$5, 0x44($fp)
80028964: 48 00 c6 af  	sw	$6, 0x48($fp)
80028968: 4c 00 c7 af  	sw	$7, 0x4c($fp)
8002896c: 0e 00 e0 14  	bnez	$7, 0x800289a8 <.text+0x89a8>
80028970: 00 00 00 00  	nop
80028974: 5f a2 00 08  	j	0x2897c <.text+0x897c>
80028978: 00 00 00 00  	nop
8002897c: 03 80 01 3c  	lui	$1, 0x8003
80028980: 20 12 25 24  	addiu	$5, $1, 0x1220
80028984: 2c 00 c4 27  	addiu	$4, $fp, 0x2c
80028988: 10 00 c4 af  	sw	$4, 0x10($fp)
8002898c: 01 00 06 24  	addiu	$6, $zero, 0x1
80028990: a0 aa 00 0c  	jal	0x2aa80 <.text+0xaa80>
80028994: 00 00 00 00  	nop
80028998: 10 00 c4 8f  	lw	$4, 0x10($fp)
8002899c: 28 00 c5 8f  	lw	$5, 0x28($fp)
800289a0: f6 b4 00 0c  	jal	0x2d3d8 <.text+0xd3d8>
800289a4: 00 00 00 00  	nop
800289a8: 14 00 c7 8f  	lw	$7, 0x14($fp)
800289ac: 18 00 c6 8f  	lw	$6, 0x18($fp)
800289b0: 1c 00 c5 8f  	lw	$5, 0x1c($fp)
800289b4: 20 00 c4 8f  	lw	$4, 0x20($fp)
800289b8: 7c 96 00 0c  	jal	0x259f0 <.text+0x59f0>
800289bc: 00 00 00 00  	nop
800289c0: 24 00 c2 8f  	lw	$2, 0x24($fp)
800289c4: 25 e8 c0 03  	move	$sp, $fp
800289c8: 50 00 be 8f  	lw	$fp, 0x50($sp)
800289cc: 54 00 bf 8f  	lw	$ra, 0x54($sp)
800289d0: 58 00 bd 27  	addiu	$sp, $sp, 0x58
800289d4: 08 00 e0 03  	jr	$ra
800289d8: 00 00 00 00  	nop
800289dc: c0 ff bd 27  	addiu	$sp, $sp, -0x40
800289e0: 3c 00 bf af  	sw	$ra, 0x3c($sp)
800289e4: 38 00 be af  	sw	$fp, 0x38($sp)
800289e8: 25 f0 a0 03  	move	$fp, $sp
800289ec: 14 00 c5 af  	sw	$5, 0x14($fp)
800289f0: 18 00 c4 af  	sw	$4, 0x18($fp)
800289f4: 1c 00 c4 af  	sw	$4, 0x1c($fp)
800289f8: 20 00 c5 af  	sw	$5, 0x20($fp)
800289fc: b4 a9 00 0c  	jal	0x2a6d0 <.text+0xa6d0>
80028a00: 00 00 00 00  	nop
80028a04: 14 00 40 14  	bnez	$2, 0x80028a58 <.text+0x8a58>
80028a08: 00 00 00 00  	nop
80028a0c: 85 a2 00 08  	j	0x28a14 <.text+0x8a14>
80028a10: 00 00 00 00  	nop
80028a14: 18 00 c4 8f  	lw	$4, 0x18($fp)
80028a18: 14 00 c1 8f  	lw	$1, 0x14($fp)
80028a1c: 82 10 01 00  	srl	$2, $1, 0x2
80028a20: 24 00 c2 af  	sw	$2, 0x24($fp)
80028a24: 24 00 c5 8f  	lw	$5, 0x24($fp)
80028a28: 28 00 c5 af  	sw	$5, 0x28($fp)
80028a2c: 30 00 c4 af  	sw	$4, 0x30($fp)
80028a30: 34 00 c1 af  	sw	$1, 0x34($fp)
80028a34: 2c 00 c4 af  	sw	$4, 0x2c($fp)
80028a38: bd a1 00 0c  	jal	0x286f4 <.text+0x86f4>
80028a3c: 00 00 00 00  	nop
80028a40: 25 e8 c0 03  	move	$sp, $fp
80028a44: 38 00 be 8f  	lw	$fp, 0x38($sp)
80028a48: 3c 00 bf 8f  	lw	$ra, 0x3c($sp)
80028a4c: 40 00 bd 27  	addiu	$sp, $sp, 0x40
80028a50: 08 00 e0 03  	jr	$ra
80028a54: 00 00 00 00  	nop
80028a58: 14 00 c5 8f  	lw	$5, 0x14($fp)
80028a5c: 04 00 04 24  	addiu	$4, $zero, 0x4
80028a60: 4f a5 00 0c  	jal	0x2953c <.text+0x953c>
80028a64: 00 00 00 00  	nop
80028a68: 85 a2 00 08  	j	0x28a14 <.text+0x8a14>
80028a6c: 00 00 00 00  	nop
80028a70: 70 ff bd 27  	addiu	$sp, $sp, -0x90
80028a74: 8c 00 bf af  	sw	$ra, 0x8c($sp)
80028a78: 88 00 be af  	sw	$fp, 0x88($sp)
80028a7c: 25 f0 a0 03  	move	$fp, $sp
80028a80: 28 00 c7 af  	sw	$7, 0x28($fp)
80028a84: 2c 00 c6 af  	sw	$6, 0x2c($fp)
80028a88: 30 00 c5 af  	sw	$5, 0x30($fp)
80028a8c: 34 00 c4 af  	sw	$4, 0x34($fp)
80028a90: 38 00 c4 af  	sw	$4, 0x38($fp)
80028a94: 64 00 c5 af  	sw	$5, 0x64($fp)
80028a98: 68 00 c6 af  	sw	$6, 0x68($fp)
80028a9c: a9 a2 00 08  	j	0x28aa4 <.text+0x8aa4>
80028aa0: 00 00 00 00  	nop
80028aa4: 2c 00 c1 8f  	lw	$1, 0x2c($fp)
80028aa8: 82 10 01 00  	srl	$2, $1, 0x2
80028aac: 6c 00 c2 af  	sw	$2, 0x6c($fp)
80028ab0: fc ff 02 24  	addiu	$2, $zero, -0x4
80028ab4: 24 08 22 00  	and	$1, $1, $2
80028ab8: 24 00 c1 af  	sw	$1, 0x24($fp)
80028abc: 00 00 01 24  	addiu	$1, $zero, 0x0
80028ac0: 2a 00 00 14  	bnez	$zero, 0x80028b6c <.text+0x8b6c>
80028ac4: 00 00 00 00  	nop
80028ac8: b4 a2 00 08  	j	0x28ad0 <.text+0x8ad0>
80028acc: 00 00 00 00  	nop
80028ad0: 24 00 c7 8f  	lw	$7, 0x24($fp)
80028ad4: 2c 00 c6 8f  	lw	$6, 0x2c($fp)
80028ad8: 30 00 c5 8f  	lw	$5, 0x30($fp)
80028adc: 28 00 c1 8f  	lw	$1, 0x28($fp)
80028ae0: 25 10 a0 03  	move	$2, $sp
80028ae4: 10 00 41 ac  	sw	$1, 0x10($2)
80028ae8: 54 00 c4 27  	addiu	$4, $fp, 0x54
80028aec: 0c a3 00 0c  	jal	0x28c30 <.text+0x8c30>
80028af0: 00 00 00 00  	nop
80028af4: 54 00 c4 8f  	lw	$4, 0x54($fp)
80028af8: 58 00 c5 8f  	lw	$5, 0x58($fp)
80028afc: 70 00 c4 af  	sw	$4, 0x70($fp)
80028b00: 74 00 c5 af  	sw	$5, 0x74($fp)
80028b04: 5c 00 c2 8f  	lw	$2, 0x5c($fp)
80028b08: 1c 00 c2 af  	sw	$2, 0x1c($fp)
80028b0c: 60 00 c1 8f  	lw	$1, 0x60($fp)
80028b10: 20 00 c1 af  	sw	$1, 0x20($fp)
80028b14: 78 00 c2 af  	sw	$2, 0x78($fp)
80028b18: 7c 00 c1 af  	sw	$1, 0x7c($fp)
80028b1c: 77 a2 00 0c  	jal	0x289dc <.text+0x89dc>
80028b20: 00 00 00 00  	nop
80028b24: 1c 00 c4 8f  	lw	$4, 0x1c($fp)
80028b28: 20 00 c1 8f  	lw	$1, 0x20($fp)
80028b2c: 25 30 40 00  	move	$6, $2
80028b30: 38 00 c2 8f  	lw	$2, 0x38($fp)
80028b34: 25 28 60 00  	move	$5, $3
80028b38: 34 00 c3 8f  	lw	$3, 0x34($fp)
80028b3c: 80 00 c6 af  	sw	$6, 0x80($fp)
80028b40: 84 00 c5 af  	sw	$5, 0x84($fp)
80028b44: 00 00 66 ac  	sw	$6, 0x0($3)
80028b48: 04 00 65 ac  	sw	$5, 0x4($3)
80028b4c: 08 00 64 ac  	sw	$4, 0x8($3)
80028b50: 0c 00 61 ac  	sw	$1, 0xc($3)
80028b54: 25 e8 c0 03  	move	$sp, $fp
80028b58: 88 00 be 8f  	lw	$fp, 0x88($sp)
80028b5c: 8c 00 bf 8f  	lw	$ra, 0x8c($sp)
80028b60: 90 00 bd 27  	addiu	$sp, $sp, 0x90
80028b64: 08 00 e0 03  	jr	$ra
80028b68: 00 00 00 00  	nop
80028b6c: 28 00 c4 8f  	lw	$4, 0x28($fp)
80028b70: de b2 00 0c  	jal	0x2cb78 <.text+0xcb78>
80028b74: 00 00 00 00  	nop
80028b78: a0 ff bd 27  	addiu	$sp, $sp, -0x60
80028b7c: 5c 00 bf af  	sw	$ra, 0x5c($sp)
80028b80: 58 00 be af  	sw	$fp, 0x58($sp)
80028b84: 25 f0 a0 03  	move	$fp, $sp
80028b88: 18 00 c4 af  	sw	$4, 0x18($fp)
80028b8c: 1c 00 c4 af  	sw	$4, 0x1c($fp)
80028b90: 70 00 c1 8f  	lw	$1, 0x70($fp)
80028b94: 20 00 c1 af  	sw	$1, 0x20($fp)
80028b98: 4c 00 c5 af  	sw	$5, 0x4c($fp)
80028b9c: 50 00 c6 af  	sw	$6, 0x50($fp)
80028ba0: 54 00 c7 af  	sw	$7, 0x54($fp)
80028ba4: 24 00 c4 27  	addiu	$4, $fp, 0x24
80028ba8: c5 a3 00 0c  	jal	0x28f14 <.text+0x8f14>
80028bac: 00 00 00 00  	nop
80028bb0: 24 00 c1 8f  	lw	$1, 0x24($fp)
80028bb4: 0e 00 20 14  	bnez	$1, 0x80028bf0 <.text+0x8bf0>
80028bb8: 00 00 00 00  	nop
80028bbc: f1 a2 00 08  	j	0x28bc4 <.text+0x8bc4>
80028bc0: 00 00 00 00  	nop
80028bc4: 03 80 01 3c  	lui	$1, 0x8003
80028bc8: 34 12 25 24  	addiu	$5, $1, 0x1234
80028bcc: 34 00 c4 27  	addiu	$4, $fp, 0x34
80028bd0: 14 00 c4 af  	sw	$4, 0x14($fp)
80028bd4: 01 00 06 24  	addiu	$6, $zero, 0x1
80028bd8: a0 aa 00 0c  	jal	0x2aa80 <.text+0xaa80>
80028bdc: 00 00 00 00  	nop
80028be0: 14 00 c4 8f  	lw	$4, 0x14($fp)
80028be4: 20 00 c5 8f  	lw	$5, 0x20($fp)
80028be8: f6 b4 00 0c  	jal	0x2d3d8 <.text+0xd3d8>
80028bec: 00 00 00 00  	nop
80028bf0: 1c 00 c2 8f  	lw	$2, 0x1c($fp)
80028bf4: 18 00 c3 8f  	lw	$3, 0x18($fp)
80028bf8: 30 00 c1 8f  	lw	$1, 0x30($fp)
80028bfc: 0c 00 61 ac  	sw	$1, 0xc($3)
80028c00: 2c 00 c1 8f  	lw	$1, 0x2c($fp)
80028c04: 08 00 61 ac  	sw	$1, 0x8($3)
80028c08: 28 00 c1 8f  	lw	$1, 0x28($fp)
80028c0c: 04 00 61 ac  	sw	$1, 0x4($3)
80028c10: 24 00 c1 8f  	lw	$1, 0x24($fp)
80028c14: 00 00 61 ac  	sw	$1, 0x0($3)
80028c18: 25 e8 c0 03  	move	$sp, $fp
80028c1c: 58 00 be 8f  	lw	$fp, 0x58($sp)
80028c20: 5c 00 bf 8f  	lw	$ra, 0x5c($sp)
80028c24: 60 00 bd 27  	addiu	$sp, $sp, 0x60
80028c28: 08 00 e0 03  	jr	$ra
80028c2c: 00 00 00 00  	nop
80028c30: a0 ff bd 27  	addiu	$sp, $sp, -0x60
80028c34: 5c 00 bf af  	sw	$ra, 0x5c($sp)
80028c38: 58 00 be af  	sw	$fp, 0x58($sp)
80028c3c: 25 f0 a0 03  	move	$fp, $sp
80028c40: 18 00 c4 af  	sw	$4, 0x18($fp)
80028c44: 1c 00 c4 af  	sw	$4, 0x1c($fp)
80028c48: 70 00 c1 8f  	lw	$1, 0x70($fp)
80028c4c: 20 00 c1 af  	sw	$1, 0x20($fp)
80028c50: 4c 00 c5 af  	sw	$5, 0x4c($fp)
80028c54: 50 00 c6 af  	sw	$6, 0x50($fp)
80028c58: 54 00 c7 af  	sw	$7, 0x54($fp)
80028c5c: 24 00 c4 27  	addiu	$4, $fp, 0x24
80028c60: f2 a3 00 0c  	jal	0x28fc8 <.text+0x8fc8>
80028c64: 00 00 00 00  	nop
80028c68: 24 00 c1 8f  	lw	$1, 0x24($fp)
80028c6c: 0e 00 20 14  	bnez	$1, 0x80028ca8 <.text+0x8ca8>
80028c70: 00 00 00 00  	nop
80028c74: 1f a3 00 08  	j	0x28c7c <.text+0x8c7c>
80028c78: 00 00 00 00  	nop
80028c7c: 03 80 01 3c  	lui	$1, 0x8003
80028c80: 34 12 25 24  	addiu	$5, $1, 0x1234
80028c84: 34 00 c4 27  	addiu	$4, $fp, 0x34
80028c88: 14 00 c4 af  	sw	$4, 0x14($fp)
80028c8c: 01 00 06 24  	addiu	$6, $zero, 0x1
80028c90: a0 aa 00 0c  	jal	0x2aa80 <.text+0xaa80>
80028c94: 00 00 00 00  	nop
80028c98: 14 00 c4 8f  	lw	$4, 0x14($fp)
80028c9c: 20 00 c5 8f  	lw	$5, 0x20($fp)
80028ca0: f6 b4 00 0c  	jal	0x2d3d8 <.text+0xd3d8>
80028ca4: 00 00 00 00  	nop
80028ca8: 1c 00 c2 8f  	lw	$2, 0x1c($fp)
80028cac: 18 00 c3 8f  	lw	$3, 0x18($fp)
80028cb0: 30 00 c1 8f  	lw	$1, 0x30($fp)
80028cb4: 0c 00 61 ac  	sw	$1, 0xc($3)
80028cb8: 2c 00 c1 8f  	lw	$1, 0x2c($fp)
80028cbc: 08 00 61 ac  	sw	$1, 0x8($3)
80028cc0: 28 00 c1 8f  	lw	$1, 0x28($fp)
80028cc4: 04 00 61 ac  	sw	$1, 0x4($3)
80028cc8: 24 00 c1 8f  	lw	$1, 0x24($fp)
80028ccc: 00 00 61 ac  	sw	$1, 0x0($3)
80028cd0: 25 e8 c0 03  	move	$sp, $fp
80028cd4: 58 00 be 8f  	lw	$fp, 0x58($sp)
80028cd8: 5c 00 bf 8f  	lw	$ra, 0x5c($sp)
80028cdc: 60 00 bd 27  	addiu	$sp, $sp, 0x60
80028ce0: 08 00 e0 03  	jr	$ra
80028ce4: 00 00 00 00  	nop
80028ce8: a0 ff bd 27  	addiu	$sp, $sp, -0x60
80028cec: 5c 00 bf af  	sw	$ra, 0x5c($sp)
80028cf0: 58 00 be af  	sw	$fp, 0x58($sp)
80028cf4: 25 f0 a0 03  	move	$fp, $sp
80028cf8: 20 00 c7 af  	sw	$7, 0x20($fp)
80028cfc: 24 00 c6 af  	sw	$6, 0x24($fp)
80028d00: 28 00 c5 af  	sw	$5, 0x28($fp)
80028d04: 2c 00 c4 af  	sw	$4, 0x2c($fp)
80028d08: 30 00 c4 af  	sw	$4, 0x30($fp)
80028d0c: 34 00 c5 af  	sw	$5, 0x34($fp)
80028d10: 38 00 c6 af  	sw	$6, 0x38($fp)
80028d14: 3c 00 c7 af  	sw	$7, 0x3c($fp)
80028d18: 40 00 c6 af  	sw	$6, 0x40($fp)
80028d1c: 50 00 c5 af  	sw	$5, 0x50($fp)
80028d20: 54 00 c6 af  	sw	$6, 0x54($fp)
80028d24: 44 00 c5 af  	sw	$5, 0x44($fp)
80028d28: 4c a3 00 08  	j	0x28d30 <.text+0x8d30>
80028d2c: 00 00 00 00  	nop
80028d30: 24 00 c5 8f  	lw	$5, 0x24($fp)
80028d34: 20 00 c4 8f  	lw	$4, 0x20($fp)
80028d38: 78 a5 00 0c  	jal	0x295e0 <.text+0x95e0>
80028d3c: 00 00 00 00  	nop
80028d40: 52 a3 00 08  	j	0x28d48 <.text+0x8d48>
80028d44: 00 00 00 00  	nop
80028d48: 20 00 c5 8f  	lw	$5, 0x20($fp)
80028d4c: 28 00 c4 8f  	lw	$4, 0x28($fp)
80028d50: 9d a1 00 0c  	jal	0x28674 <.text+0x8674>
80028d54: 00 00 00 00  	nop
80028d58: 24 00 c1 8f  	lw	$1, 0x24($fp)
80028d5c: 25 28 40 00  	move	$5, $2
80028d60: 20 00 c2 8f  	lw	$2, 0x20($fp)
80028d64: 25 20 60 00  	move	$4, $3
80028d68: 28 00 c3 8f  	lw	$3, 0x28($fp)
80028d6c: 10 00 c5 af  	sw	$5, 0x10($fp)
80028d70: 14 00 c4 af  	sw	$4, 0x14($fp)
80028d74: 48 00 c3 af  	sw	$3, 0x48($fp)
80028d78: 4c 00 c2 af  	sw	$2, 0x4c($fp)
80028d7c: 80 20 02 00  	sll	$4, $2, 0x2
80028d80: 21 18 64 00  	addu	$3, $3, $4
80028d84: 18 00 c3 af  	sw	$3, 0x18($fp)
80028d88: 23 18 22 00  	subu	$3, $1, $2
80028d8c: 1c 00 c3 af  	sw	$3, 0x1c($fp)
80028d90: 2b 08 22 00  	sltu	$1, $1, $2
80028d94: 16 00 20 14  	bnez	$1, 0x80028df0 <.text+0x8df0>
80028d98: 00 00 00 00  	nop
80028d9c: 69 a3 00 08  	j	0x28da4 <.text+0x8da4>
80028da0: 00 00 00 00  	nop
80028da4: 1c 00 c5 8f  	lw	$5, 0x1c($fp)
80028da8: 18 00 c4 8f  	lw	$4, 0x18($fp)
80028dac: 9d a1 00 0c  	jal	0x28674 <.text+0x8674>
80028db0: 00 00 00 00  	nop
80028db4: 10 00 c6 8f  	lw	$6, 0x10($fp)
80028db8: 14 00 c5 8f  	lw	$5, 0x14($fp)
80028dbc: 2c 00 c1 8f  	lw	$1, 0x2c($fp)
80028dc0: 25 20 40 00  	move	$4, $2
80028dc4: 30 00 c2 8f  	lw	$2, 0x30($fp)
80028dc8: 00 00 26 ac  	sw	$6, 0x0($1)
80028dcc: 04 00 25 ac  	sw	$5, 0x4($1)
80028dd0: 08 00 24 ac  	sw	$4, 0x8($1)
80028dd4: 0c 00 23 ac  	sw	$3, 0xc($1)
80028dd8: 25 e8 c0 03  	move	$sp, $fp
80028ddc: 58 00 be 8f  	lw	$fp, 0x58($sp)
80028de0: 5c 00 bf 8f  	lw	$ra, 0x5c($sp)
80028de4: 60 00 bd 27  	addiu	$sp, $sp, 0x60
80028de8: 08 00 e0 03  	jr	$ra
80028dec: 00 00 00 00  	nop
80028df0: 03 80 01 3c  	lui	$1, 0x8003
80028df4: b4 12 24 24  	addiu	$4, $1, 0x12b4
80028df8: ce b2 00 0c  	jal	0x2cb38 <.text+0xcb38>
80028dfc: 00 00 00 00  	nop
80028e00: a0 ff bd 27  	addiu	$sp, $sp, -0x60
80028e04: 5c 00 bf af  	sw	$ra, 0x5c($sp)
80028e08: 58 00 be af  	sw	$fp, 0x58($sp)
80028e0c: 25 f0 a0 03  	move	$fp, $sp
80028e10: 20 00 c7 af  	sw	$7, 0x20($fp)
80028e14: 24 00 c6 af  	sw	$6, 0x24($fp)
80028e18: 28 00 c5 af  	sw	$5, 0x28($fp)
80028e1c: 2c 00 c4 af  	sw	$4, 0x2c($fp)
80028e20: 30 00 c4 af  	sw	$4, 0x30($fp)
80028e24: 34 00 c5 af  	sw	$5, 0x34($fp)
80028e28: 38 00 c6 af  	sw	$6, 0x38($fp)
80028e2c: 3c 00 c7 af  	sw	$7, 0x3c($fp)
80028e30: 40 00 c6 af  	sw	$6, 0x40($fp)
80028e34: 50 00 c5 af  	sw	$5, 0x50($fp)
80028e38: 54 00 c6 af  	sw	$6, 0x54($fp)
80028e3c: 44 00 c5 af  	sw	$5, 0x44($fp)
80028e40: 92 a3 00 08  	j	0x28e48 <.text+0x8e48>
80028e44: 00 00 00 00  	nop
80028e48: 24 00 c5 8f  	lw	$5, 0x24($fp)
80028e4c: 20 00 c4 8f  	lw	$4, 0x20($fp)
80028e50: 78 a5 00 0c  	jal	0x295e0 <.text+0x95e0>
80028e54: 00 00 00 00  	nop
80028e58: 98 a3 00 08  	j	0x28e60 <.text+0x8e60>
80028e5c: 00 00 00 00  	nop
80028e60: 20 00 c5 8f  	lw	$5, 0x20($fp)
80028e64: 28 00 c4 8f  	lw	$4, 0x28($fp)
80028e68: 7d a1 00 0c  	jal	0x285f4 <.text+0x85f4>
80028e6c: 00 00 00 00  	nop
80028e70: 24 00 c1 8f  	lw	$1, 0x24($fp)
80028e74: 25 28 40 00  	move	$5, $2
80028e78: 20 00 c2 8f  	lw	$2, 0x20($fp)
80028e7c: 25 20 60 00  	move	$4, $3
80028e80: 28 00 c3 8f  	lw	$3, 0x28($fp)
80028e84: 10 00 c5 af  	sw	$5, 0x10($fp)
80028e88: 14 00 c4 af  	sw	$4, 0x14($fp)
80028e8c: 48 00 c3 af  	sw	$3, 0x48($fp)
80028e90: 4c 00 c2 af  	sw	$2, 0x4c($fp)
80028e94: 21 18 62 00  	addu	$3, $3, $2
80028e98: 18 00 c3 af  	sw	$3, 0x18($fp)
80028e9c: 23 18 22 00  	subu	$3, $1, $2
80028ea0: 1c 00 c3 af  	sw	$3, 0x1c($fp)
80028ea4: 2b 08 22 00  	sltu	$1, $1, $2
80028ea8: 16 00 20 14  	bnez	$1, 0x80028f04 <.text+0x8f04>
80028eac: 00 00 00 00  	nop
80028eb0: ae a3 00 08  	j	0x28eb8 <.text+0x8eb8>
80028eb4: 00 00 00 00  	nop
80028eb8: 1c 00 c5 8f  	lw	$5, 0x1c($fp)
80028ebc: 18 00 c4 8f  	lw	$4, 0x18($fp)
80028ec0: 7d a1 00 0c  	jal	0x285f4 <.text+0x85f4>
80028ec4: 00 00 00 00  	nop
80028ec8: 10 00 c6 8f  	lw	$6, 0x10($fp)
80028ecc: 14 00 c5 8f  	lw	$5, 0x14($fp)
80028ed0: 2c 00 c1 8f  	lw	$1, 0x2c($fp)
80028ed4: 25 20 40 00  	move	$4, $2
80028ed8: 30 00 c2 8f  	lw	$2, 0x30($fp)
80028edc: 00 00 26 ac  	sw	$6, 0x0($1)
80028ee0: 04 00 25 ac  	sw	$5, 0x4($1)
80028ee4: 08 00 24 ac  	sw	$4, 0x8($1)
80028ee8: 0c 00 23 ac  	sw	$3, 0xc($1)
80028eec: 25 e8 c0 03  	move	$sp, $fp
80028ef0: 58 00 be 8f  	lw	$fp, 0x58($sp)
80028ef4: 5c 00 bf 8f  	lw	$ra, 0x5c($sp)
80028ef8: 60 00 bd 27  	addiu	$sp, $sp, 0x60
80028efc: 08 00 e0 03  	jr	$ra
80028f00: 00 00 00 00  	nop
80028f04: 03 80 01 3c  	lui	$1, 0x8003
80028f08: b4 12 24 24  	addiu	$4, $1, 0x12b4
80028f0c: ce b2 00 0c  	jal	0x2cb38 <.text+0xcb38>
80028f10: 00 00 00 00  	nop
80028f14: b8 ff bd 27  	addiu	$sp, $sp, -0x48
80028f18: 44 00 bf af  	sw	$ra, 0x44($sp)
80028f1c: 40 00 be af  	sw	$fp, 0x40($sp)
80028f20: 25 f0 a0 03  	move	$fp, $sp
80028f24: 10 00 c7 af  	sw	$7, 0x10($fp)
80028f28: 14 00 c6 af  	sw	$6, 0x14($fp)
80028f2c: 18 00 c5 af  	sw	$5, 0x18($fp)
80028f30: 1c 00 c4 af  	sw	$4, 0x1c($fp)
80028f34: 20 00 c4 af  	sw	$4, 0x20($fp)
80028f38: 34 00 c5 af  	sw	$5, 0x34($fp)
80028f3c: 38 00 c6 af  	sw	$6, 0x38($fp)
80028f40: 3c 00 c7 af  	sw	$7, 0x3c($fp)
80028f44: 2b 08 c7 00  	sltu	$1, $6, $7
80028f48: 07 00 20 10  	beqz	$1, 0x80028f68 <.text+0x8f68>
80028f4c: 00 00 00 00  	nop
80028f50: d6 a3 00 08  	j	0x28f58 <.text+0x8f58>
80028f54: 00 00 00 00  	nop
80028f58: 1c 00 c1 8f  	lw	$1, 0x1c($fp)
80028f5c: 00 00 20 ac  	sw	$zero, 0x0($1)
80028f60: eb a3 00 08  	j	0x28fac <.text+0x8fac>
80028f64: 00 00 00 00  	nop
80028f68: 10 00 c7 8f  	lw	$7, 0x10($fp)
80028f6c: 14 00 c6 8f  	lw	$6, 0x14($fp)
80028f70: 18 00 c5 8f  	lw	$5, 0x18($fp)
80028f74: 24 00 c4 27  	addiu	$4, $fp, 0x24
80028f78: 80 a3 00 0c  	jal	0x28e00 <.text+0x8e00>
80028f7c: 00 00 00 00  	nop
80028f80: 1c 00 c2 8f  	lw	$2, 0x1c($fp)
80028f84: 30 00 c1 8f  	lw	$1, 0x30($fp)
80028f88: 0c 00 41 ac  	sw	$1, 0xc($2)
80028f8c: 2c 00 c1 8f  	lw	$1, 0x2c($fp)
80028f90: 08 00 41 ac  	sw	$1, 0x8($2)
80028f94: 28 00 c1 8f  	lw	$1, 0x28($fp)
80028f98: 04 00 41 ac  	sw	$1, 0x4($2)
80028f9c: 24 00 c1 8f  	lw	$1, 0x24($fp)
80028fa0: 00 00 41 ac  	sw	$1, 0x0($2)
80028fa4: eb a3 00 08  	j	0x28fac <.text+0x8fac>
80028fa8: 00 00 00 00  	nop
80028fac: 20 00 c2 8f  	lw	$2, 0x20($fp)
80028fb0: 25 e8 c0 03  	move	$sp, $fp
80028fb4: 40 00 be 8f  	lw	$fp, 0x40($sp)
80028fb8: 44 00 bf 8f  	lw	$ra, 0x44($sp)
80028fbc: 48 00 bd 27  	addiu	$sp, $sp, 0x48
80028fc0: 08 00 e0 03  	jr	$ra
80028fc4: 00 00 00 00  	nop
80028fc8: b8 ff bd 27  	addiu	$sp, $sp, -0x48
80028fcc: 44 00 bf af  	sw	$ra, 0x44($sp)
80028fd0: 40 00 be af  	sw	$fp, 0x40($sp)
80028fd4: 25 f0 a0 03  	move	$fp, $sp
80028fd8: 10 00 c7 af  	sw	$7, 0x10($fp)
80028fdc: 14 00 c6 af  	sw	$6, 0x14($fp)
80028fe0: 18 00 c5 af  	sw	$5, 0x18($fp)
80028fe4: 1c 00 c4 af  	sw	$4, 0x1c($fp)
80028fe8: 20 00 c4 af  	sw	$4, 0x20($fp)
80028fec: 34 00 c5 af  	sw	$5, 0x34($fp)
80028ff0: 38 00 c6 af  	sw	$6, 0x38($fp)
80028ff4: 3c 00 c7 af  	sw	$7, 0x3c($fp)
80028ff8: 2b 08 c7 00  	sltu	$1, $6, $7
80028ffc: 07 00 20 10  	beqz	$1, 0x8002901c <.text+0x901c>
80029000: 00 00 00 00  	nop
80029004: 03 a4 00 08  	j	0x2900c <.text+0x900c>
80029008: 00 00 00 00  	nop
8002900c: 1c 00 c1 8f  	lw	$1, 0x1c($fp)
80029010: 00 00 20 ac  	sw	$zero, 0x0($1)
80029014: 18 a4 00 08  	j	0x29060 <.text+0x9060>
80029018: 00 00 00 00  	nop
8002901c: 10 00 c7 8f  	lw	$7, 0x10($fp)
80029020: 14 00 c6 8f  	lw	$6, 0x14($fp)
80029024: 18 00 c5 8f  	lw	$5, 0x18($fp)
80029028: 24 00 c4 27  	addiu	$4, $fp, 0x24
8002902c: 3a a3 00 0c  	jal	0x28ce8 <.text+0x8ce8>
80029030: 00 00 00 00  	nop
80029034: 1c 00 c2 8f  	lw	$2, 0x1c($fp)
80029038: 30 00 c1 8f  	lw	$1, 0x30($fp)
8002903c: 0c 00 41 ac  	sw	$1, 0xc($2)
80029040: 2c 00 c1 8f  	lw	$1, 0x2c($fp)
80029044: 08 00 41 ac  	sw	$1, 0x8($2)
80029048: 28 00 c1 8f  	lw	$1, 0x28($fp)
8002904c: 04 00 41 ac  	sw	$1, 0x4($2)
80029050: 24 00 c1 8f  	lw	$1, 0x24($fp)
80029054: 00 00 41 ac  	sw	$1, 0x0($2)
80029058: 18 a4 00 08  	j	0x29060 <.text+0x9060>
8002905c: 00 00 00 00  	nop
80029060: 20 00 c2 8f  	lw	$2, 0x20($fp)
80029064: 25 e8 c0 03  	move	$sp, $fp
80029068: 40 00 be 8f  	lw	$fp, 0x40($sp)
8002906c: 44 00 bf 8f  	lw	$ra, 0x44($sp)
80029070: 48 00 bd 27  	addiu	$sp, $sp, 0x48
80029074: 08 00 e0 03  	jr	$ra
80029078: 00 00 00 00  	nop
8002907c: b0 ff bd 27  	addiu	$sp, $sp, -0x50
80029080: 4c 00 bf af  	sw	$ra, 0x4c($sp)
80029084: 48 00 be af  	sw	$fp, 0x48($sp)
80029088: 25 f0 a0 03  	move	$fp, $sp
8002908c: 18 00 c5 af  	sw	$5, 0x18($fp)
80029090: 01 00 01 24  	addiu	$1, $zero, 0x1
80029094: 1c 00 c1 af  	sw	$1, 0x1c($fp)
80029098: 24 00 c1 af  	sw	$1, 0x24($fp)
8002909c: 30 00 c4 af  	sw	$4, 0x30($fp)
800290a0: 34 00 c5 af  	sw	$5, 0x34($fp)
800290a4: 04 00 02 24  	addiu	$2, $zero, 0x4
800290a8: 20 00 c2 af  	sw	$2, 0x20($fp)
800290ac: 38 00 c2 af  	sw	$2, 0x38($fp)
800290b0: 3c 00 c1 af  	sw	$1, 0x3c($fp)
800290b4: 00 00 01 24  	addiu	$1, $zero, 0x0
800290b8: 11 00 00 14  	bnez	$zero, 0x80029100 <.text+0x9100>
800290bc: 00 00 00 00  	nop
800290c0: 32 a4 00 08  	j	0x290c8 <.text+0x90c8>
800290c4: 00 00 00 00  	nop
800290c8: 1c 00 c2 8f  	lw	$2, 0x1c($fp)
800290cc: 20 00 c1 8f  	lw	$1, 0x20($fp)
800290d0: 18 00 c3 8f  	lw	$3, 0x18($fp)
800290d4: 1b 00 61 00  	divu	$zero, $3, $1
800290d8: f4 01 20 00  	teq	$1, $zero, 0x7
800290dc: 12 08 00 00  	mflo	$1
800290e0: 02 18 22 70  	mul	$3, $1, $2
800290e4: 14 00 c3 af  	sw	$3, 0x14($fp)
800290e8: 19 00 22 00  	multu	$1, $2
800290ec: 10 08 00 00  	mfhi	$1
800290f0: 0e 00 20 14  	bnez	$1, 0x8002912c <.text+0x912c>
800290f4: 00 00 00 00  	nop
800290f8: 44 a4 00 08  	j	0x29110 <.text+0x9110>
800290fc: 00 00 00 00  	nop
80029100: 03 80 01 3c  	lui	$1, 0x8003
80029104: c4 12 24 24  	addiu	$4, $1, 0x12c4
80029108: 0e b3 00 0c  	jal	0x2cc38 <.text+0xcc38>
8002910c: 00 00 00 00  	nop
80029110: 20 00 c1 8f  	lw	$1, 0x20($fp)
80029114: 14 00 c2 8f  	lw	$2, 0x14($fp)
80029118: 40 00 c2 af  	sw	$2, 0x40($fp)
8002911c: 18 00 20 10  	beqz	$1, 0x80029180 <.text+0x9180>
80029120: 00 00 00 00  	nop
80029124: 4f a4 00 08  	j	0x2913c <.text+0x913c>
80029128: 00 00 00 00  	nop
8002912c: 03 80 01 3c  	lui	$1, 0x8003
80029130: c4 12 24 24  	addiu	$4, $1, 0x12c4
80029134: de b2 00 0c  	jal	0x2cb78 <.text+0xcb78>
80029138: 00 00 00 00  	nop
8002913c: 14 00 c2 8f  	lw	$2, 0x14($fp)
80029140: 20 00 c1 8f  	lw	$1, 0x20($fp)
80029144: 18 00 c3 8f  	lw	$3, 0x18($fp)
80029148: 1b 00 61 00  	divu	$zero, $3, $1
8002914c: f4 01 20 00  	teq	$1, $zero, 0x7
80029150: 10 08 00 00  	mfhi	$1
80029154: 44 00 c1 af  	sw	$1, 0x44($fp)
80029158: 28 00 c2 af  	sw	$2, 0x28($fp)
8002915c: 2c 00 c1 af  	sw	$1, 0x2c($fp)
80029160: 28 00 c2 8f  	lw	$2, 0x28($fp)
80029164: 2c 00 c3 8f  	lw	$3, 0x2c($fp)
80029168: 25 e8 c0 03  	move	$sp, $fp
8002916c: 48 00 be 8f  	lw	$fp, 0x48($sp)
80029170: 4c 00 bf 8f  	lw	$ra, 0x4c($sp)
80029174: 50 00 bd 27  	addiu	$sp, $sp, 0x50
80029178: 08 00 e0 03  	jr	$ra
8002917c: 00 00 00 00  	nop
80029180: 03 80 01 3c  	lui	$1, 0x8003
80029184: d4 12 24 24  	addiu	$4, $1, 0x12d4
80029188: 1e b3 00 0c  	jal	0x2cc78 <.text+0xcc78>
8002918c: 00 00 00 00  	nop
80029190: 50 ff bd 27  	addiu	$sp, $sp, -0xb0
80029194: ac 00 bf af  	sw	$ra, 0xac($sp)
80029198: a8 00 be af  	sw	$fp, 0xa8($sp)
8002919c: 25 f0 a0 03  	move	$fp, $sp
800291a0: 40 00 c6 af  	sw	$6, 0x40($fp)
800291a4: 44 00 c5 af  	sw	$5, 0x44($fp)
800291a8: 48 00 c4 af  	sw	$4, 0x48($fp)
800291ac: 4c 00 c4 af  	sw	$4, 0x4c($fp)
800291b0: 60 00 c5 af  	sw	$5, 0x60($fp)
800291b4: 64 00 c6 af  	sw	$6, 0x64($fp)
800291b8: 70 a4 00 08  	j	0x291c0 <.text+0x91c0>
800291bc: 00 00 00 00  	nop
800291c0: 72 a4 00 08  	j	0x291c8 <.text+0x91c8>
800291c4: 00 00 00 00  	nop
800291c8: 40 00 c1 8f  	lw	$1, 0x40($fp)
800291cc: 44 00 c4 8f  	lw	$4, 0x44($fp)
800291d0: a0 00 c4 af  	sw	$4, 0xa0($fp)
800291d4: a4 00 c1 af  	sw	$1, 0xa4($fp)
800291d8: 68 00 c4 af  	sw	$4, 0x68($fp)
800291dc: 04 00 05 24  	addiu	$5, $zero, 0x4
800291e0: ae 9f 00 0c  	jal	0x27eb8 <.text+0x7eb8>
800291e4: 00 00 00 00  	nop
800291e8: 40 00 c1 8f  	lw	$1, 0x40($fp)
800291ec: 25 18 40 00  	move	$3, $2
800291f0: 3c 00 c3 af  	sw	$3, 0x3c($fp)
800291f4: 6c 00 c2 af  	sw	$2, 0x6c($fp)
800291f8: 2b 08 22 00  	sltu	$1, $1, $2
800291fc: 37 00 20 14  	bnez	$1, 0x800292dc <.text+0x92dc>
80029200: 00 00 00 00  	nop
80029204: 83 a4 00 08  	j	0x2920c <.text+0x920c>
80029208: 00 00 00 00  	nop
8002920c: 3c 00 c7 8f  	lw	$7, 0x3c($fp)
80029210: 40 00 c6 8f  	lw	$6, 0x40($fp)
80029214: 44 00 c5 8f  	lw	$5, 0x44($fp)
80029218: 03 80 01 3c  	lui	$1, 0x8003
8002921c: e4 12 21 24  	addiu	$1, $1, 0x12e4
80029220: 25 10 a0 03  	move	$2, $sp
80029224: 10 00 41 ac  	sw	$1, 0x10($2)
80029228: 50 00 c4 27  	addiu	$4, $fp, 0x50
8002922c: de a2 00 0c  	jal	0x28b78 <.text+0x8b78>
80029230: 00 00 00 00  	nop
80029234: 50 00 c2 8f  	lw	$2, 0x50($fp)
80029238: 18 00 c2 af  	sw	$2, 0x18($fp)
8002923c: 54 00 c1 8f  	lw	$1, 0x54($fp)
80029240: 1c 00 c1 af  	sw	$1, 0x1c($fp)
80029244: 70 00 c2 af  	sw	$2, 0x70($fp)
80029248: 74 00 c1 af  	sw	$1, 0x74($fp)
8002924c: 58 00 c4 8f  	lw	$4, 0x58($fp)
80029250: 28 00 c4 af  	sw	$4, 0x28($fp)
80029254: 5c 00 c5 8f  	lw	$5, 0x5c($fp)
80029258: 24 00 c5 af  	sw	$5, 0x24($fp)
8002925c: 78 00 c4 af  	sw	$4, 0x78($fp)
80029260: 7c 00 c5 af  	sw	$5, 0x7c($fp)
80029264: 1f a4 00 0c  	jal	0x2907c <.text+0x907c>
80029268: 00 00 00 00  	nop
8002926c: 28 00 c4 8f  	lw	$4, 0x28($fp)
80029270: 24 00 c1 8f  	lw	$1, 0x24($fp)
80029274: 25 28 40 00  	move	$5, $2
80029278: 2c 00 c3 af  	sw	$3, 0x2c($fp)
8002927c: 25 10 60 00  	move	$2, $3
80029280: 20 00 c2 af  	sw	$2, 0x20($fp)
80029284: 80 00 c5 af  	sw	$5, 0x80($fp)
80029288: 84 00 c3 af  	sw	$3, 0x84($fp)
8002928c: 98 00 c4 af  	sw	$4, 0x98($fp)
80029290: 9c 00 c1 af  	sw	$1, 0x9c($fp)
80029294: 9d a1 00 0c  	jal	0x28674 <.text+0x8674>
80029298: 00 00 00 00  	nop
8002929c: 24 00 c1 8f  	lw	$1, 0x24($fp)
800292a0: 25 28 40 00  	move	$5, $2
800292a4: 28 00 c2 8f  	lw	$2, 0x28($fp)
800292a8: 25 20 60 00  	move	$4, $3
800292ac: 2c 00 c3 8f  	lw	$3, 0x2c($fp)
800292b0: 30 00 c5 af  	sw	$5, 0x30($fp)
800292b4: 34 00 c4 af  	sw	$4, 0x34($fp)
800292b8: 90 00 c2 af  	sw	$2, 0x90($fp)
800292bc: 94 00 c1 af  	sw	$1, 0x94($fp)
800292c0: 23 10 23 00  	subu	$2, $1, $3
800292c4: 38 00 c2 af  	sw	$2, 0x38($fp)
800292c8: 2b 08 23 00  	sltu	$1, $1, $3
800292cc: 25 00 20 14  	bnez	$1, 0x80029364 <.text+0x9364>
800292d0: 00 00 00 00  	nop
800292d4: c4 a4 00 08  	j	0x29310 <.text+0x9310>
800292d8: 00 00 00 00  	nop
800292dc: 48 00 c1 8f  	lw	$1, 0x48($fp)
800292e0: 40 00 c2 8f  	lw	$2, 0x40($fp)
800292e4: 44 00 c3 8f  	lw	$3, 0x44($fp)
800292e8: 00 00 23 ac  	sw	$3, 0x0($1)
800292ec: 04 00 22 ac  	sw	$2, 0x4($1)
800292f0: 03 80 02 3c  	lui	$2, 0x8003
800292f4: 04 13 42 24  	addiu	$2, $2, 0x1304
800292f8: 08 00 22 ac  	sw	$2, 0x8($1)
800292fc: 0c 00 20 ac  	sw	$zero, 0xc($1)
80029300: 10 00 22 ac  	sw	$2, 0x10($1)
80029304: 14 00 20 ac  	sw	$zero, 0x14($1)
80029308: dd a4 00 08  	j	0x29374 <.text+0x9374>
8002930c: 00 00 00 00  	nop
80029310: 20 00 c5 8f  	lw	$5, 0x20($fp)
80029314: 28 00 c1 8f  	lw	$1, 0x28($fp)
80029318: 38 00 c2 8f  	lw	$2, 0x38($fp)
8002931c: 88 00 c1 af  	sw	$1, 0x88($fp)
80029320: 8c 00 c2 af  	sw	$2, 0x8c($fp)
80029324: 21 20 22 00  	addu	$4, $1, $2
80029328: 7d a1 00 0c  	jal	0x285f4 <.text+0x85f4>
8002932c: 00 00 00 00  	nop
80029330: 18 00 c7 8f  	lw	$7, 0x18($fp)
80029334: 1c 00 c6 8f  	lw	$6, 0x1c($fp)
80029338: 30 00 c5 8f  	lw	$5, 0x30($fp)
8002933c: 34 00 c4 8f  	lw	$4, 0x34($fp)
80029340: 48 00 c1 8f  	lw	$1, 0x48($fp)
80029344: 00 00 27 ac  	sw	$7, 0x0($1)
80029348: 04 00 26 ac  	sw	$6, 0x4($1)
8002934c: 08 00 25 ac  	sw	$5, 0x8($1)
80029350: 0c 00 24 ac  	sw	$4, 0xc($1)
80029354: 10 00 22 ac  	sw	$2, 0x10($1)
80029358: 14 00 23 ac  	sw	$3, 0x14($1)
8002935c: dd a4 00 08  	j	0x29374 <.text+0x9374>
80029360: 00 00 00 00  	nop
80029364: 03 80 01 3c  	lui	$1, 0x8003
80029368: f4 12 24 24  	addiu	$4, $1, 0x12f4
8002936c: ce b2 00 0c  	jal	0x2cb38 <.text+0xcb38>
80029370: 00 00 00 00  	nop
80029374: 4c 00 c2 8f  	lw	$2, 0x4c($fp)
80029378: 25 e8 c0 03  	move	$sp, $fp
8002937c: a8 00 be 8f  	lw	$fp, 0xa8($sp)
80029380: ac 00 bf 8f  	lw	$ra, 0xac($sp)
80029384: b0 00 bd 27  	addiu	$sp, $sp, 0xb0
80029388: 08 00 e0 03  	jr	$ra
8002938c: 00 00 00 00  	nop
80029390: e0 ff bd 27  	addiu	$sp, $sp, -0x20
80029394: 1c 00 bf af  	sw	$ra, 0x1c($sp)
80029398: 18 00 be af  	sw	$fp, 0x18($sp)
8002939c: 25 f0 a0 03  	move	$fp, $sp
800293a0: 10 00 c4 af  	sw	$4, 0x10($fp)
800293a4: 14 00 c5 af  	sw	$5, 0x14($fp)
800293a8: d2 a9 00 0c  	jal	0x2a748 <.text+0xa748>
800293ac: 00 00 00 00  	nop
800293b0: 08 00 40 14  	bnez	$2, 0x800293d4 <.text+0x93d4>
800293b4: 00 00 00 00  	nop
800293b8: f0 a4 00 08  	j	0x293c0 <.text+0x93c0>
800293bc: 00 00 00 00  	nop
800293c0: 03 80 01 3c  	lui	$1, 0x8003
800293c4: 04 13 24 24  	addiu	$4, $1, 0x1304
800293c8: 65 00 05 24  	addiu	$5, $zero, 0x65
800293cc: 57 b5 00 0c  	jal	0x2d55c <.text+0xd55c>
800293d0: 00 00 00 00  	nop
800293d4: 25 e8 c0 03  	move	$sp, $fp
800293d8: 18 00 be 8f  	lw	$fp, 0x18($sp)
800293dc: 1c 00 bf 8f  	lw	$ra, 0x1c($sp)
800293e0: 20 00 bd 27  	addiu	$sp, $sp, 0x20
800293e4: 08 00 e0 03  	jr	$ra
800293e8: 00 00 00 00  	nop
800293ec: e0 ff bd 27  	addiu	$sp, $sp, -0x20
800293f0: 1c 00 bf af  	sw	$ra, 0x1c($sp)
800293f4: 18 00 be af  	sw	$fp, 0x18($sp)
800293f8: 25 f0 a0 03  	move	$fp, $sp
800293fc: 10 00 c4 af  	sw	$4, 0x10($fp)
80029400: 14 00 c5 af  	sw	$5, 0x14($fp)
80029404: d2 a9 00 0c  	jal	0x2a748 <.text+0xa748>
80029408: 00 00 00 00  	nop
8002940c: 08 00 40 14  	bnez	$2, 0x80029430 <.text+0x9430>
80029410: 00 00 00 00  	nop
80029414: 07 a5 00 08  	j	0x2941c <.text+0x941c>
80029418: 00 00 00 00  	nop
8002941c: 03 80 01 3c  	lui	$1, 0x8003
80029420: 69 13 24 24  	addiu	$4, $1, 0x1369
80029424: 66 00 05 24  	addiu	$5, $zero, 0x66
80029428: 57 b5 00 0c  	jal	0x2d55c <.text+0xd55c>
8002942c: 00 00 00 00  	nop
80029430: 25 e8 c0 03  	move	$sp, $fp
80029434: 18 00 be 8f  	lw	$fp, 0x18($sp)
80029438: 1c 00 bf 8f  	lw	$ra, 0x1c($sp)
8002943c: 20 00 bd 27  	addiu	$sp, $sp, 0x20
80029440: 08 00 e0 03  	jr	$ra
80029444: 00 00 00 00  	nop
80029448: e0 ff bd 27  	addiu	$sp, $sp, -0x20
8002944c: 1c 00 bf af  	sw	$ra, 0x1c($sp)
80029450: 18 00 be af  	sw	$fp, 0x18($sp)
80029454: 25 f0 a0 03  	move	$fp, $sp
80029458: 10 00 c4 af  	sw	$4, 0x10($fp)
8002945c: 14 00 c5 af  	sw	$5, 0x14($fp)
80029460: d2 a9 00 0c  	jal	0x2a748 <.text+0xa748>
80029464: 00 00 00 00  	nop
80029468: 08 00 40 14  	bnez	$2, 0x8002948c <.text+0x948c>
8002946c: 00 00 00 00  	nop
80029470: 1e a5 00 08  	j	0x29478 <.text+0x9478>
80029474: 00 00 00 00  	nop
80029478: 03 80 01 3c  	lui	$1, 0x8003
8002947c: cf 13 24 24  	addiu	$4, $1, 0x13cf
80029480: 6e 00 05 24  	addiu	$5, $zero, 0x6e
80029484: 57 b5 00 0c  	jal	0x2d55c <.text+0xd55c>
80029488: 00 00 00 00  	nop
8002948c: 25 e8 c0 03  	move	$sp, $fp
80029490: 18 00 be 8f  	lw	$fp, 0x18($sp)
80029494: 1c 00 bf 8f  	lw	$ra, 0x1c($sp)
80029498: 20 00 bd 27  	addiu	$sp, $sp, 0x20
8002949c: 08 00 e0 03  	jr	$ra
800294a0: 00 00 00 00  	nop
800294a4: c8 ff bd 27  	addiu	$sp, $sp, -0x38
800294a8: 34 00 bf af  	sw	$ra, 0x34($sp)
800294ac: 30 00 be af  	sw	$fp, 0x30($sp)
800294b0: 25 f0 a0 03  	move	$fp, $sp
800294b4: 14 00 c7 af  	sw	$7, 0x14($fp)
800294b8: 18 00 c6 af  	sw	$6, 0x18($fp)
800294bc: 25 08 a0 00  	move	$1, $5
800294c0: 18 00 c5 8f  	lw	$5, 0x18($fp)
800294c4: 1c 00 c1 af  	sw	$1, 0x1c($fp)
800294c8: 20 00 c4 af  	sw	$4, 0x20($fp)
800294cc: 24 00 c1 af  	sw	$1, 0x24($fp)
800294d0: 28 00 c5 af  	sw	$5, 0x28($fp)
800294d4: 2c 00 c7 af  	sw	$7, 0x2c($fp)
800294d8: d2 a9 00 0c  	jal	0x2a748 <.text+0xa748>
800294dc: 00 00 00 00  	nop
800294e0: 08 00 40 14  	bnez	$2, 0x80029504 <.text+0x9504>
800294e4: 00 00 00 00  	nop
800294e8: 3c a5 00 08  	j	0x294f0 <.text+0x94f0>
800294ec: 00 00 00 00  	nop
800294f0: 03 80 01 3c  	lui	$1, 0x8003
800294f4: 3d 14 24 24  	addiu	$4, $1, 0x143d
800294f8: a2 00 05 24  	addiu	$5, $zero, 0xa2
800294fc: 57 b5 00 0c  	jal	0x2d55c <.text+0xd55c>
80029500: 00 00 00 00  	nop
80029504: 14 00 c5 8f  	lw	$5, 0x14($fp)
80029508: 1c 00 c4 8f  	lw	$4, 0x1c($fp)
8002950c: f3 a9 00 0c  	jal	0x2a7cc <.text+0xa7cc>
80029510: 00 00 00 00  	nop
80029514: f6 ff 40 10  	beqz	$2, 0x800294f0 <.text+0x94f0>
80029518: 00 00 00 00  	nop
8002951c: 49 a5 00 08  	j	0x29524 <.text+0x9524>
80029520: 00 00 00 00  	nop
80029524: 25 e8 c0 03  	move	$sp, $fp
80029528: 30 00 be 8f  	lw	$fp, 0x30($sp)
8002952c: 34 00 bf 8f  	lw	$ra, 0x34($sp)
80029530: 38 00 bd 27  	addiu	$sp, $sp, 0x38
80029534: 08 00 e0 03  	jr	$ra
80029538: 00 00 00 00  	nop
8002953c: d8 ff bd 27  	addiu	$sp, $sp, -0x28
80029540: 24 00 bf af  	sw	$ra, 0x24($sp)
80029544: 20 00 be af  	sw	$fp, 0x20($sp)
80029548: 25 f0 a0 03  	move	$fp, $sp
8002954c: 10 00 c5 af  	sw	$5, 0x10($fp)
80029550: 14 00 c4 af  	sw	$4, 0x14($fp)
80029554: 18 00 c4 af  	sw	$4, 0x18($fp)
80029558: 1c 00 c5 af  	sw	$5, 0x1c($fp)
8002955c: 08 00 80 14  	bnez	$4, 0x80029580 <.text+0x9580>
80029560: 00 00 00 00  	nop
80029564: 5b a5 00 08  	j	0x2956c <.text+0x956c>
80029568: 00 00 00 00  	nop
8002956c: 03 80 01 3c  	lui	$1, 0x8003
80029570: f0 14 24 24  	addiu	$4, $1, 0x14f0
80029574: 84 00 05 24  	addiu	$5, $zero, 0x84
80029578: 57 b5 00 0c  	jal	0x2d55c <.text+0xd55c>
8002957c: 00 00 00 00  	nop
80029580: 14 00 c1 8f  	lw	$1, 0x14($fp)
80029584: 0c 00 20 10  	beqz	$1, 0x800295b8 <.text+0x95b8>
80029588: 00 00 00 00  	nop
8002958c: 65 a5 00 08  	j	0x29594 <.text+0x9594>
80029590: 00 00 00 00  	nop
80029594: 14 00 c1 8f  	lw	$1, 0x14($fp)
80029598: 10 00 c2 8f  	lw	$2, 0x10($fp)
8002959c: 1b 00 41 00  	divu	$zero, $2, $1
800295a0: f4 01 20 00  	teq	$1, $zero, 0x7
800295a4: 10 08 00 00  	mfhi	$1
800295a8: 07 00 20 10  	beqz	$1, 0x800295c8 <.text+0x95c8>
800295ac: 00 00 00 00  	nop
800295b0: 5b a5 00 08  	j	0x2956c <.text+0x956c>
800295b4: 00 00 00 00  	nop
800295b8: 03 80 01 3c  	lui	$1, 0x8003
800295bc: e0 14 24 24  	addiu	$4, $1, 0x14e0
800295c0: 1e b3 00 0c  	jal	0x2cc78 <.text+0xcc78>
800295c4: 00 00 00 00  	nop
800295c8: 25 e8 c0 03  	move	$sp, $fp
800295cc: 20 00 be 8f  	lw	$fp, 0x20($sp)
800295d0: 24 00 bf 8f  	lw	$ra, 0x24($sp)
800295d4: 28 00 bd 27  	addiu	$sp, $sp, 0x28
800295d8: 08 00 e0 03  	jr	$ra
800295dc: 00 00 00 00  	nop
800295e0: e0 ff bd 27  	addiu	$sp, $sp, -0x20
800295e4: 1c 00 bf af  	sw	$ra, 0x1c($sp)
800295e8: 18 00 be af  	sw	$fp, 0x18($sp)
800295ec: 25 f0 a0 03  	move	$fp, $sp
800295f0: 10 00 c4 af  	sw	$4, 0x10($fp)
800295f4: 14 00 c5 af  	sw	$5, 0x14($fp)
800295f8: 2b 08 a4 00  	sltu	$1, $5, $4
800295fc: 08 00 20 10  	beqz	$1, 0x80029620 <.text+0x9620>
80029600: 00 00 00 00  	nop
80029604: 83 a5 00 08  	j	0x2960c <.text+0x960c>
80029608: 00 00 00 00  	nop
8002960c: 03 80 01 3c  	lui	$1, 0x8003
80029610: 74 15 24 24  	addiu	$4, $1, 0x1574
80029614: 64 00 05 24  	addiu	$5, $zero, 0x64
80029618: 57 b5 00 0c  	jal	0x2d55c <.text+0xd55c>
8002961c: 00 00 00 00  	nop
80029620: 25 e8 c0 03  	move	$sp, $fp
80029624: 18 00 be 8f  	lw	$fp, 0x18($sp)
80029628: 1c 00 bf 8f  	lw	$ra, 0x1c($sp)
8002962c: 20 00 bd 27  	addiu	$sp, $sp, 0x20
80029630: 08 00 e0 03  	jr	$ra
80029634: 00 00 00 00  	nop
80029638: d0 ff bd 27  	addiu	$sp, $sp, -0x30
8002963c: 2c 00 bf af  	sw	$ra, 0x2c($sp)
80029640: 28 00 be af  	sw	$fp, 0x28($sp)
80029644: 25 f0 a0 03  	move	$fp, $sp
80029648: 14 00 c5 af  	sw	$5, 0x14($fp)
8002964c: 18 00 c4 af  	sw	$4, 0x18($fp)
80029650: 20 00 c4 af  	sw	$4, 0x20($fp)
80029654: 24 00 c5 af  	sw	$5, 0x24($fp)
80029658: 99 b2 00 0c  	jal	0x2ca64 <.text+0xca64>
8002965c: 00 00 00 00  	nop
80029660: 07 00 40 14  	bnez	$2, 0x80029680 <.text+0x9680>
80029664: 00 00 00 00  	nop
80029668: 9c a5 00 08  	j	0x29670 <.text+0x9670>
8002966c: 00 00 00 00  	nop
80029670: 00 00 01 24  	addiu	$1, $zero, 0x0
80029674: 1f 00 c0 a3  	sb	$zero, 0x1f($fp)
80029678: a9 a5 00 08  	j	0x296a4 <.text+0x96a4>
8002967c: 00 00 00 00  	nop
80029680: 14 00 c1 8f  	lw	$1, 0x14($fp)
80029684: 18 00 c2 8f  	lw	$2, 0x18($fp)
80029688: 08 00 44 24  	addiu	$4, $2, 0x8
8002968c: 08 00 25 24  	addiu	$5, $1, 0x8
80029690: 99 b2 00 0c  	jal	0x2ca64 <.text+0xca64>
80029694: 00 00 00 00  	nop
80029698: 1f 00 c2 a3  	sb	$2, 0x1f($fp)
8002969c: a9 a5 00 08  	j	0x296a4 <.text+0x96a4>
800296a0: 00 00 00 00  	nop
800296a4: 1f 00 c1 93  	lbu	$1, 0x1f($fp)
800296a8: 01 00 22 30  	andi	$2, $1, 0x1
800296ac: 25 e8 c0 03  	move	$sp, $fp
800296b0: 28 00 be 8f  	lw	$fp, 0x28($sp)
800296b4: 2c 00 bf 8f  	lw	$ra, 0x2c($sp)
800296b8: 30 00 bd 27  	addiu	$sp, $sp, 0x30
800296bc: 08 00 e0 03  	jr	$ra
800296c0: 00 00 00 00  	nop
800296c4: e0 ff bd 27  	addiu	$sp, $sp, -0x20
800296c8: 1c 00 bf af  	sw	$ra, 0x1c($sp)
800296cc: 18 00 be af  	sw	$fp, 0x18($sp)
800296d0: 25 f0 a0 03  	move	$fp, $sp
800296d4: 10 00 c4 af  	sw	$4, 0x10($fp)
800296d8: 14 00 c5 af  	sw	$5, 0x14($fp)
800296dc: 38 9e 00 0c  	jal	0x278e0 <.text+0x78e0>
800296e0: 00 00 00 00  	nop
800296e4: 25 e8 c0 03  	move	$sp, $fp
800296e8: 18 00 be 8f  	lw	$fp, 0x18($sp)
800296ec: 1c 00 bf 8f  	lw	$ra, 0x1c($sp)
800296f0: 20 00 bd 27  	addiu	$sp, $sp, 0x20
800296f4: 08 00 e0 03  	jr	$ra
800296f8: 00 00 00 00  	nop
800296fc: f0 ff bd 27  	addiu	$sp, $sp, -0x10
80029700: 0c 00 bf af  	sw	$ra, 0xc($sp)
80029704: 08 00 be af  	sw	$fp, 0x8($sp)
80029708: 25 f0 a0 03  	move	$fp, $sp
8002970c: 25 10 80 00  	move	$2, $4
80029710: 00 00 c2 af  	sw	$2, 0x0($fp)
80029714: 04 00 c5 af  	sw	$5, 0x4($fp)
80029718: 25 e8 c0 03  	move	$sp, $fp
8002971c: 08 00 be 8f  	lw	$fp, 0x8($sp)
80029720: 0c 00 bf 8f  	lw	$ra, 0xc($sp)
80029724: 10 00 bd 27  	addiu	$sp, $sp, 0x10
80029728: 08 00 e0 03  	jr	$ra
8002972c: 00 00 00 00  	nop
80029730: d0 ff bd 27  	addiu	$sp, $sp, -0x30
80029734: 2c 00 bf af  	sw	$ra, 0x2c($sp)
80029738: 28 00 be af  	sw	$fp, 0x28($sp)
8002973c: 25 f0 a0 03  	move	$fp, $sp
80029740: 25 38 c0 00  	move	$7, $6
80029744: 10 00 c5 af  	sw	$5, 0x10($fp)
80029748: 25 28 80 00  	move	$5, $4
8002974c: 10 00 c4 8f  	lw	$4, 0x10($fp)
80029750: 14 00 c5 af  	sw	$5, 0x14($fp)
80029754: 18 00 c4 af  	sw	$4, 0x18($fp)
80029758: 1c 00 c5 af  	sw	$5, 0x1c($fp)
8002975c: 80 00 06 24  	addiu	$6, $zero, 0x80
80029760: 20 00 c6 af  	sw	$6, 0x20($fp)
80029764: 24 00 c4 af  	sw	$4, 0x24($fp)
80029768: 7b b7 00 0c  	jal	0x2ddec <.text+0xddec>
8002976c: 00 00 00 00  	nop
80029770: 25 e8 c0 03  	move	$sp, $fp
80029774: 28 00 be 8f  	lw	$fp, 0x28($sp)
80029778: 2c 00 bf 8f  	lw	$ra, 0x2c($sp)
8002977c: 30 00 bd 27  	addiu	$sp, $sp, 0x30
80029780: 08 00 e0 03  	jr	$ra
80029784: 00 00 00 00  	nop
80029788: e0 ff bd 27  	addiu	$sp, $sp, -0x20
8002978c: 1c 00 bf af  	sw	$ra, 0x1c($sp)
80029790: 18 00 be af  	sw	$fp, 0x18($sp)
80029794: 25 f0 a0 03  	move	$fp, $sp
80029798: 10 00 c4 af  	sw	$4, 0x10($fp)
8002979c: 14 00 c5 af  	sw	$5, 0x14($fp)
800297a0: 54 96 00 0c  	jal	0x25950 <.text+0x5950>
800297a4: 00 00 00 00  	nop
800297a8: 25 e8 c0 03  	move	$sp, $fp
800297ac: 18 00 be 8f  	lw	$fp, 0x18($sp)
800297b0: 1c 00 bf 8f  	lw	$ra, 0x1c($sp)
800297b4: 20 00 bd 27  	addiu	$sp, $sp, 0x20
800297b8: 08 00 e0 03  	jr	$ra
800297bc: 00 00 00 00  	nop
800297c0: c0 ff bd 27  	addiu	$sp, $sp, -0x40
800297c4: 3c 00 bf af  	sw	$ra, 0x3c($sp)
800297c8: 38 00 be af  	sw	$fp, 0x38($sp)
800297cc: 25 f0 a0 03  	move	$fp, $sp
800297d0: 14 00 c5 af  	sw	$5, 0x14($fp)
800297d4: 18 00 c4 af  	sw	$4, 0x18($fp)
800297d8: 28 00 c4 af  	sw	$4, 0x28($fp)
800297dc: 2c 00 c5 af  	sw	$5, 0x2c($fp)
800297e0: ef b1 00 0c  	jal	0x2c7bc <.text+0xc7bc>
800297e4: 00 00 00 00  	nop
800297e8: 1c 00 c2 af  	sw	$2, 0x1c($fp)
800297ec: 10 00 01 24  	addiu	$1, $zero, 0x10
800297f0: 20 00 c1 af  	sw	$1, 0x20($fp)
800297f4: 00 00 01 24  	addiu	$1, $zero, 0x0
800297f8: 0a 00 00 14  	bnez	$zero, 0x80029824 <.text+0x9824>
800297fc: 00 00 00 00  	nop
80029800: 02 a6 00 08  	j	0x29808 <.text+0x9808>
80029804: 00 00 00 00  	nop
80029808: 1c 00 c1 8f  	lw	$1, 0x1c($fp)
8002980c: 20 00 c2 8f  	lw	$2, 0x20($fp)
80029810: 2b 08 22 00  	sltu	$1, $1, $2
80029814: 0e 00 20 14  	bnez	$1, 0x80029850 <.text+0x9850>
80029818: 00 00 00 00  	nop
8002981c: 0d a6 00 08  	j	0x29834 <.text+0x9834>
80029820: 00 00 00 00  	nop
80029824: 03 80 01 3c  	lui	$1, 0x8003
80029828: 50 16 24 24  	addiu	$4, $1, 0x1650
8002982c: de b2 00 0c  	jal	0x2cb78 <.text+0xcb78>
80029830: 00 00 00 00  	nop
80029834: 14 00 c5 8f  	lw	$5, 0x14($fp)
80029838: 18 00 c4 8f  	lw	$4, 0x18($fp)
8002983c: 24 a6 00 0c  	jal	0x29890 <.text+0x9890>
80029840: 00 00 00 00  	nop
80029844: 24 00 c2 af  	sw	$2, 0x24($fp)
80029848: 1d a6 00 08  	j	0x29874 <.text+0x9874>
8002984c: 00 00 00 00  	nop
80029850: 14 00 c5 8f  	lw	$5, 0x14($fp)
80029854: 18 00 c4 8f  	lw	$4, 0x18($fp)
80029858: 30 00 c4 af  	sw	$4, 0x30($fp)
8002985c: 34 00 c5 af  	sw	$5, 0x34($fp)
80029860: 9f a7 00 0c  	jal	0x29e7c <.text+0x9e7c>
80029864: 00 00 00 00  	nop
80029868: 24 00 c2 af  	sw	$2, 0x24($fp)
8002986c: 1d a6 00 08  	j	0x29874 <.text+0x9874>
80029870: 00 00 00 00  	nop
80029874: 24 00 c2 8f  	lw	$2, 0x24($fp)
80029878: 25 e8 c0 03  	move	$sp, $fp
8002987c: 38 00 be 8f  	lw	$fp, 0x38($sp)
80029880: 3c 00 bf 8f  	lw	$ra, 0x3c($sp)
80029884: 40 00 bd 27  	addiu	$sp, $sp, 0x40
80029888: 08 00 e0 03  	jr	$ra
8002988c: 00 00 00 00  	nop
80029890: b8 fe bd 27  	addiu	$sp, $sp, -0x148
80029894: 44 01 bf af  	sw	$ra, 0x144($sp)
80029898: 40 01 be af  	sw	$fp, 0x140($sp)
8002989c: 25 f0 a0 03  	move	$fp, $sp
800298a0: 25 30 a0 00  	move	$6, $5
800298a4: 3c 00 c6 af  	sw	$6, 0x3c($fp)
800298a8: 25 28 80 00  	move	$5, $4
800298ac: 40 00 c5 af  	sw	$5, 0x40($fp)
800298b0: e8 00 c5 af  	sw	$5, 0xe8($fp)
800298b4: ec 00 c6 af  	sw	$6, 0xec($fp)
800298b8: 38 01 c5 af  	sw	$5, 0x138($fp)
800298bc: 3c 01 c6 af  	sw	$6, 0x13c($fp)
800298c0: 60 00 c4 27  	addiu	$4, $fp, 0x60
800298c4: 64 a4 00 0c  	jal	0x29190 <.text+0x9190>
800298c8: 00 00 00 00  	nop
800298cc: 60 00 c2 8f  	lw	$2, 0x60($fp)
800298d0: 44 00 c2 af  	sw	$2, 0x44($fp)
800298d4: 64 00 c1 8f  	lw	$1, 0x64($fp)
800298d8: 48 00 c1 af  	sw	$1, 0x48($fp)
800298dc: f0 00 c2 af  	sw	$2, 0xf0($fp)
800298e0: f4 00 c1 af  	sw	$1, 0xf4($fp)
800298e4: 68 00 c4 8f  	lw	$4, 0x68($fp)
800298e8: 4c 00 c4 af  	sw	$4, 0x4c($fp)
800298ec: 6c 00 c5 8f  	lw	$5, 0x6c($fp)
800298f0: 50 00 c5 af  	sw	$5, 0x50($fp)
800298f4: f8 00 c4 af  	sw	$4, 0xf8($fp)
800298f8: fc 00 c5 af  	sw	$5, 0xfc($fp)
800298fc: 70 00 c2 8f  	lw	$2, 0x70($fp)
80029900: 54 00 c2 af  	sw	$2, 0x54($fp)
80029904: 74 00 c1 8f  	lw	$1, 0x74($fp)
80029908: 58 00 c1 af  	sw	$1, 0x58($fp)
8002990c: 00 01 c2 af  	sw	$2, 0x100($fp)
80029910: 04 01 c1 af  	sw	$1, 0x104($fp)
80029914: dd a1 00 0c  	jal	0x28774 <.text+0x8774>
80029918: 00 00 00 00  	nop
8002991c: 09 00 40 14  	bnez	$2, 0x80029944 <.text+0x9944>
80029920: 00 00 00 00  	nop
80029924: 4b a6 00 08  	j	0x2992c <.text+0x992c>
80029928: 00 00 00 00  	nop
8002992c: 48 00 c1 8f  	lw	$1, 0x48($fp)
80029930: 05 00 21 2c  	sltiu	$1, $1, 0x5
80029934: 07 00 20 14  	bnez	$1, 0x80029954 <.text+0x9954>
80029938: 00 00 00 00  	nop
8002993c: 51 a6 00 08  	j	0x29944 <.text+0x9944>
80029940: 00 00 00 00  	nop
80029944: 01 00 01 24  	addiu	$1, $zero, 0x1
80029948: 7b 00 c1 a3  	sb	$1, 0x7b($fp)
8002994c: 5b a6 00 08  	j	0x2996c <.text+0x996c>
80029950: 00 00 00 00  	nop
80029954: 58 00 c2 8f  	lw	$2, 0x58($fp)
80029958: 04 00 01 24  	addiu	$1, $zero, 0x4
8002995c: 2b 08 22 00  	sltu	$1, $1, $2
80029960: 7b 00 c1 a3  	sb	$1, 0x7b($fp)
80029964: 5b a6 00 08  	j	0x2996c <.text+0x996c>
80029968: 00 00 00 00  	nop
8002996c: 7b 00 c1 93  	lbu	$1, 0x7b($fp)
80029970: 01 00 21 30  	andi	$1, $1, 0x1
80029974: 0b 01 c1 a3  	sb	$1, 0x10b($fp)
80029978: 0b 01 c1 93  	lbu	$1, 0x10b($fp)
8002997c: 01 00 21 30  	andi	$1, $1, 0x1
80029980: 15 00 20 14  	bnez	$1, 0x800299d8 <.text+0x99d8>
80029984: 00 00 00 00  	nop
80029988: 64 a6 00 08  	j	0x29990 <.text+0x9990>
8002998c: 00 00 00 00  	nop
80029990: 48 00 c5 8f  	lw	$5, 0x48($fp)
80029994: 44 00 c4 8f  	lw	$4, 0x44($fp)
80029998: 9f a7 00 0c  	jal	0x29e7c <.text+0x9e7c>
8002999c: 00 00 00 00  	nop
800299a0: 54 00 c4 8f  	lw	$4, 0x54($fp)
800299a4: 58 00 c5 8f  	lw	$5, 0x58($fp)
800299a8: 34 00 c2 af  	sw	$2, 0x34($fp)
800299ac: 9f a7 00 0c  	jal	0x29e7c <.text+0x9e7c>
800299b0: 00 00 00 00  	nop
800299b4: 25 08 40 00  	move	$1, $2
800299b8: 34 00 c2 8f  	lw	$2, 0x34($fp)
800299bc: 21 08 41 00  	addu	$1, $2, $1
800299c0: 38 00 c1 af  	sw	$1, 0x38($fp)
800299c4: 2b 08 22 00  	sltu	$1, $1, $2
800299c8: 25 00 20 14  	bnez	$1, 0x80029a60 <.text+0x9a60>
800299cc: 00 00 00 00  	nop
800299d0: 7f a6 00 08  	j	0x299fc <.text+0x99fc>
800299d4: 00 00 00 00  	nop
800299d8: 3c 00 c5 8f  	lw	$5, 0x3c($fp)
800299dc: 40 00 c4 8f  	lw	$4, 0x40($fp)
800299e0: 30 01 c4 af  	sw	$4, 0x130($fp)
800299e4: 34 01 c5 af  	sw	$5, 0x134($fp)
800299e8: 9f a7 00 0c  	jal	0x29e7c <.text+0x9e7c>
800299ec: 00 00 00 00  	nop
800299f0: 5c 00 c2 af  	sw	$2, 0x5c($fp)
800299f4: 23 a7 00 08  	j	0x29c8c <.text+0x9c8c>
800299f8: 00 00 00 00  	nop
800299fc: 50 00 c6 8f  	lw	$6, 0x50($fp)
80029a00: 4c 00 c5 8f  	lw	$5, 0x4c($fp)
80029a04: 38 00 c1 8f  	lw	$1, 0x38($fp)
80029a08: 7c 00 c1 af  	sw	$1, 0x7c($fp)
80029a0c: 03 80 01 3c  	lui	$1, 0x8003
80029a10: 70 16 21 24  	addiu	$1, $1, 0x1670
80029a14: 25 10 a0 03  	move	$2, $sp
80029a18: 10 00 41 ac  	sw	$1, 0x10($2)
80029a1c: 8c 00 c4 27  	addiu	$4, $fp, 0x8c
80029a20: 30 00 c4 af  	sw	$4, 0x30($fp)
80029a24: c0 00 07 24  	addiu	$7, $zero, 0xc0
80029a28: 4d a2 00 0c  	jal	0x28934 <.text+0x8934>
80029a2c: 00 00 00 00  	nop
80029a30: 30 00 c5 8f  	lw	$5, 0x30($fp)
80029a34: 80 00 c4 27  	addiu	$4, $fp, 0x80
80029a38: f3 94 00 0c  	jal	0x253cc <.text+0x53cc>
80029a3c: 00 00 00 00  	nop
80029a40: 88 00 c1 8f  	lw	$1, 0x88($fp)
80029a44: a0 00 c1 af  	sw	$1, 0xa0($fp)
80029a48: 84 00 c1 8f  	lw	$1, 0x84($fp)
80029a4c: 9c 00 c1 af  	sw	$1, 0x9c($fp)
80029a50: 80 00 c1 8f  	lw	$1, 0x80($fp)
80029a54: 98 00 c1 af  	sw	$1, 0x98($fp)
80029a58: 9c a6 00 08  	j	0x29a70 <.text+0x9a70>
80029a5c: 00 00 00 00  	nop
80029a60: 03 80 01 3c  	lui	$1, 0x8003
80029a64: 60 16 24 24  	addiu	$4, $1, 0x1660
80029a68: be b2 00 0c  	jal	0x2caf8 <.text+0xcaf8>
80029a6c: 00 00 00 00  	nop
80029a70: 98 00 c4 27  	addiu	$4, $fp, 0x98
80029a74: 8d 96 00 0c  	jal	0x25a34 <.text+0x5a34>
80029a78: 00 00 00 00  	nop
80029a7c: a4 00 c2 af  	sw	$2, 0xa4($fp)
80029a80: a8 00 c3 af  	sw	$3, 0xa8($fp)
80029a84: a4 00 c1 8f  	lw	$1, 0xa4($fp)
80029a88: 07 00 20 14  	bnez	$1, 0x80029aa8 <.text+0x9aa8>
80029a8c: 00 00 00 00  	nop
80029a90: a6 a6 00 08  	j	0x29a98 <.text+0x9a98>
80029a94: 00 00 00 00  	nop
80029a98: 7c 00 c1 8f  	lw	$1, 0x7c($fp)
80029a9c: 5c 00 c1 af  	sw	$1, 0x5c($fp)
80029aa0: 23 a7 00 08  	j	0x29c8c <.text+0x9c8c>
80029aa4: 00 00 00 00  	nop
80029aa8: a4 00 c5 8f  	lw	$5, 0xa4($fp)
80029aac: a8 00 c6 8f  	lw	$6, 0xa8($fp)
80029ab0: 0c 01 c5 af  	sw	$5, 0x10c($fp)
80029ab4: 10 01 c6 af  	sw	$6, 0x110($fp)
80029ab8: ac 00 c0 af  	sw	$zero, 0xac($fp)
80029abc: 03 80 01 3c  	lui	$1, 0x8003
80029ac0: 80 16 27 24  	addiu	$7, $1, 0x1680
80029ac4: b0 00 c4 27  	addiu	$4, $fp, 0xb0
80029ac8: 9c a2 00 0c  	jal	0x28a70 <.text+0x8a70>
80029acc: 00 00 00 00  	nop
80029ad0: b0 00 c4 8f  	lw	$4, 0xb0($fp)
80029ad4: b4 00 c5 8f  	lw	$5, 0xb4($fp)
80029ad8: 14 01 c4 af  	sw	$4, 0x114($fp)
80029adc: 18 01 c5 af  	sw	$5, 0x118($fp)
80029ae0: b8 00 c2 8f  	lw	$2, 0xb8($fp)
80029ae4: 28 00 c2 af  	sw	$2, 0x28($fp)
80029ae8: bc 00 c1 8f  	lw	$1, 0xbc($fp)
80029aec: 2c 00 c1 af  	sw	$1, 0x2c($fp)
80029af0: 1c 01 c2 af  	sw	$2, 0x11c($fp)
80029af4: 20 01 c1 af  	sw	$1, 0x120($fp)
80029af8: 5e 95 00 0c  	jal	0x25578 <.text+0x5578>
80029afc: 00 00 00 00  	nop
80029b00: c0 00 c2 af  	sw	$2, 0xc0($fp)
80029b04: c4 00 c3 af  	sw	$3, 0xc4($fp)
80029b08: c4 a6 00 08  	j	0x29b10 <.text+0x9b10>
80029b0c: 00 00 00 00  	nop
80029b10: c0 00 c4 27  	addiu	$4, $fp, 0xc0
80029b14: 03 97 00 0c  	jal	0x25c0c <.text+0x5c0c>
80029b18: 00 00 00 00  	nop
80029b1c: c8 00 c2 af  	sw	$2, 0xc8($fp)
80029b20: c8 00 c1 8f  	lw	$1, 0xc8($fp)
80029b24: 0f 00 20 14  	bnez	$1, 0x80029b64 <.text+0x9b64>
80029b28: 00 00 00 00  	nop
80029b2c: cd a6 00 08  	j	0x29b34 <.text+0x9b34>
80029b30: 00 00 00 00  	nop
80029b34: ac 00 c4 8f  	lw	$4, 0xac($fp)
80029b38: 63 a7 00 0c  	jal	0x29d8c <.text+0x9d8c>
80029b3c: 00 00 00 00  	nop
80029b40: 25 08 40 00  	move	$1, $2
80029b44: 7c 00 c2 8f  	lw	$2, 0x7c($fp)
80029b48: 21 08 41 00  	addu	$1, $2, $1
80029b4c: 24 00 c1 af  	sw	$1, 0x24($fp)
80029b50: 2b 08 22 00  	sltu	$1, $1, $2
80029b54: 15 00 20 14  	bnez	$1, 0x80029bac <.text+0x9bac>
80029b58: 00 00 00 00  	nop
80029b5c: e1 a6 00 08  	j	0x29b84 <.text+0x9b84>
80029b60: 00 00 00 00  	nop
80029b64: c8 00 c4 8f  	lw	$4, 0xc8($fp)
80029b68: 28 01 c4 af  	sw	$4, 0x128($fp)
80029b6c: 62 b6 00 0c  	jal	0x2d988 <.text+0xd988>
80029b70: 00 00 00 00  	nop
80029b74: cc 00 c2 af  	sw	$2, 0xcc($fp)
80029b78: d0 00 c3 af  	sw	$3, 0xd0($fp)
80029b7c: 32 a7 00 08  	j	0x29cc8 <.text+0x9cc8>
80029b80: 00 00 00 00  	nop
80029b84: 2c 00 c5 8f  	lw	$5, 0x2c($fp)
80029b88: 28 00 c4 8f  	lw	$4, 0x28($fp)
80029b8c: 24 00 c1 8f  	lw	$1, 0x24($fp)
80029b90: 7c 00 c1 af  	sw	$1, 0x7c($fp)
80029b94: dd a1 00 0c  	jal	0x28774 <.text+0x8774>
80029b98: 00 00 00 00  	nop
80029b9c: b4 ff 40 14  	bnez	$2, 0x80029a70 <.text+0x9a70>
80029ba0: 00 00 00 00  	nop
80029ba4: ef a6 00 08  	j	0x29bbc <.text+0x9bbc>
80029ba8: 00 00 00 00  	nop
80029bac: 03 80 01 3c  	lui	$1, 0x8003
80029bb0: 90 16 24 24  	addiu	$4, $1, 0x1690
80029bb4: be b2 00 0c  	jal	0x2caf8 <.text+0xcaf8>
80029bb8: 00 00 00 00  	nop
80029bbc: 2c 00 c5 8f  	lw	$5, 0x2c($fp)
80029bc0: 28 00 c4 8f  	lw	$4, 0x28($fp)
80029bc4: d8 00 c0 af  	sw	$zero, 0xd8($fp)
80029bc8: 50 95 00 0c  	jal	0x25540 <.text+0x5540>
80029bcc: 00 00 00 00  	nop
80029bd0: dc 00 c2 af  	sw	$2, 0xdc($fp)
80029bd4: e0 00 c3 af  	sw	$3, 0xe0($fp)
80029bd8: f8 a6 00 08  	j	0x29be0 <.text+0x9be0>
80029bdc: 00 00 00 00  	nop
80029be0: dc 00 c4 27  	addiu	$4, $fp, 0xdc
80029be4: b7 97 00 0c  	jal	0x25edc <.text+0x5edc>
80029be8: 00 00 00 00  	nop
80029bec: e4 00 c2 af  	sw	$2, 0xe4($fp)
80029bf0: e4 00 c1 8f  	lw	$1, 0xe4($fp)
80029bf4: 0f 00 20 14  	bnez	$1, 0x80029c34 <.text+0x9c34>
80029bf8: 00 00 00 00  	nop
80029bfc: 01 a7 00 08  	j	0x29c04 <.text+0x9c04>
80029c00: 00 00 00 00  	nop
80029c04: d8 00 c4 8f  	lw	$4, 0xd8($fp)
80029c08: 63 a7 00 0c  	jal	0x29d8c <.text+0x9d8c>
80029c0c: 00 00 00 00  	nop
80029c10: 25 08 40 00  	move	$1, $2
80029c14: 7c 00 c2 8f  	lw	$2, 0x7c($fp)
80029c18: 21 08 41 00  	addu	$1, $2, $1
80029c1c: 20 00 c1 af  	sw	$1, 0x20($fp)
80029c20: 2b 08 22 00  	sltu	$1, $1, $2
80029c24: 15 00 20 14  	bnez	$1, 0x80029c7c <.text+0x9c7c>
80029c28: 00 00 00 00  	nop
80029c2c: 1b a7 00 08  	j	0x29c6c <.text+0x9c6c>
80029c30: 00 00 00 00  	nop
80029c34: e4 00 c1 8f  	lw	$1, 0xe4($fp)
80029c38: 00 00 24 8c  	lw	$4, 0x0($1)
80029c3c: 24 01 c4 af  	sw	$4, 0x124($fp)
80029c40: 51 a7 00 0c  	jal	0x29d44 <.text+0x9d44>
80029c44: 00 00 00 00  	nop
80029c48: 25 08 40 00  	move	$1, $2
80029c4c: d8 00 c2 8f  	lw	$2, 0xd8($fp)
80029c50: 21 08 41 00  	addu	$1, $2, $1
80029c54: 1c 00 c1 af  	sw	$1, 0x1c($fp)
80029c58: 2b 08 22 00  	sltu	$1, $1, $2
80029c5c: 16 00 20 14  	bnez	$1, 0x80029cb8 <.text+0x9cb8>
80029c60: 00 00 00 00  	nop
80029c64: 2a a7 00 08  	j	0x29ca8 <.text+0x9ca8>
80029c68: 00 00 00 00  	nop
80029c6c: 20 00 c1 8f  	lw	$1, 0x20($fp)
80029c70: 7c 00 c1 af  	sw	$1, 0x7c($fp)
80029c74: a6 a6 00 08  	j	0x29a98 <.text+0x9a98>
80029c78: 00 00 00 00  	nop
80029c7c: 03 80 01 3c  	lui	$1, 0x8003
80029c80: a0 16 24 24  	addiu	$4, $1, 0x16a0
80029c84: be b2 00 0c  	jal	0x2caf8 <.text+0xcaf8>
80029c88: 00 00 00 00  	nop
80029c8c: 5c 00 c2 8f  	lw	$2, 0x5c($fp)
80029c90: 25 e8 c0 03  	move	$sp, $fp
80029c94: 40 01 be 8f  	lw	$fp, 0x140($sp)
80029c98: 44 01 bf 8f  	lw	$ra, 0x144($sp)
80029c9c: 48 01 bd 27  	addiu	$sp, $sp, 0x148
80029ca0: 08 00 e0 03  	jr	$ra
80029ca4: 00 00 00 00  	nop
80029ca8: 1c 00 c1 8f  	lw	$1, 0x1c($fp)
80029cac: d8 00 c1 af  	sw	$1, 0xd8($fp)
80029cb0: f8 a6 00 08  	j	0x29be0 <.text+0x9be0>
80029cb4: 00 00 00 00  	nop
80029cb8: 03 80 01 3c  	lui	$1, 0x8003
80029cbc: b0 16 24 24  	addiu	$4, $1, 0x16b0
80029cc0: be b2 00 0c  	jal	0x2caf8 <.text+0xcaf8>
80029cc4: 00 00 00 00  	nop
80029cc8: cc 00 c4 27  	addiu	$4, $fp, 0xcc
80029ccc: b7 97 00 0c  	jal	0x25edc <.text+0x5edc>
80029cd0: 00 00 00 00  	nop
80029cd4: d4 00 c2 af  	sw	$2, 0xd4($fp)
80029cd8: d4 00 c1 8f  	lw	$1, 0xd4($fp)
80029cdc: 8c ff 20 10  	beqz	$1, 0x80029b10 <.text+0x9b10>
80029ce0: 00 00 00 00  	nop
80029ce4: 3b a7 00 08  	j	0x29cec <.text+0x9cec>
80029ce8: 00 00 00 00  	nop
80029cec: d4 00 c1 8f  	lw	$1, 0xd4($fp)
80029cf0: 00 00 24 8c  	lw	$4, 0x0($1)
80029cf4: 2c 01 c4 af  	sw	$4, 0x12c($fp)
80029cf8: 51 a7 00 0c  	jal	0x29d44 <.text+0x9d44>
80029cfc: 00 00 00 00  	nop
80029d00: 25 08 40 00  	move	$1, $2
80029d04: ac 00 c2 8f  	lw	$2, 0xac($fp)
80029d08: 21 08 41 00  	addu	$1, $2, $1
80029d0c: 18 00 c1 af  	sw	$1, 0x18($fp)
80029d10: 2b 08 22 00  	sltu	$1, $1, $2
80029d14: 07 00 20 14  	bnez	$1, 0x80029d34 <.text+0x9d34>
80029d18: 00 00 00 00  	nop
80029d1c: 49 a7 00 08  	j	0x29d24 <.text+0x9d24>
80029d20: 00 00 00 00  	nop
80029d24: 18 00 c1 8f  	lw	$1, 0x18($fp)
80029d28: ac 00 c1 af  	sw	$1, 0xac($fp)
80029d2c: 32 a7 00 08  	j	0x29cc8 <.text+0x9cc8>
80029d30: 00 00 00 00  	nop
80029d34: 03 80 01 3c  	lui	$1, 0x8003
80029d38: c0 16 24 24  	addiu	$4, $1, 0x16c0
80029d3c: be b2 00 0c  	jal	0x2caf8 <.text+0xcaf8>
80029d40: 00 00 00 00  	nop
80029d44: f0 ff bd 27  	addiu	$sp, $sp, -0x10
80029d48: 0c 00 bf af  	sw	$ra, 0xc($sp)
80029d4c: 08 00 be af  	sw	$fp, 0x8($sp)
80029d50: 25 f0 a0 03  	move	$fp, $sp
80029d54: 04 00 c4 af  	sw	$4, 0x4($fp)
80029d58: 27 08 80 00  	not	$1, $4
80029d5c: c2 09 01 00  	srl	$1, $1, 0x7
80029d60: 82 11 04 00  	srl	$2, $4, 0x6
80029d64: 25 08 22 00  	or	$1, $1, $2
80029d68: 01 01 02 3c  	lui	$2, 0x101
80029d6c: 01 01 42 34  	ori	$2, $2, 0x101
80029d70: 24 10 22 00  	and	$2, $1, $2
80029d74: 25 e8 c0 03  	move	$sp, $fp
80029d78: 08 00 be 8f  	lw	$fp, 0x8($sp)
80029d7c: 0c 00 bf 8f  	lw	$ra, 0xc($sp)
80029d80: 10 00 bd 27  	addiu	$sp, $sp, 0x10
80029d84: 08 00 e0 03  	jr	$ra
80029d88: 00 00 00 00  	nop
80029d8c: c8 ff bd 27  	addiu	$sp, $sp, -0x38
80029d90: 34 00 bf af  	sw	$ra, 0x34($sp)
80029d94: 30 00 be af  	sw	$fp, 0x30($sp)
80029d98: 25 f0 a0 03  	move	$fp, $sp
80029d9c: 20 00 c4 af  	sw	$4, 0x20($fp)
80029da0: ff 00 01 3c  	lui	$1, 0xff
80029da4: ff 00 23 34  	ori	$3, $1, 0xff
80029da8: 24 08 83 00  	and	$1, $4, $3
80029dac: 02 12 04 00  	srl	$2, $4, 0x8
80029db0: 24 10 43 00  	and	$2, $2, $3
80029db4: 21 08 22 00  	addu	$1, $1, $2
80029db8: 1c 00 c1 af  	sw	$1, 0x1c($fp)
80029dbc: 00 00 01 24  	addiu	$1, $zero, 0x0
80029dc0: 13 00 00 14  	bnez	$zero, 0x80029e10 <.text+0x9e10>
80029dc4: 00 00 00 00  	nop
80029dc8: 74 a7 00 08  	j	0x29dd0 <.text+0x9dd0>
80029dcc: 00 00 00 00  	nop
80029dd0: 1c 00 c2 8f  	lw	$2, 0x1c($fp)
80029dd4: 24 00 c2 af  	sw	$2, 0x24($fp)
80029dd8: 28 00 c2 af  	sw	$2, 0x28($fp)
80029ddc: 01 00 01 3c  	lui	$1, 0x1
80029de0: 01 00 21 34  	ori	$1, $1, 0x1
80029de4: 2c 00 c1 af  	sw	$1, 0x2c($fp)
80029de8: 00 0c 02 00  	sll	$1, $2, 0x10
80029dec: 21 08 22 00  	addu	$1, $1, $2
80029df0: 14 00 c1 af  	sw	$1, 0x14($fp)
80029df4: 10 00 01 24  	addiu	$1, $zero, 0x10
80029df8: 18 00 c1 af  	sw	$1, 0x18($fp)
80029dfc: 00 00 01 24  	addiu	$1, $zero, 0x0
80029e00: 0d 00 00 14  	bnez	$zero, 0x80029e38 <.text+0x9e38>
80029e04: 00 00 00 00  	nop
80029e08: 88 a7 00 08  	j	0x29e20 <.text+0x9e20>
80029e0c: 00 00 00 00  	nop
80029e10: 03 80 01 3c  	lui	$1, 0x8003
80029e14: d0 16 24 24  	addiu	$4, $1, 0x16d0
80029e18: be b2 00 0c  	jal	0x2caf8 <.text+0xcaf8>
80029e1c: 00 00 00 00  	nop
80029e20: 18 00 c1 8f  	lw	$1, 0x18($fp)
80029e24: 20 00 21 2c  	sltiu	$1, $1, 0x20
80029e28: 07 00 20 14  	bnez	$1, 0x80029e48 <.text+0x9e48>
80029e2c: 00 00 00 00  	nop
80029e30: 9b a7 00 08  	j	0x29e6c <.text+0x9e6c>
80029e34: 00 00 00 00  	nop
80029e38: 03 80 01 3c  	lui	$1, 0x8003
80029e3c: e0 16 24 24  	addiu	$4, $1, 0x16e0
80029e40: de b2 00 0c  	jal	0x2cb78 <.text+0xcb78>
80029e44: 00 00 00 00  	nop
80029e48: 14 00 c1 8f  	lw	$1, 0x14($fp)
80029e4c: 18 00 c2 8f  	lw	$2, 0x18($fp)
80029e50: 06 10 41 00  	srlv	$2, $1, $2
80029e54: 25 e8 c0 03  	move	$sp, $fp
80029e58: 30 00 be 8f  	lw	$fp, 0x30($sp)
80029e5c: 34 00 bf 8f  	lw	$ra, 0x34($sp)
80029e60: 38 00 bd 27  	addiu	$sp, $sp, 0x38
80029e64: 08 00 e0 03  	jr	$ra
80029e68: 00 00 00 00  	nop
80029e6c: 03 80 01 3c  	lui	$1, 0x8003
80029e70: f0 16 24 24  	addiu	$4, $1, 0x16f0
80029e74: fe b2 00 0c  	jal	0x2cbf8 <.text+0xcbf8>
80029e78: 00 00 00 00  	nop
80029e7c: e0 ff bd 27  	addiu	$sp, $sp, -0x20
80029e80: 1c 00 bf af  	sw	$ra, 0x1c($sp)
80029e84: 18 00 be af  	sw	$fp, 0x18($sp)
80029e88: 25 f0 a0 03  	move	$fp, $sp
80029e8c: 10 00 c4 af  	sw	$4, 0x10($fp)
80029e90: 14 00 c5 af  	sw	$5, 0x14($fp)
80029e94: 3f a2 00 0c  	jal	0x288fc <.text+0x88fc>
80029e98: 00 00 00 00  	nop
80029e9c: 25 20 40 00  	move	$4, $2
80029ea0: 25 28 60 00  	move	$5, $3
80029ea4: 12 95 00 0c  	jal	0x25448 <.text+0x5448>
80029ea8: 00 00 00 00  	nop
80029eac: 25 20 40 00  	move	$4, $2
80029eb0: 25 28 60 00  	move	$5, $3
80029eb4: 46 b9 00 0c  	jal	0x2e518 <.text+0xe518>
80029eb8: 00 00 00 00  	nop
80029ebc: 25 e8 c0 03  	move	$sp, $fp
80029ec0: 18 00 be 8f  	lw	$fp, 0x18($sp)
80029ec4: 1c 00 bf 8f  	lw	$ra, 0x1c($sp)
80029ec8: 20 00 bd 27  	addiu	$sp, $sp, 0x20
80029ecc: 08 00 e0 03  	jr	$ra
80029ed0: 00 00 00 00  	nop
80029ed4: d8 ff bd 27  	addiu	$sp, $sp, -0x28
80029ed8: 24 00 bf af  	sw	$ra, 0x24($sp)
80029edc: 20 00 be af  	sw	$fp, 0x20($sp)
80029ee0: 25 f0 a0 03  	move	$fp, $sp
80029ee4: 14 00 c4 af  	sw	$4, 0x14($fp)
80029ee8: 18 00 c5 af  	sw	$5, 0x18($fp)
80029eec: 00 00 a1 8c  	lw	$1, 0x0($5)
80029ef0: 00 00 24 90  	lbu	$4, 0x0($1)
80029ef4: 1f 00 c4 a3  	sb	$4, 0x1f($fp)
80029ef8: 50 b8 00 0c  	jal	0x2e140 <.text+0xe140>
80029efc: 00 00 00 00  	nop
80029f00: 01 00 42 38  	xori	$2, $2, 0x1
80029f04: 25 e8 c0 03  	move	$sp, $fp
80029f08: 20 00 be 8f  	lw	$fp, 0x20($sp)
80029f0c: 24 00 bf 8f  	lw	$ra, 0x24($sp)
80029f10: 28 00 bd 27  	addiu	$sp, $sp, 0x28
80029f14: 08 00 e0 03  	jr	$ra
80029f18: 00 00 00 00  	nop
80029f1c: d8 ff bd 27  	addiu	$sp, $sp, -0x28
80029f20: 24 00 bf af  	sw	$ra, 0x24($sp)
80029f24: 20 00 be af  	sw	$fp, 0x20($sp)
80029f28: 25 f0 a0 03  	move	$fp, $sp
80029f2c: 18 00 c4 af  	sw	$4, 0x18($fp)
80029f30: 1c 00 c5 af  	sw	$5, 0x1c($fp)
80029f34: 10 00 c4 af  	sw	$4, 0x10($fp)
80029f38: 14 00 c5 af  	sw	$5, 0x14($fp)
80029f3c: 10 00 c4 8f  	lw	$4, 0x10($fp)
80029f40: 14 00 c5 8f  	lw	$5, 0x14($fp)
80029f44: d3 a7 00 0c  	jal	0x29f4c <.text+0x9f4c>
80029f48: 00 00 00 00  	nop
80029f4c: 80 ff bd 27  	addiu	$sp, $sp, -0x80
80029f50: 7c 00 bf af  	sw	$ra, 0x7c($sp)
80029f54: 78 00 be af  	sw	$fp, 0x78($sp)
80029f58: 25 f0 a0 03  	move	$fp, $sp
80029f5c: 1c 00 c6 af  	sw	$6, 0x1c($fp)
80029f60: 20 00 c4 af  	sw	$4, 0x20($fp)
80029f64: 24 00 c5 af  	sw	$5, 0x24($fp)
80029f68: 20 00 c2 27  	addiu	$2, $fp, 0x20
80029f6c: 64 00 c2 af  	sw	$2, 0x64($fp)
80029f70: 70 00 c2 af  	sw	$2, 0x70($fp)
80029f74: 02 80 01 3c  	lui	$1, 0x8002
80029f78: 74 77 21 24  	addiu	$1, $1, 0x7774
80029f7c: 74 00 c1 af  	sw	$1, 0x74($fp)
80029f80: 68 00 c2 af  	sw	$2, 0x68($fp)
80029f84: 6c 00 c1 af  	sw	$1, 0x6c($fp)
80029f88: 68 00 c4 8f  	lw	$4, 0x68($fp)
80029f8c: 6c 00 c3 8f  	lw	$3, 0x6c($fp)
80029f90: 24 00 c2 27  	addiu	$2, $fp, 0x24
80029f94: 50 00 c2 af  	sw	$2, 0x50($fp)
80029f98: 5c 00 c2 af  	sw	$2, 0x5c($fp)
80029f9c: 60 00 c1 af  	sw	$1, 0x60($fp)
80029fa0: 54 00 c2 af  	sw	$2, 0x54($fp)
80029fa4: 58 00 c1 af  	sw	$1, 0x58($fp)
80029fa8: 54 00 c2 8f  	lw	$2, 0x54($fp)
80029fac: 58 00 c1 8f  	lw	$1, 0x58($fp)
80029fb0: 40 00 c4 af  	sw	$4, 0x40($fp)
80029fb4: 44 00 c3 af  	sw	$3, 0x44($fp)
80029fb8: 48 00 c2 af  	sw	$2, 0x48($fp)
80029fbc: 4c 00 c1 af  	sw	$1, 0x4c($fp)
80029fc0: 25 08 a0 03  	move	$1, $sp
80029fc4: 02 00 06 24  	addiu	$6, $zero, 0x2
80029fc8: 10 00 26 ac  	sw	$6, 0x10($1)
80029fcc: 03 80 01 3c  	lui	$1, 0x8003
80029fd0: 34 17 25 24  	addiu	$5, $1, 0x1734
80029fd4: 28 00 c4 27  	addiu	$4, $fp, 0x28
80029fd8: 18 00 c4 af  	sw	$4, 0x18($fp)
80029fdc: 40 00 c7 27  	addiu	$7, $fp, 0x40
80029fe0: d0 aa 00 0c  	jal	0x2ab40 <.text+0xab40>
80029fe4: 00 00 00 00  	nop
80029fe8: 18 00 c4 8f  	lw	$4, 0x18($fp)
80029fec: 1c 00 c5 8f  	lw	$5, 0x1c($fp)
80029ff0: f6 b4 00 0c  	jal	0x2d3d8 <.text+0xd3d8>
80029ff4: 00 00 00 00  	nop
80029ff8: d8 ff bd 27  	addiu	$sp, $sp, -0x28
80029ffc: 24 00 bf af  	sw	$ra, 0x24($sp)
8002a000: 20 00 be af  	sw	$fp, 0x20($sp)
8002a004: 25 f0 a0 03  	move	$fp, $sp
8002a008: 18 00 c4 af  	sw	$4, 0x18($fp)
8002a00c: 1c 00 c5 af  	sw	$5, 0x1c($fp)
8002a010: 10 00 c4 af  	sw	$4, 0x10($fp)
8002a014: 14 00 c5 af  	sw	$5, 0x14($fp)
8002a018: 10 00 c4 8f  	lw	$4, 0x10($fp)
8002a01c: 14 00 c5 8f  	lw	$5, 0x14($fp)
8002a020: 0a a8 00 0c  	jal	0x2a028 <.text+0xa028>
8002a024: 00 00 00 00  	nop
8002a028: 80 ff bd 27  	addiu	$sp, $sp, -0x80
8002a02c: 7c 00 bf af  	sw	$ra, 0x7c($sp)
8002a030: 78 00 be af  	sw	$fp, 0x78($sp)
8002a034: 25 f0 a0 03  	move	$fp, $sp
8002a038: 1c 00 c6 af  	sw	$6, 0x1c($fp)
8002a03c: 20 00 c4 af  	sw	$4, 0x20($fp)
8002a040: 24 00 c5 af  	sw	$5, 0x24($fp)
8002a044: 20 00 c2 27  	addiu	$2, $fp, 0x20
8002a048: 64 00 c2 af  	sw	$2, 0x64($fp)
8002a04c: 70 00 c2 af  	sw	$2, 0x70($fp)
8002a050: 02 80 01 3c  	lui	$1, 0x8002
8002a054: 74 77 21 24  	addiu	$1, $1, 0x7774
8002a058: 74 00 c1 af  	sw	$1, 0x74($fp)
8002a05c: 68 00 c2 af  	sw	$2, 0x68($fp)
8002a060: 6c 00 c1 af  	sw	$1, 0x6c($fp)
8002a064: 68 00 c4 8f  	lw	$4, 0x68($fp)
8002a068: 6c 00 c3 8f  	lw	$3, 0x6c($fp)
8002a06c: 24 00 c2 27  	addiu	$2, $fp, 0x24
8002a070: 50 00 c2 af  	sw	$2, 0x50($fp)
8002a074: 5c 00 c2 af  	sw	$2, 0x5c($fp)
8002a078: 60 00 c1 af  	sw	$1, 0x60($fp)
8002a07c: 54 00 c2 af  	sw	$2, 0x54($fp)
8002a080: 58 00 c1 af  	sw	$1, 0x58($fp)
8002a084: 54 00 c2 8f  	lw	$2, 0x54($fp)
8002a088: 58 00 c1 8f  	lw	$1, 0x58($fp)
8002a08c: 40 00 c4 af  	sw	$4, 0x40($fp)
8002a090: 44 00 c3 af  	sw	$3, 0x44($fp)
8002a094: 48 00 c2 af  	sw	$2, 0x48($fp)
8002a098: 4c 00 c1 af  	sw	$1, 0x4c($fp)
8002a09c: 25 08 a0 03  	move	$1, $sp
8002a0a0: 02 00 06 24  	addiu	$6, $zero, 0x2
8002a0a4: 10 00 26 ac  	sw	$6, 0x10($1)
8002a0a8: 03 80 01 3c  	lui	$1, 0x8003
8002a0ac: 54 17 25 24  	addiu	$5, $1, 0x1754
8002a0b0: 28 00 c4 27  	addiu	$4, $fp, 0x28
8002a0b4: 18 00 c4 af  	sw	$4, 0x18($fp)
8002a0b8: 40 00 c7 27  	addiu	$7, $fp, 0x40
8002a0bc: d0 aa 00 0c  	jal	0x2ab40 <.text+0xab40>
8002a0c0: 00 00 00 00  	nop
8002a0c4: 18 00 c4 8f  	lw	$4, 0x18($fp)
8002a0c8: 1c 00 c5 8f  	lw	$5, 0x1c($fp)
8002a0cc: f6 b4 00 0c  	jal	0x2d3d8 <.text+0xd3d8>
8002a0d0: 00 00 00 00  	nop
8002a0d4: d8 ff bd 27  	addiu	$sp, $sp, -0x28
8002a0d8: 24 00 bf af  	sw	$ra, 0x24($sp)
8002a0dc: 20 00 be af  	sw	$fp, 0x20($sp)
8002a0e0: 25 f0 a0 03  	move	$fp, $sp
8002a0e4: 18 00 c4 af  	sw	$4, 0x18($fp)
8002a0e8: 1c 00 c5 af  	sw	$5, 0x1c($fp)
8002a0ec: 10 00 c4 af  	sw	$4, 0x10($fp)
8002a0f0: 14 00 c5 af  	sw	$5, 0x14($fp)
8002a0f4: 10 00 c4 8f  	lw	$4, 0x10($fp)
8002a0f8: 14 00 c5 8f  	lw	$5, 0x14($fp)
8002a0fc: 41 a8 00 0c  	jal	0x2a104 <.text+0xa104>
8002a100: 00 00 00 00  	nop
8002a104: 80 ff bd 27  	addiu	$sp, $sp, -0x80
8002a108: 7c 00 bf af  	sw	$ra, 0x7c($sp)
8002a10c: 78 00 be af  	sw	$fp, 0x78($sp)
8002a110: 25 f0 a0 03  	move	$fp, $sp
8002a114: 1c 00 c6 af  	sw	$6, 0x1c($fp)
8002a118: 20 00 c4 af  	sw	$4, 0x20($fp)
8002a11c: 24 00 c5 af  	sw	$5, 0x24($fp)
8002a120: 20 00 c2 27  	addiu	$2, $fp, 0x20
8002a124: 64 00 c2 af  	sw	$2, 0x64($fp)
8002a128: 70 00 c2 af  	sw	$2, 0x70($fp)
8002a12c: 02 80 01 3c  	lui	$1, 0x8002
8002a130: 74 77 21 24  	addiu	$1, $1, 0x7774
8002a134: 74 00 c1 af  	sw	$1, 0x74($fp)
8002a138: 68 00 c2 af  	sw	$2, 0x68($fp)
8002a13c: 6c 00 c1 af  	sw	$1, 0x6c($fp)
8002a140: 68 00 c4 8f  	lw	$4, 0x68($fp)
8002a144: 6c 00 c3 8f  	lw	$3, 0x6c($fp)
8002a148: 24 00 c2 27  	addiu	$2, $fp, 0x24
8002a14c: 50 00 c2 af  	sw	$2, 0x50($fp)
8002a150: 5c 00 c2 af  	sw	$2, 0x5c($fp)
8002a154: 60 00 c1 af  	sw	$1, 0x60($fp)
8002a158: 54 00 c2 af  	sw	$2, 0x54($fp)
8002a15c: 58 00 c1 af  	sw	$1, 0x58($fp)
8002a160: 54 00 c2 8f  	lw	$2, 0x54($fp)
8002a164: 58 00 c1 8f  	lw	$1, 0x58($fp)
8002a168: 40 00 c4 af  	sw	$4, 0x40($fp)
8002a16c: 44 00 c3 af  	sw	$3, 0x44($fp)
8002a170: 48 00 c2 af  	sw	$2, 0x48($fp)
8002a174: 4c 00 c1 af  	sw	$1, 0x4c($fp)
8002a178: 25 08 a0 03  	move	$1, $sp
8002a17c: 02 00 06 24  	addiu	$6, $zero, 0x2
8002a180: 10 00 26 ac  	sw	$6, 0x10($1)
8002a184: 03 80 01 3c  	lui	$1, 0x8003
8002a188: 88 17 25 24  	addiu	$5, $1, 0x1788
8002a18c: 28 00 c4 27  	addiu	$4, $fp, 0x28
8002a190: 18 00 c4 af  	sw	$4, 0x18($fp)
8002a194: 40 00 c7 27  	addiu	$7, $fp, 0x40
8002a198: d0 aa 00 0c  	jal	0x2ab40 <.text+0xab40>
8002a19c: 00 00 00 00  	nop
8002a1a0: 18 00 c4 8f  	lw	$4, 0x18($fp)
8002a1a4: 1c 00 c5 8f  	lw	$5, 0x1c($fp)
8002a1a8: f6 b4 00 0c  	jal	0x2d3d8 <.text+0xd3d8>
8002a1ac: 00 00 00 00  	nop
8002a1b0: c8 ff bd 27  	addiu	$sp, $sp, -0x38
8002a1b4: 34 00 bf af  	sw	$ra, 0x34($sp)
8002a1b8: 30 00 be af  	sw	$fp, 0x30($sp)
8002a1bc: 25 f0 a0 03  	move	$fp, $sp
8002a1c0: 14 00 c6 af  	sw	$6, 0x14($fp)
8002a1c4: 18 00 c5 af  	sw	$5, 0x18($fp)
8002a1c8: 1c 00 c4 af  	sw	$4, 0x1c($fp)
8002a1cc: 24 00 c4 af  	sw	$4, 0x24($fp)
8002a1d0: 28 00 c5 af  	sw	$5, 0x28($fp)
8002a1d4: 2c 00 c6 af  	sw	$6, 0x2c($fp)
8002a1d8: 2b 08 86 00  	sltu	$1, $4, $6
8002a1dc: 06 00 20 14  	bnez	$1, 0x8002a1f8 <.text+0xa1f8>
8002a1e0: 00 00 00 00  	nop
8002a1e4: 7b a8 00 08  	j	0x2a1ec <.text+0xa1ec>
8002a1e8: 00 00 00 00  	nop
8002a1ec: 20 00 c0 af  	sw	$zero, 0x20($fp)
8002a1f0: 86 a8 00 08  	j	0x2a218 <.text+0xa218>
8002a1f4: 00 00 00 00  	nop
8002a1f8: 14 00 c6 8f  	lw	$6, 0x14($fp)
8002a1fc: 18 00 c5 8f  	lw	$5, 0x18($fp)
8002a200: 1c 00 c4 8f  	lw	$4, 0x1c($fp)
8002a204: db a8 00 0c  	jal	0x2a36c <.text+0xa36c>
8002a208: 00 00 00 00  	nop
8002a20c: 20 00 c2 af  	sw	$2, 0x20($fp)
8002a210: 86 a8 00 08  	j	0x2a218 <.text+0xa218>
8002a214: 00 00 00 00  	nop
8002a218: 20 00 c2 8f  	lw	$2, 0x20($fp)
8002a21c: 25 e8 c0 03  	move	$sp, $fp
8002a220: 30 00 be 8f  	lw	$fp, 0x30($sp)
8002a224: 34 00 bf 8f  	lw	$ra, 0x34($sp)
8002a228: 38 00 bd 27  	addiu	$sp, $sp, 0x38
8002a22c: 08 00 e0 03  	jr	$ra
8002a230: 00 00 00 00  	nop
8002a234: c8 ff bd 27  	addiu	$sp, $sp, -0x38
8002a238: 34 00 bf af  	sw	$ra, 0x34($sp)
8002a23c: 30 00 be af  	sw	$fp, 0x30($sp)
8002a240: 25 f0 a0 03  	move	$fp, $sp
8002a244: 14 00 c6 af  	sw	$6, 0x14($fp)
8002a248: 18 00 c5 af  	sw	$5, 0x18($fp)
8002a24c: 1c 00 c4 af  	sw	$4, 0x1c($fp)
8002a250: 24 00 c4 af  	sw	$4, 0x24($fp)
8002a254: 28 00 c5 af  	sw	$5, 0x28($fp)
8002a258: 2c 00 c6 af  	sw	$6, 0x2c($fp)
8002a25c: 2b 08 86 00  	sltu	$1, $4, $6
8002a260: 06 00 20 14  	bnez	$1, 0x8002a27c <.text+0xa27c>
8002a264: 00 00 00 00  	nop
8002a268: 9c a8 00 08  	j	0x2a270 <.text+0xa270>
8002a26c: 00 00 00 00  	nop
8002a270: 20 00 c0 af  	sw	$zero, 0x20($fp)
8002a274: a7 a8 00 08  	j	0x2a29c <.text+0xa29c>
8002a278: 00 00 00 00  	nop
8002a27c: 14 00 c6 8f  	lw	$6, 0x14($fp)
8002a280: 18 00 c5 8f  	lw	$5, 0x18($fp)
8002a284: 1c 00 c4 8f  	lw	$4, 0x1c($fp)
8002a288: ae a8 00 0c  	jal	0x2a2b8 <.text+0xa2b8>
8002a28c: 00 00 00 00  	nop
8002a290: 20 00 c2 af  	sw	$2, 0x20($fp)
8002a294: a7 a8 00 08  	j	0x2a29c <.text+0xa29c>
8002a298: 00 00 00 00  	nop
8002a29c: 20 00 c2 8f  	lw	$2, 0x20($fp)
8002a2a0: 25 e8 c0 03  	move	$sp, $fp
8002a2a4: 30 00 be 8f  	lw	$fp, 0x30($sp)
8002a2a8: 34 00 bf 8f  	lw	$ra, 0x34($sp)
8002a2ac: 38 00 bd 27  	addiu	$sp, $sp, 0x38
8002a2b0: 08 00 e0 03  	jr	$ra
8002a2b4: 00 00 00 00  	nop
8002a2b8: c8 ff bd 27  	addiu	$sp, $sp, -0x38
8002a2bc: 34 00 bf af  	sw	$ra, 0x34($sp)
8002a2c0: 30 00 be af  	sw	$fp, 0x30($sp)
8002a2c4: 25 f0 a0 03  	move	$fp, $sp
8002a2c8: 10 00 c6 af  	sw	$6, 0x10($fp)
8002a2cc: 14 00 c5 af  	sw	$5, 0x14($fp)
8002a2d0: 18 00 c4 af  	sw	$4, 0x18($fp)
8002a2d4: 1c 00 c4 af  	sw	$4, 0x1c($fp)
8002a2d8: 20 00 c5 af  	sw	$5, 0x20($fp)
8002a2dc: 24 00 c6 af  	sw	$6, 0x24($fp)
8002a2e0: b4 a9 00 0c  	jal	0x2a6d0 <.text+0xa6d0>
8002a2e4: 00 00 00 00  	nop
8002a2e8: 16 00 40 14  	bnez	$2, 0x8002a344 <.text+0xa344>
8002a2ec: 00 00 00 00  	nop
8002a2f0: be a8 00 08  	j	0x2a2f8 <.text+0xa2f8>
8002a2f4: 00 00 00 00  	nop
8002a2f8: 10 00 c5 8f  	lw	$5, 0x10($fp)
8002a2fc: 14 00 c4 8f  	lw	$4, 0x14($fp)
8002a300: 20 b4 00 0c  	jal	0x2d080 <.text+0xd080>
8002a304: 00 00 00 00  	nop
8002a308: 14 00 c4 8f  	lw	$4, 0x14($fp)
8002a30c: 10 00 c5 8f  	lw	$5, 0x10($fp)
8002a310: 3c b4 00 0c  	jal	0x2d0f0 <.text+0xd0f0>
8002a314: 00 00 00 00  	nop
8002a318: 18 00 c1 8f  	lw	$1, 0x18($fp)
8002a31c: 28 00 c2 af  	sw	$2, 0x28($fp)
8002a320: 2c 00 c1 af  	sw	$1, 0x2c($fp)
8002a324: c0 08 01 00  	sll	$1, $1, 0x3
8002a328: 21 10 41 00  	addu	$2, $2, $1
8002a32c: 25 e8 c0 03  	move	$sp, $fp
8002a330: 30 00 be 8f  	lw	$fp, 0x30($sp)
8002a334: 34 00 bf 8f  	lw	$ra, 0x34($sp)
8002a338: 38 00 bd 27  	addiu	$sp, $sp, 0x38
8002a33c: 08 00 e0 03  	jr	$ra
8002a340: 00 00 00 00  	nop
8002a344: 10 00 c5 8f  	lw	$5, 0x10($fp)
8002a348: 14 00 c4 8f  	lw	$4, 0x14($fp)
8002a34c: 20 b4 00 0c  	jal	0x2d080 <.text+0xd080>
8002a350: 00 00 00 00  	nop
8002a354: 18 00 c4 8f  	lw	$4, 0x18($fp)
8002a358: 25 28 40 00  	move	$5, $2
8002a35c: 43 a9 00 0c  	jal	0x2a50c <.text+0xa50c>
8002a360: 00 00 00 00  	nop
8002a364: be a8 00 08  	j	0x2a2f8 <.text+0xa2f8>
8002a368: 00 00 00 00  	nop
8002a36c: c8 ff bd 27  	addiu	$sp, $sp, -0x38
8002a370: 34 00 bf af  	sw	$ra, 0x34($sp)
8002a374: 30 00 be af  	sw	$fp, 0x30($sp)
8002a378: 25 f0 a0 03  	move	$fp, $sp
8002a37c: 10 00 c6 af  	sw	$6, 0x10($fp)
8002a380: 14 00 c5 af  	sw	$5, 0x14($fp)
8002a384: 18 00 c4 af  	sw	$4, 0x18($fp)
8002a388: 1c 00 c4 af  	sw	$4, 0x1c($fp)
8002a38c: 20 00 c5 af  	sw	$5, 0x20($fp)
8002a390: 24 00 c6 af  	sw	$6, 0x24($fp)
8002a394: b4 a9 00 0c  	jal	0x2a6d0 <.text+0xa6d0>
8002a398: 00 00 00 00  	nop
8002a39c: 15 00 40 14  	bnez	$2, 0x8002a3f4 <.text+0xa3f4>
8002a3a0: 00 00 00 00  	nop
8002a3a4: eb a8 00 08  	j	0x2a3ac <.text+0xa3ac>
8002a3a8: 00 00 00 00  	nop
8002a3ac: 10 00 c5 8f  	lw	$5, 0x10($fp)
8002a3b0: 14 00 c4 8f  	lw	$4, 0x14($fp)
8002a3b4: 2e b4 00 0c  	jal	0x2d0b8 <.text+0xd0b8>
8002a3b8: 00 00 00 00  	nop
8002a3bc: 14 00 c4 8f  	lw	$4, 0x14($fp)
8002a3c0: 10 00 c5 8f  	lw	$5, 0x10($fp)
8002a3c4: 49 b4 00 0c  	jal	0x2d124 <.text+0xd124>
8002a3c8: 00 00 00 00  	nop
8002a3cc: 18 00 c1 8f  	lw	$1, 0x18($fp)
8002a3d0: 28 00 c2 af  	sw	$2, 0x28($fp)
8002a3d4: 2c 00 c1 af  	sw	$1, 0x2c($fp)
8002a3d8: 21 10 41 00  	addu	$2, $2, $1
8002a3dc: 25 e8 c0 03  	move	$sp, $fp
8002a3e0: 30 00 be 8f  	lw	$fp, 0x30($sp)
8002a3e4: 34 00 bf 8f  	lw	$ra, 0x34($sp)
8002a3e8: 38 00 bd 27  	addiu	$sp, $sp, 0x38
8002a3ec: 08 00 e0 03  	jr	$ra
8002a3f0: 00 00 00 00  	nop
8002a3f4: 10 00 c5 8f  	lw	$5, 0x10($fp)
8002a3f8: 14 00 c4 8f  	lw	$4, 0x14($fp)
8002a3fc: 2e b4 00 0c  	jal	0x2d0b8 <.text+0xd0b8>
8002a400: 00 00 00 00  	nop
8002a404: 18 00 c4 8f  	lw	$4, 0x18($fp)
8002a408: 25 28 40 00  	move	$5, $2
8002a40c: 43 a9 00 0c  	jal	0x2a50c <.text+0xa50c>
8002a410: 00 00 00 00  	nop
8002a414: eb a8 00 08  	j	0x2a3ac <.text+0xa3ac>
8002a418: 00 00 00 00  	nop
8002a41c: c8 ff bd 27  	addiu	$sp, $sp, -0x38
8002a420: 34 00 bf af  	sw	$ra, 0x34($sp)
8002a424: 30 00 be af  	sw	$fp, 0x30($sp)
8002a428: 25 f0 a0 03  	move	$fp, $sp
8002a42c: 10 00 c6 af  	sw	$6, 0x10($fp)
8002a430: 14 00 c5 af  	sw	$5, 0x14($fp)
8002a434: 18 00 c4 af  	sw	$4, 0x18($fp)
8002a438: 1c 00 c4 af  	sw	$4, 0x1c($fp)
8002a43c: 20 00 c5 af  	sw	$5, 0x20($fp)
8002a440: 24 00 c6 af  	sw	$6, 0x24($fp)
8002a444: b4 a9 00 0c  	jal	0x2a6d0 <.text+0xa6d0>
8002a448: 00 00 00 00  	nop
8002a44c: 16 00 40 14  	bnez	$2, 0x8002a4a8 <.text+0xa4a8>
8002a450: 00 00 00 00  	nop
8002a454: 17 a9 00 08  	j	0x2a45c <.text+0xa45c>
8002a458: 00 00 00 00  	nop
8002a45c: 10 00 c5 8f  	lw	$5, 0x10($fp)
8002a460: 14 00 c4 8f  	lw	$4, 0x14($fp)
8002a464: 99 a9 00 0c  	jal	0x2a664 <.text+0xa664>
8002a468: 00 00 00 00  	nop
8002a46c: 14 00 c4 8f  	lw	$4, 0x14($fp)
8002a470: 10 00 c5 8f  	lw	$5, 0x10($fp)
8002a474: a7 a9 00 0c  	jal	0x2a69c <.text+0xa69c>
8002a478: 00 00 00 00  	nop
8002a47c: 18 00 c1 8f  	lw	$1, 0x18($fp)
8002a480: 28 00 c2 af  	sw	$2, 0x28($fp)
8002a484: 2c 00 c1 af  	sw	$1, 0x2c($fp)
8002a488: c0 08 01 00  	sll	$1, $1, 0x3
8002a48c: 21 10 41 00  	addu	$2, $2, $1
8002a490: 25 e8 c0 03  	move	$sp, $fp
8002a494: 30 00 be 8f  	lw	$fp, 0x30($sp)
8002a498: 34 00 bf 8f  	lw	$ra, 0x34($sp)
8002a49c: 38 00 bd 27  	addiu	$sp, $sp, 0x38
8002a4a0: 08 00 e0 03  	jr	$ra
8002a4a4: 00 00 00 00  	nop
8002a4a8: 10 00 c5 8f  	lw	$5, 0x10($fp)
8002a4ac: 14 00 c4 8f  	lw	$4, 0x14($fp)
8002a4b0: 99 a9 00 0c  	jal	0x2a664 <.text+0xa664>
8002a4b4: 00 00 00 00  	nop
8002a4b8: 18 00 c4 8f  	lw	$4, 0x18($fp)
8002a4bc: 25 28 40 00  	move	$5, $2
8002a4c0: 43 a9 00 0c  	jal	0x2a50c <.text+0xa50c>
8002a4c4: 00 00 00 00  	nop
8002a4c8: 17 a9 00 08  	j	0x2a45c <.text+0xa45c>
8002a4cc: 00 00 00 00  	nop
8002a4d0: e8 ff bd 27  	addiu	$sp, $sp, -0x18
8002a4d4: 14 00 bf af  	sw	$ra, 0x14($sp)
8002a4d8: 10 00 be af  	sw	$fp, 0x10($sp)
8002a4dc: 25 f0 a0 03  	move	$fp, $sp
8002a4e0: 00 00 c4 af  	sw	$4, 0x0($fp)
8002a4e4: 04 00 c5 af  	sw	$5, 0x4($fp)
8002a4e8: 08 00 c4 af  	sw	$4, 0x8($fp)
8002a4ec: 0c 00 c5 af  	sw	$5, 0xc($fp)
8002a4f0: 21 10 85 00  	addu	$2, $4, $5
8002a4f4: 25 e8 c0 03  	move	$sp, $fp
8002a4f8: 10 00 be 8f  	lw	$fp, 0x10($sp)
8002a4fc: 14 00 bf 8f  	lw	$ra, 0x14($sp)
8002a500: 18 00 bd 27  	addiu	$sp, $sp, 0x18
8002a504: 08 00 e0 03  	jr	$ra
8002a508: 00 00 00 00  	nop
8002a50c: e0 ff bd 27  	addiu	$sp, $sp, -0x20
8002a510: 1c 00 bf af  	sw	$ra, 0x1c($sp)
8002a514: 18 00 be af  	sw	$fp, 0x18($sp)
8002a518: 25 f0 a0 03  	move	$fp, $sp
8002a51c: 10 00 c4 af  	sw	$4, 0x10($fp)
8002a520: 14 00 c5 af  	sw	$5, 0x14($fp)
8002a524: 2b 08 85 00  	sltu	$1, $4, $5
8002a528: 08 00 20 14  	bnez	$1, 0x8002a54c <.text+0xa54c>
8002a52c: 00 00 00 00  	nop
8002a530: 4e a9 00 08  	j	0x2a538 <.text+0xa538>
8002a534: 00 00 00 00  	nop
8002a538: 03 80 01 3c  	lui	$1, 0x8003
8002a53c: 98 17 24 24  	addiu	$4, $1, 0x1798
8002a540: 61 00 05 24  	addiu	$5, $zero, 0x61
8002a544: 57 b5 00 0c  	jal	0x2d55c <.text+0xd55c>
8002a548: 00 00 00 00  	nop
8002a54c: 25 e8 c0 03  	move	$sp, $fp
8002a550: 18 00 be 8f  	lw	$fp, 0x18($sp)
8002a554: 1c 00 bf 8f  	lw	$ra, 0x1c($sp)
8002a558: 20 00 bd 27  	addiu	$sp, $sp, 0x20
8002a55c: 08 00 e0 03  	jr	$ra
8002a560: 00 00 00 00  	nop
8002a564: d0 ff bd 27  	addiu	$sp, $sp, -0x30
8002a568: 2c 00 bf af  	sw	$ra, 0x2c($sp)
8002a56c: 28 00 be af  	sw	$fp, 0x28($sp)
8002a570: 25 f0 a0 03  	move	$fp, $sp
8002a574: 14 00 c6 af  	sw	$6, 0x14($fp)
8002a578: 18 00 c5 af  	sw	$5, 0x18($fp)
8002a57c: 1c 00 c4 af  	sw	$4, 0x1c($fp)
8002a580: 20 00 c5 af  	sw	$5, 0x20($fp)
8002a584: 24 00 c6 af  	sw	$6, 0x24($fp)
8002a588: 2b 08 a4 00  	sltu	$1, $5, $4
8002a58c: 08 00 20 10  	beqz	$1, 0x8002a5b0 <.text+0xa5b0>
8002a590: 00 00 00 00  	nop
8002a594: 67 a9 00 08  	j	0x2a59c <.text+0xa59c>
8002a598: 00 00 00 00  	nop
8002a59c: 03 80 01 3c  	lui	$1, 0x8003
8002a5a0: f9 17 24 24  	addiu	$4, $1, 0x17f9
8002a5a4: 61 00 05 24  	addiu	$5, $zero, 0x61
8002a5a8: 57 b5 00 0c  	jal	0x2d55c <.text+0xd55c>
8002a5ac: 00 00 00 00  	nop
8002a5b0: 14 00 c1 8f  	lw	$1, 0x14($fp)
8002a5b4: 18 00 c2 8f  	lw	$2, 0x18($fp)
8002a5b8: 2b 08 22 00  	sltu	$1, $1, $2
8002a5bc: f7 ff 20 14  	bnez	$1, 0x8002a59c <.text+0xa59c>
8002a5c0: 00 00 00 00  	nop
8002a5c4: 73 a9 00 08  	j	0x2a5cc <.text+0xa5cc>
8002a5c8: 00 00 00 00  	nop
8002a5cc: 25 e8 c0 03  	move	$sp, $fp
8002a5d0: 28 00 be 8f  	lw	$fp, 0x28($sp)
8002a5d4: 2c 00 bf 8f  	lw	$ra, 0x2c($sp)
8002a5d8: 30 00 bd 27  	addiu	$sp, $sp, 0x30
8002a5dc: 08 00 e0 03  	jr	$ra
8002a5e0: 00 00 00 00  	nop
8002a5e4: d0 ff bd 27  	addiu	$sp, $sp, -0x30
8002a5e8: 2c 00 bf af  	sw	$ra, 0x2c($sp)
8002a5ec: 28 00 be af  	sw	$fp, 0x28($sp)
8002a5f0: 25 f0 a0 03  	move	$fp, $sp
8002a5f4: 14 00 c6 af  	sw	$6, 0x14($fp)
8002a5f8: 18 00 c5 af  	sw	$5, 0x18($fp)
8002a5fc: 1c 00 c4 af  	sw	$4, 0x1c($fp)
8002a600: 20 00 c5 af  	sw	$5, 0x20($fp)
8002a604: 24 00 c6 af  	sw	$6, 0x24($fp)
8002a608: 2b 08 a4 00  	sltu	$1, $5, $4
8002a60c: 08 00 20 10  	beqz	$1, 0x8002a630 <.text+0xa630>
8002a610: 00 00 00 00  	nop
8002a614: 87 a9 00 08  	j	0x2a61c <.text+0xa61c>
8002a618: 00 00 00 00  	nop
8002a61c: 03 80 01 3c  	lui	$1, 0x8003
8002a620: 5a 18 24 24  	addiu	$4, $1, 0x185a
8002a624: 65 00 05 24  	addiu	$5, $zero, 0x65
8002a628: 57 b5 00 0c  	jal	0x2d55c <.text+0xd55c>
8002a62c: 00 00 00 00  	nop
8002a630: 14 00 c1 8f  	lw	$1, 0x14($fp)
8002a634: 18 00 c2 8f  	lw	$2, 0x18($fp)
8002a638: 2b 08 22 00  	sltu	$1, $1, $2
8002a63c: f7 ff 20 14  	bnez	$1, 0x8002a61c <.text+0xa61c>
8002a640: 00 00 00 00  	nop
8002a644: 93 a9 00 08  	j	0x2a64c <.text+0xa64c>
8002a648: 00 00 00 00  	nop
8002a64c: 25 e8 c0 03  	move	$sp, $fp
8002a650: 28 00 be 8f  	lw	$fp, 0x28($sp)
8002a654: 2c 00 bf 8f  	lw	$ra, 0x2c($sp)
8002a658: 30 00 bd 27  	addiu	$sp, $sp, 0x30
8002a65c: 08 00 e0 03  	jr	$ra
8002a660: 00 00 00 00  	nop
8002a664: e0 ff bd 27  	addiu	$sp, $sp, -0x20
8002a668: 1c 00 bf af  	sw	$ra, 0x1c($sp)
8002a66c: 18 00 be af  	sw	$fp, 0x18($sp)
8002a670: 25 f0 a0 03  	move	$fp, $sp
8002a674: 10 00 c4 af  	sw	$4, 0x10($fp)
8002a678: 14 00 c5 af  	sw	$5, 0x14($fp)
8002a67c: 56 9e 00 0c  	jal	0x27958 <.text+0x7958>
8002a680: 00 00 00 00  	nop
8002a684: 25 e8 c0 03  	move	$sp, $fp
8002a688: 18 00 be 8f  	lw	$fp, 0x18($sp)
8002a68c: 1c 00 bf 8f  	lw	$ra, 0x1c($sp)
8002a690: 20 00 bd 27  	addiu	$sp, $sp, 0x20
8002a694: 08 00 e0 03  	jr	$ra
8002a698: 00 00 00 00  	nop
8002a69c: f0 ff bd 27  	addiu	$sp, $sp, -0x10
8002a6a0: 0c 00 bf af  	sw	$ra, 0xc($sp)
8002a6a4: 08 00 be af  	sw	$fp, 0x8($sp)
8002a6a8: 25 f0 a0 03  	move	$fp, $sp
8002a6ac: 25 10 80 00  	move	$2, $4
8002a6b0: 00 00 c2 af  	sw	$2, 0x0($fp)
8002a6b4: 04 00 c5 af  	sw	$5, 0x4($fp)
8002a6b8: 25 e8 c0 03  	move	$sp, $fp
8002a6bc: 08 00 be 8f  	lw	$fp, 0x8($sp)
8002a6c0: 0c 00 bf 8f  	lw	$ra, 0xc($sp)
8002a6c4: 10 00 bd 27  	addiu	$sp, $sp, 0x10
8002a6c8: 08 00 e0 03  	jr	$ra
8002a6cc: 00 00 00 00  	nop
8002a6d0: e0 ff bd 27  	addiu	$sp, $sp, -0x20
8002a6d4: 1c 00 bf af  	sw	$ra, 0x1c($sp)
8002a6d8: 18 00 be af  	sw	$fp, 0x18($sp)
8002a6dc: 25 f0 a0 03  	move	$fp, $sp
8002a6e0: ba a9 00 08  	j	0x2a6e8 <.text+0xa6e8>
8002a6e4: 00 00 00 00  	nop
8002a6e8: c7 a9 00 0c  	jal	0x2a71c <.text+0xa71c>
8002a6ec: 00 00 00 00  	nop
8002a6f0: 17 00 c2 a3  	sb	$2, 0x17($fp)
8002a6f4: bf a9 00 08  	j	0x2a6fc <.text+0xa6fc>
8002a6f8: 00 00 00 00  	nop
8002a6fc: 17 00 c1 93  	lbu	$1, 0x17($fp)
8002a700: 01 00 22 30  	andi	$2, $1, 0x1
8002a704: 25 e8 c0 03  	move	$sp, $fp
8002a708: 18 00 be 8f  	lw	$fp, 0x18($sp)
8002a70c: 1c 00 bf 8f  	lw	$ra, 0x1c($sp)
8002a710: 20 00 bd 27  	addiu	$sp, $sp, 0x20
8002a714: 08 00 e0 03  	jr	$ra
8002a718: 00 00 00 00  	nop
8002a71c: f8 ff bd 27  	addiu	$sp, $sp, -0x8
8002a720: 04 00 bf af  	sw	$ra, 0x4($sp)
8002a724: 00 00 be af  	sw	$fp, 0x0($sp)
8002a728: 25 f0 a0 03  	move	$fp, $sp
8002a72c: 01 00 02 24  	addiu	$2, $zero, 0x1
8002a730: 25 e8 c0 03  	move	$sp, $fp
8002a734: 00 00 be 8f  	lw	$fp, 0x0($sp)
8002a738: 04 00 bf 8f  	lw	$ra, 0x4($sp)
8002a73c: 08 00 bd 27  	addiu	$sp, $sp, 0x8
8002a740: 08 00 e0 03  	jr	$ra
8002a744: 00 00 00 00  	nop
8002a748: d0 ff bd 27  	addiu	$sp, $sp, -0x30
8002a74c: 2c 00 bf af  	sw	$ra, 0x2c($sp)
8002a750: 28 00 be af  	sw	$fp, 0x28($sp)
8002a754: 25 f0 a0 03  	move	$fp, $sp
8002a758: 14 00 c5 af  	sw	$5, 0x14($fp)
8002a75c: 18 00 c4 af  	sw	$4, 0x18($fp)
8002a760: 20 00 c4 af  	sw	$4, 0x20($fp)
8002a764: 24 00 c5 af  	sw	$5, 0x24($fp)
8002a768: 52 b3 00 0c  	jal	0x2cd48 <.text+0xcd48>
8002a76c: 00 00 00 00  	nop
8002a770: 0a 00 40 14  	bnez	$2, 0x8002a79c <.text+0xa79c>
8002a774: 00 00 00 00  	nop
8002a778: e0 a9 00 08  	j	0x2a780 <.text+0xa780>
8002a77c: 00 00 00 00  	nop
8002a780: 14 00 c5 8f  	lw	$5, 0x14($fp)
8002a784: 18 00 c4 8f  	lw	$4, 0x18($fp)
8002a788: c0 b3 00 0c  	jal	0x2cf00 <.text+0xcf00>
8002a78c: 00 00 00 00  	nop
8002a790: 1f 00 c2 a3  	sb	$2, 0x1f($fp)
8002a794: eb a9 00 08  	j	0x2a7ac <.text+0xa7ac>
8002a798: 00 00 00 00  	nop
8002a79c: 00 00 01 24  	addiu	$1, $zero, 0x0
8002a7a0: 1f 00 c0 a3  	sb	$zero, 0x1f($fp)
8002a7a4: eb a9 00 08  	j	0x2a7ac <.text+0xa7ac>
8002a7a8: 00 00 00 00  	nop
8002a7ac: 1f 00 c1 93  	lbu	$1, 0x1f($fp)
8002a7b0: 01 00 22 30  	andi	$2, $1, 0x1
8002a7b4: 25 e8 c0 03  	move	$sp, $fp
8002a7b8: 28 00 be 8f  	lw	$fp, 0x28($sp)
8002a7bc: 2c 00 bf 8f  	lw	$ra, 0x2c($sp)
8002a7c0: 30 00 bd 27  	addiu	$sp, $sp, 0x30
8002a7c4: 08 00 e0 03  	jr	$ra
8002a7c8: 00 00 00 00  	nop
8002a7cc: d0 ff bd 27  	addiu	$sp, $sp, -0x30
8002a7d0: 2c 00 bf af  	sw	$ra, 0x2c($sp)
8002a7d4: 28 00 be af  	sw	$fp, 0x28($sp)
8002a7d8: 25 f0 a0 03  	move	$fp, $sp
8002a7dc: 14 00 c5 af  	sw	$5, 0x14($fp)
8002a7e0: 18 00 c4 af  	sw	$4, 0x18($fp)
8002a7e4: 20 00 c4 af  	sw	$4, 0x20($fp)
8002a7e8: 24 00 c5 af  	sw	$5, 0x24($fp)
8002a7ec: 07 00 80 14  	bnez	$4, 0x8002a80c <.text+0xa80c>
8002a7f0: 00 00 00 00  	nop
8002a7f4: ff a9 00 08  	j	0x2a7fc <.text+0xa7fc>
8002a7f8: 00 00 00 00  	nop
8002a7fc: ff ff 01 24  	addiu	$1, $zero, -0x1
8002a800: 1c 00 c1 af  	sw	$1, 0x1c($fp)
8002a804: 08 aa 00 08  	j	0x2a820 <.text+0xa820>
8002a808: 00 00 00 00  	nop
8002a80c: 18 00 c1 8f  	lw	$1, 0x18($fp)
8002a810: 16 00 20 10  	beqz	$1, 0x8002a86c <.text+0xa86c>
8002a814: 00 00 00 00  	nop
8002a818: 12 aa 00 08  	j	0x2a848 <.text+0xa848>
8002a81c: 00 00 00 00  	nop
8002a820: 14 00 c2 8f  	lw	$2, 0x14($fp)
8002a824: 1c 00 c1 8f  	lw	$1, 0x1c($fp)
8002a828: 2b 08 22 00  	sltu	$1, $1, $2
8002a82c: 01 00 22 38  	xori	$2, $1, 0x1
8002a830: 25 e8 c0 03  	move	$sp, $fp
8002a834: 28 00 be 8f  	lw	$fp, 0x28($sp)
8002a838: 2c 00 bf 8f  	lw	$ra, 0x2c($sp)
8002a83c: 30 00 bd 27  	addiu	$sp, $sp, 0x30
8002a840: 08 00 e0 03  	jr	$ra
8002a844: 00 00 00 00  	nop
8002a848: 18 00 c1 8f  	lw	$1, 0x18($fp)
8002a84c: ff 7f 02 3c  	lui	$2, 0x7fff
8002a850: ff ff 42 34  	ori	$2, $2, 0xffff
8002a854: 1b 00 41 00  	divu	$zero, $2, $1
8002a858: f4 01 20 00  	teq	$1, $zero, 0x7
8002a85c: 12 08 00 00  	mflo	$1
8002a860: 1c 00 c1 af  	sw	$1, 0x1c($fp)
8002a864: 08 aa 00 08  	j	0x2a820 <.text+0xa820>
8002a868: 00 00 00 00  	nop
8002a86c: 03 80 01 3c  	lui	$1, 0x8003
8002a870: 48 19 24 24  	addiu	$4, $1, 0x1948
8002a874: 0e b3 00 0c  	jal	0x2cc38 <.text+0xcc38>
8002a878: 00 00 00 00  	nop
8002a87c: c8 ff bd 27  	addiu	$sp, $sp, -0x38
8002a880: 34 00 bf af  	sw	$ra, 0x34($sp)
8002a884: 30 00 be af  	sw	$fp, 0x30($sp)
8002a888: 25 f0 a0 03  	move	$fp, $sp
8002a88c: 20 00 c4 af  	sw	$4, 0x20($fp)
8002a890: 24 00 c5 af  	sw	$5, 0x24($fp)
8002a894: 28 00 c6 af  	sw	$6, 0x28($fp)
8002a898: 2c 00 c7 af  	sw	$7, 0x2c($fp)
8002a89c: 10 00 c4 af  	sw	$4, 0x10($fp)
8002a8a0: 14 00 c5 af  	sw	$5, 0x14($fp)
8002a8a4: 18 00 c6 af  	sw	$6, 0x18($fp)
8002a8a8: 1c 00 c7 af  	sw	$7, 0x1c($fp)
8002a8ac: 10 00 c4 8f  	lw	$4, 0x10($fp)
8002a8b0: 14 00 c5 8f  	lw	$5, 0x14($fp)
8002a8b4: 18 00 c6 8f  	lw	$6, 0x18($fp)
8002a8b8: 1c 00 c7 8f  	lw	$7, 0x1c($fp)
8002a8bc: 37 aa 00 0c  	jal	0x2a8dc <.text+0xa8dc>
8002a8c0: 00 00 00 00  	nop
8002a8c4: 25 e8 c0 03  	move	$sp, $fp
8002a8c8: 30 00 be 8f  	lw	$fp, 0x30($sp)
8002a8cc: 34 00 bf 8f  	lw	$ra, 0x34($sp)
8002a8d0: 38 00 bd 27  	addiu	$sp, $sp, 0x38
8002a8d4: 08 00 e0 03  	jr	$ra
8002a8d8: 00 00 00 00  	nop
8002a8dc: 98 ff bd 27  	addiu	$sp, $sp, -0x68
8002a8e0: 64 00 bf af  	sw	$ra, 0x64($sp)
8002a8e4: 60 00 be af  	sw	$fp, 0x60($sp)
8002a8e8: 25 f0 a0 03  	move	$fp, $sp
8002a8ec: 18 00 c7 af  	sw	$7, 0x18($fp)
8002a8f0: 1c 00 c6 af  	sw	$6, 0x1c($fp)
8002a8f4: 25 08 a0 00  	move	$1, $5
8002a8f8: 18 00 c5 8f  	lw	$5, 0x18($fp)
8002a8fc: 25 10 80 00  	move	$2, $4
8002a900: 1c 00 c4 8f  	lw	$4, 0x1c($fp)
8002a904: 30 00 c2 af  	sw	$2, 0x30($fp)
8002a908: 34 00 c1 af  	sw	$1, 0x34($fp)
8002a90c: 38 00 c4 af  	sw	$4, 0x38($fp)
8002a910: 3c 00 c5 af  	sw	$5, 0x3c($fp)
8002a914: 58 00 c2 af  	sw	$2, 0x58($fp)
8002a918: 5c 00 c2 af  	sw	$2, 0x5c($fp)
8002a91c: 25 18 40 00  	move	$3, $2
8002a920: 20 00 c3 af  	sw	$3, 0x20($fp)
8002a924: 40 00 c2 af  	sw	$2, 0x40($fp)
8002a928: 50 00 c1 af  	sw	$1, 0x50($fp)
8002a92c: 54 00 c1 af  	sw	$1, 0x54($fp)
8002a930: 25 10 20 00  	move	$2, $1
8002a934: 24 00 c2 af  	sw	$2, 0x24($fp)
8002a938: 44 00 c1 af  	sw	$1, 0x44($fp)
8002a93c: 7e 94 00 0c  	jal	0x251f8 <.text+0x51f8>
8002a940: 00 00 00 00  	nop
8002a944: 28 00 c2 af  	sw	$2, 0x28($fp)
8002a948: 2c 00 c3 af  	sw	$3, 0x2c($fp)
8002a94c: 28 00 c1 8f  	lw	$1, 0x28($fp)
8002a950: 01 00 02 24  	addiu	$2, $zero, 0x1
8002a954: 14 00 22 14  	bne	$1, $2, 0x8002a9a8 <.text+0xa9a8>
8002a958: 00 00 00 00  	nop
8002a95c: 59 aa 00 08  	j	0x2a964 <.text+0xa964>
8002a960: 00 00 00 00  	nop
8002a964: 24 00 c5 8f  	lw	$5, 0x24($fp)
8002a968: 20 00 c4 8f  	lw	$4, 0x20($fp)
8002a96c: 2c 00 c1 8f  	lw	$1, 0x2c($fp)
8002a970: 14 00 c1 af  	sw	$1, 0x14($fp)
8002a974: 48 00 c1 af  	sw	$1, 0x48($fp)
8002a978: ac 94 00 0c  	jal	0x252b0 <.text+0x52b0>
8002a97c: 00 00 00 00  	nop
8002a980: 14 00 c1 8f  	lw	$1, 0x14($fp)
8002a984: 4c 00 c2 af  	sw	$2, 0x4c($fp)
8002a988: 2b 08 41 00  	sltu	$1, $2, $1
8002a98c: 01 00 22 38  	xori	$2, $1, 0x1
8002a990: 25 e8 c0 03  	move	$sp, $fp
8002a994: 60 00 be 8f  	lw	$fp, 0x60($sp)
8002a998: 64 00 bf 8f  	lw	$ra, 0x64($sp)
8002a99c: 68 00 bd 27  	addiu	$sp, $sp, 0x68
8002a9a0: 08 00 e0 03  	jr	$ra
8002a9a4: 00 00 00 00  	nop
8002a9a8: 03 80 01 3c  	lui	$1, 0x8003
8002a9ac: 58 19 24 24  	addiu	$4, $1, 0x1958
8002a9b0: 3d 00 05 24  	addiu	$5, $zero, 0x3d
8002a9b4: 57 b5 00 0c  	jal	0x2d55c <.text+0xd55c>
8002a9b8: 00 00 00 00  	nop
8002a9bc: d0 ff bd 27  	addiu	$sp, $sp, -0x30
8002a9c0: 2c 00 bf af  	sw	$ra, 0x2c($sp)
8002a9c4: 28 00 be af  	sw	$fp, 0x28($sp)
8002a9c8: 25 f0 a0 03  	move	$fp, $sp
8002a9cc: 14 00 c5 af  	sw	$5, 0x14($fp)
8002a9d0: 25 08 80 00  	move	$1, $4
8002a9d4: 14 00 c4 8f  	lw	$4, 0x14($fp)
8002a9d8: 18 00 c1 af  	sw	$1, 0x18($fp)
8002a9dc: 1c 00 c4 af  	sw	$4, 0x1c($fp)
8002a9e0: 20 00 c6 af  	sw	$6, 0x20($fp)
8002a9e4: 92 9f 00 0c  	jal	0x27e48 <.text+0x7e48>
8002a9e8: 00 00 00 00  	nop
8002a9ec: 24 00 c2 af  	sw	$2, 0x24($fp)
8002a9f0: 7e aa 00 08  	j	0x2a9f8 <.text+0xa9f8>
8002a9f4: 00 00 00 00  	nop
8002a9f8: 7e aa 00 08  	j	0x2a9f8 <.text+0xa9f8>
8002a9fc: 00 00 00 00  	nop
8002aa00: d8 ff bd 27  	addiu	$sp, $sp, -0x28
8002aa04: 24 00 bf af  	sw	$ra, 0x24($sp)
8002aa08: 20 00 be af  	sw	$fp, 0x20($sp)
8002aa0c: 25 f0 a0 03  	move	$fp, $sp
8002aa10: 25 10 80 00  	move	$2, $4
8002aa14: 18 00 c5 af  	sw	$5, 0x18($fp)
8002aa18: 1c 00 c6 af  	sw	$6, 0x1c($fp)
8002aa1c: 03 00 01 24  	addiu	$1, $zero, 0x3
8002aa20: 07 00 c1 a3  	sb	$1, 0x7($fp)
8002aa24: 08 00 c0 af  	sw	$zero, 0x8($fp)
8002aa28: 10 00 c0 af  	sw	$zero, 0x10($fp)
8002aa2c: 1c 00 80 ac  	sw	$zero, 0x1c($4)
8002aa30: 20 00 01 24  	addiu	$1, $zero, 0x20
8002aa34: 10 00 81 ac  	sw	$1, 0x10($4)
8002aa38: 07 00 c1 93  	lbu	$1, 0x7($fp)
8002aa3c: 20 00 81 a0  	sb	$1, 0x20($4)
8002aa40: 08 00 c3 8f  	lw	$3, 0x8($fp)
8002aa44: 0c 00 c1 8f  	lw	$1, 0xc($fp)
8002aa48: 00 00 83 ac  	sw	$3, 0x0($4)
8002aa4c: 04 00 81 ac  	sw	$1, 0x4($4)
8002aa50: 10 00 c3 8f  	lw	$3, 0x10($fp)
8002aa54: 14 00 c1 8f  	lw	$1, 0x14($fp)
8002aa58: 08 00 83 ac  	sw	$3, 0x8($4)
8002aa5c: 0c 00 81 ac  	sw	$1, 0xc($4)
8002aa60: 14 00 85 ac  	sw	$5, 0x14($4)
8002aa64: 18 00 86 ac  	sw	$6, 0x18($4)
8002aa68: 25 e8 c0 03  	move	$sp, $fp
8002aa6c: 20 00 be 8f  	lw	$fp, 0x20($sp)
8002aa70: 24 00 bf 8f  	lw	$ra, 0x24($sp)
8002aa74: 28 00 bd 27  	addiu	$sp, $sp, 0x28
8002aa78: 08 00 e0 03  	jr	$ra
8002aa7c: 00 00 00 00  	nop
8002aa80: a8 ff bd 27  	addiu	$sp, $sp, -0x58
8002aa84: 54 00 bf af  	sw	$ra, 0x54($sp)
8002aa88: 50 00 be af  	sw	$fp, 0x50($sp)
8002aa8c: 25 f0 a0 03  	move	$fp, $sp
8002aa90: 18 00 c6 af  	sw	$6, 0x18($fp)
8002aa94: 1c 00 c5 af  	sw	$5, 0x1c($fp)
8002aa98: 20 00 c4 af  	sw	$4, 0x20($fp)
8002aa9c: 24 00 c4 af  	sw	$4, 0x24($fp)
8002aaa0: 48 00 c5 af  	sw	$5, 0x48($fp)
8002aaa4: 4c 00 c6 af  	sw	$6, 0x4c($fp)
8002aaa8: 02 00 c1 2c  	sltiu	$1, $6, 0x2
8002aaac: 18 00 20 10  	beqz	$1, 0x8002ab10 <.text+0xab10>
8002aab0: 00 00 00 00  	nop
8002aab4: af aa 00 08  	j	0x2aabc <.text+0xaabc>
8002aab8: 00 00 00 00  	nop
8002aabc: 24 00 c2 8f  	lw	$2, 0x24($fp)
8002aac0: 20 00 c1 8f  	lw	$1, 0x20($fp)
8002aac4: 18 00 c3 8f  	lw	$3, 0x18($fp)
8002aac8: 1c 00 c4 8f  	lw	$4, 0x1c($fp)
8002aacc: 40 00 c0 af  	sw	$zero, 0x40($fp)
8002aad0: 00 00 24 ac  	sw	$4, 0x0($1)
8002aad4: 04 00 23 ac  	sw	$3, 0x4($1)
8002aad8: 40 00 c4 8f  	lw	$4, 0x40($fp)
8002aadc: 44 00 c3 8f  	lw	$3, 0x44($fp)
8002aae0: 10 00 24 ac  	sw	$4, 0x10($1)
8002aae4: 14 00 23 ac  	sw	$3, 0x14($1)
8002aae8: 03 80 03 3c  	lui	$3, 0x8003
8002aaec: 98 19 63 24  	addiu	$3, $3, 0x1998
8002aaf0: 08 00 23 ac  	sw	$3, 0x8($1)
8002aaf4: 0c 00 20 ac  	sw	$zero, 0xc($1)
8002aaf8: 25 e8 c0 03  	move	$sp, $fp
8002aafc: 50 00 be 8f  	lw	$fp, 0x50($sp)
8002ab00: 54 00 bf 8f  	lw	$ra, 0x54($sp)
8002ab04: 58 00 bd 27  	addiu	$sp, $sp, 0x58
8002ab08: 08 00 e0 03  	jr	$ra
8002ab0c: 00 00 00 00  	nop
8002ab10: 03 80 01 3c  	lui	$1, 0x8003
8002ab14: a4 19 25 24  	addiu	$5, $1, 0x19a4
8002ab18: 28 00 c4 27  	addiu	$4, $fp, 0x28
8002ab1c: 14 00 c4 af  	sw	$4, 0x14($fp)
8002ab20: 01 00 06 24  	addiu	$6, $zero, 0x1
8002ab24: a0 aa 00 0c  	jal	0x2aa80 <.text+0xaa80>
8002ab28: 00 00 00 00  	nop
8002ab2c: 14 00 c4 8f  	lw	$4, 0x14($fp)
8002ab30: 03 80 01 3c  	lui	$1, 0x8003
8002ab34: 20 1a 25 24  	addiu	$5, $1, 0x1a20
8002ab38: f6 b4 00 0c  	jal	0x2d3d8 <.text+0xd3d8>
8002ab3c: 00 00 00 00  	nop
8002ab40: 98 ff bd 27  	addiu	$sp, $sp, -0x68
8002ab44: 64 00 bf af  	sw	$ra, 0x64($sp)
8002ab48: 60 00 be af  	sw	$fp, 0x60($sp)
8002ab4c: 25 f0 a0 03  	move	$fp, $sp
8002ab50: 18 00 c7 af  	sw	$7, 0x18($fp)
8002ab54: 1c 00 c6 af  	sw	$6, 0x1c($fp)
8002ab58: 20 00 c5 af  	sw	$5, 0x20($fp)
8002ab5c: 24 00 c4 af  	sw	$4, 0x24($fp)
8002ab60: 28 00 c4 af  	sw	$4, 0x28($fp)
8002ab64: 78 00 c1 8f  	lw	$1, 0x78($fp)
8002ab68: 2c 00 c1 af  	sw	$1, 0x2c($fp)
8002ab6c: 50 00 c5 af  	sw	$5, 0x50($fp)
8002ab70: 54 00 c6 af  	sw	$6, 0x54($fp)
8002ab74: 58 00 c7 af  	sw	$7, 0x58($fp)
8002ab78: 5c 00 c1 af  	sw	$1, 0x5c($fp)
8002ab7c: 2b 08 c1 00  	sltu	$1, $6, $1
8002ab80: 0a 00 20 14  	bnez	$1, 0x8002abac <.text+0xabac>
8002ab84: 00 00 00 00  	nop
8002ab88: e4 aa 00 08  	j	0x2ab90 <.text+0xab90>
8002ab8c: 00 00 00 00  	nop
8002ab90: 2c 00 c1 8f  	lw	$1, 0x2c($fp)
8002ab94: 01 00 21 24  	addiu	$1, $1, 0x1
8002ab98: 14 00 c1 af  	sw	$1, 0x14($fp)
8002ab9c: 16 00 20 10  	beqz	$1, 0x8002abf8 <.text+0xabf8>
8002aba0: 00 00 00 00  	nop
8002aba4: f7 aa 00 08  	j	0x2abdc <.text+0xabdc>
8002aba8: 00 00 00 00  	nop
8002abac: 03 80 01 3c  	lui	$1, 0x8003
8002abb0: a4 19 25 24  	addiu	$5, $1, 0x19a4
8002abb4: 30 00 c4 27  	addiu	$4, $fp, 0x30
8002abb8: 10 00 c4 af  	sw	$4, 0x10($fp)
8002abbc: 01 00 06 24  	addiu	$6, $zero, 0x1
8002abc0: a0 aa 00 0c  	jal	0x2aa80 <.text+0xaa80>
8002abc4: 00 00 00 00  	nop
8002abc8: 10 00 c4 8f  	lw	$4, 0x10($fp)
8002abcc: 03 80 01 3c  	lui	$1, 0x8003
8002abd0: 40 1a 25 24  	addiu	$5, $1, 0x1a40
8002abd4: f6 b4 00 0c  	jal	0x2d3d8 <.text+0xd3d8>
8002abd8: 00 00 00 00  	nop
8002abdc: 14 00 c1 8f  	lw	$1, 0x14($fp)
8002abe0: 1c 00 c2 8f  	lw	$2, 0x1c($fp)
8002abe4: 2b 08 22 00  	sltu	$1, $1, $2
8002abe8: f0 ff 20 14  	bnez	$1, 0x8002abac <.text+0xabac>
8002abec: 00 00 00 00  	nop
8002abf0: 02 ab 00 08  	j	0x2ac08 <.text+0xac08>
8002abf4: 00 00 00 00  	nop
8002abf8: 03 80 01 3c  	lui	$1, 0x8003
8002abfc: 30 1a 24 24  	addiu	$4, $1, 0x1a30
8002ac00: be b2 00 0c  	jal	0x2caf8 <.text+0xcaf8>
8002ac04: 00 00 00 00  	nop
8002ac08: 28 00 c2 8f  	lw	$2, 0x28($fp)
8002ac0c: 2c 00 c1 8f  	lw	$1, 0x2c($fp)
8002ac10: 24 00 c3 8f  	lw	$3, 0x24($fp)
8002ac14: 18 00 c4 8f  	lw	$4, 0x18($fp)
8002ac18: 1c 00 c5 8f  	lw	$5, 0x1c($fp)
8002ac1c: 20 00 c6 8f  	lw	$6, 0x20($fp)
8002ac20: 48 00 c0 af  	sw	$zero, 0x48($fp)
8002ac24: 00 00 66 ac  	sw	$6, 0x0($3)
8002ac28: 04 00 65 ac  	sw	$5, 0x4($3)
8002ac2c: 48 00 c6 8f  	lw	$6, 0x48($fp)
8002ac30: 4c 00 c5 8f  	lw	$5, 0x4c($fp)
8002ac34: 10 00 66 ac  	sw	$6, 0x10($3)
8002ac38: 14 00 65 ac  	sw	$5, 0x14($3)
8002ac3c: 08 00 64 ac  	sw	$4, 0x8($3)
8002ac40: 0c 00 61 ac  	sw	$1, 0xc($3)
8002ac44: 25 e8 c0 03  	move	$sp, $fp
8002ac48: 60 00 be 8f  	lw	$fp, 0x60($sp)
8002ac4c: 64 00 bf 8f  	lw	$ra, 0x64($sp)
8002ac50: 68 00 bd 27  	addiu	$sp, $sp, 0x68
8002ac54: 08 00 e0 03  	jr	$ra
8002ac58: 00 00 00 00  	nop
8002ac5c: d8 ff bd 27  	addiu	$sp, $sp, -0x28
8002ac60: 24 00 bf af  	sw	$ra, 0x24($sp)
8002ac64: 20 00 be af  	sw	$fp, 0x20($sp)
8002ac68: 25 f0 a0 03  	move	$fp, $sp
8002ac6c: 25 08 80 00  	move	$1, $4
8002ac70: 18 00 c1 af  	sw	$1, 0x18($fp)
8002ac74: 00 00 24 8c  	lw	$4, 0x0($1)
8002ac78: 04 00 23 8c  	lw	$3, 0x4($1)
8002ac7c: 08 00 22 8c  	lw	$2, 0x8($1)
8002ac80: 0c 00 21 8c  	lw	$1, 0xc($1)
8002ac84: 08 00 c4 af  	sw	$4, 0x8($fp)
8002ac88: 0c 00 c3 af  	sw	$3, 0xc($fp)
8002ac8c: 10 00 c2 af  	sw	$2, 0x10($fp)
8002ac90: 14 00 c1 af  	sw	$1, 0x14($fp)
8002ac94: 0c 00 c1 8f  	lw	$1, 0xc($fp)
8002ac98: 09 00 20 10  	beqz	$1, 0x8002acc0 <.text+0xacc0>
8002ac9c: 00 00 00 00  	nop
8002aca0: 2a ab 00 08  	j	0x2aca8 <.text+0xaca8>
8002aca4: 00 00 00 00  	nop
8002aca8: 0c 00 c1 8f  	lw	$1, 0xc($fp)
8002acac: 01 00 02 24  	addiu	$2, $zero, 0x1
8002acb0: 0b 00 22 10  	beq	$1, $2, 0x8002ace0 <.text+0xace0>
8002acb4: 00 00 00 00  	nop
8002acb8: 35 ab 00 08  	j	0x2acd4 <.text+0xacd4>
8002acbc: 00 00 00 00  	nop
8002acc0: 14 00 c1 8f  	lw	$1, 0x14($fp)
8002acc4: 1b 00 20 10  	beqz	$1, 0x8002ad34 <.text+0xad34>
8002acc8: 00 00 00 00  	nop
8002accc: 35 ab 00 08  	j	0x2acd4 <.text+0xacd4>
8002acd0: 00 00 00 00  	nop
8002acd4: 00 00 c0 af  	sw	$zero, 0x0($fp)
8002acd8: 45 ab 00 08  	j	0x2ad14 <.text+0xad14>
8002acdc: 00 00 00 00  	nop
8002ace0: 14 00 c1 8f  	lw	$1, 0x14($fp)
8002ace4: fb ff 20 14  	bnez	$1, 0x8002acd4 <.text+0xacd4>
8002ace8: 00 00 00 00  	nop
8002acec: 3d ab 00 08  	j	0x2acf4 <.text+0xacf4>
8002acf0: 00 00 00 00  	nop
8002acf4: 08 00 c1 8f  	lw	$1, 0x8($fp)
8002acf8: 1c 00 c1 af  	sw	$1, 0x1c($fp)
8002acfc: 00 00 22 8c  	lw	$2, 0x0($1)
8002ad00: 04 00 21 8c  	lw	$1, 0x4($1)
8002ad04: 00 00 c2 af  	sw	$2, 0x0($fp)
8002ad08: 04 00 c1 af  	sw	$1, 0x4($fp)
8002ad0c: 45 ab 00 08  	j	0x2ad14 <.text+0xad14>
8002ad10: 00 00 00 00  	nop
8002ad14: 00 00 c2 8f  	lw	$2, 0x0($fp)
8002ad18: 04 00 c3 8f  	lw	$3, 0x4($fp)
8002ad1c: 25 e8 c0 03  	move	$sp, $fp
8002ad20: 20 00 be 8f  	lw	$fp, 0x20($sp)
8002ad24: 24 00 bf 8f  	lw	$ra, 0x24($sp)
8002ad28: 28 00 bd 27  	addiu	$sp, $sp, 0x28
8002ad2c: 08 00 e0 03  	jr	$ra
8002ad30: 00 00 00 00  	nop
8002ad34: 03 80 01 3c  	lui	$1, 0x8003
8002ad38: 98 19 21 24  	addiu	$1, $1, 0x1998
8002ad3c: 00 00 c1 af  	sw	$1, 0x0($fp)
8002ad40: 04 00 c0 af  	sw	$zero, 0x4($fp)
8002ad44: 45 ab 00 08  	j	0x2ad14 <.text+0xad14>
8002ad48: 00 00 00 00  	nop
8002ad4c: d0 ff bd 27  	addiu	$sp, $sp, -0x30
8002ad50: 2c 00 bf af  	sw	$ra, 0x2c($sp)
8002ad54: 28 00 be af  	sw	$fp, 0x28($sp)
8002ad58: 25 f0 a0 03  	move	$fp, $sp
8002ad5c: 20 00 c4 af  	sw	$4, 0x20($fp)
8002ad60: 17 ab 00 0c  	jal	0x2ac5c <.text+0xac5c>
8002ad64: 00 00 00 00  	nop
8002ad68: 18 00 c2 af  	sw	$2, 0x18($fp)
8002ad6c: 1c 00 c3 af  	sw	$3, 0x1c($fp)
8002ad70: 18 00 c4 27  	addiu	$4, $fp, 0x18
8002ad74: 6a bb 00 0c  	jal	0x2eda8 <.text+0xeda8>
8002ad78: 00 00 00 00  	nop
8002ad7c: 00 00 01 24  	addiu	$1, $zero, 0x0
8002ad80: 27 00 c0 a3  	sb	$zero, 0x27($fp)
8002ad84: 27 00 c1 93  	lbu	$1, 0x27($fp)
8002ad88: 01 00 21 30  	andi	$1, $1, 0x1
8002ad8c: 06 00 20 14  	bnez	$1, 0x8002ada8 <.text+0xada8>
8002ad90: 00 00 00 00  	nop
8002ad94: 67 ab 00 08  	j	0x2ad9c <.text+0xad9c>
8002ad98: 00 00 00 00  	nop
8002ad9c: 10 00 c0 af  	sw	$zero, 0x10($fp)
8002ada0: 70 ab 00 08  	j	0x2adc0 <.text+0xadc0>
8002ada4: 00 00 00 00  	nop
8002ada8: 18 00 c2 8f  	lw	$2, 0x18($fp)
8002adac: 1c 00 c1 8f  	lw	$1, 0x1c($fp)
8002adb0: 10 00 c2 af  	sw	$2, 0x10($fp)
8002adb4: 14 00 c1 af  	sw	$1, 0x14($fp)
8002adb8: 70 ab 00 08  	j	0x2adc0 <.text+0xadc0>
8002adbc: 00 00 00 00  	nop
8002adc0: 10 00 c2 8f  	lw	$2, 0x10($fp)
8002adc4: 14 00 c3 8f  	lw	$3, 0x14($fp)
8002adc8: 25 e8 c0 03  	move	$sp, $fp
8002adcc: 28 00 be 8f  	lw	$fp, 0x28($sp)
8002add0: 2c 00 bf 8f  	lw	$ra, 0x2c($sp)
8002add4: 30 00 bd 27  	addiu	$sp, $sp, 0x30
8002add8: 08 00 e0 03  	jr	$ra
8002addc: 00 00 00 00  	nop
8002ade0: f0 fe bd 27  	addiu	$sp, $sp, -0x110
8002ade4: 0c 01 bf af  	sw	$ra, 0x10c($sp)
8002ade8: 08 01 be af  	sw	$fp, 0x108($sp)
8002adec: 25 f0 a0 03  	move	$fp, $sp
8002adf0: 34 00 c6 af  	sw	$6, 0x34($fp)
8002adf4: 25 30 a0 00  	move	$6, $5
8002adf8: 25 28 80 00  	move	$5, $4
8002adfc: d4 00 c5 af  	sw	$5, 0xd4($fp)
8002ae00: d8 00 c6 af  	sw	$6, 0xd8($fp)
8002ae04: 44 00 c4 27  	addiu	$4, $fp, 0x44
8002ae08: 80 aa 00 0c  	jal	0x2aa00 <.text+0xaa00>
8002ae0c: 00 00 00 00  	nop
8002ae10: 34 00 c6 8f  	lw	$6, 0x34($fp)
8002ae14: 68 00 c0 af  	sw	$zero, 0x68($fp)
8002ae18: 10 00 c1 8c  	lw	$1, 0x10($6)
8002ae1c: 1a 00 20 14  	bnez	$1, 0x8002ae88 <.text+0xae88>
8002ae20: 00 00 00 00  	nop
8002ae24: 8b ab 00 08  	j	0x2ae2c <.text+0xae2c>
8002ae28: 00 00 00 00  	nop
8002ae2c: 34 00 c1 8f  	lw	$1, 0x34($fp)
8002ae30: 08 00 24 8c  	lw	$4, 0x8($1)
8002ae34: 0c 00 25 8c  	lw	$5, 0xc($1)
8002ae38: d3 b1 00 0c  	jal	0x2c74c <.text+0xc74c>
8002ae3c: 00 00 00 00  	nop
8002ae40: 25 28 40 00  	move	$5, $2
8002ae44: 25 30 60 00  	move	$6, $3
8002ae48: 78 00 c4 27  	addiu	$4, $fp, 0x78
8002ae4c: 30 00 c4 af  	sw	$4, 0x30($fp)
8002ae50: 31 95 00 0c  	jal	0x254c4 <.text+0x54c4>
8002ae54: 00 00 00 00  	nop
8002ae58: 30 00 c5 8f  	lw	$5, 0x30($fp)
8002ae5c: 6c 00 c4 27  	addiu	$4, $fp, 0x6c
8002ae60: 70 9a 00 0c  	jal	0x269c0 <.text+0x69c0>
8002ae64: 00 00 00 00  	nop
8002ae68: 74 00 c1 8f  	lw	$1, 0x74($fp)
8002ae6c: 8c 00 c1 af  	sw	$1, 0x8c($fp)
8002ae70: 70 00 c1 8f  	lw	$1, 0x70($fp)
8002ae74: 88 00 c1 af  	sw	$1, 0x88($fp)
8002ae78: 6c 00 c1 8f  	lw	$1, 0x6c($fp)
8002ae7c: 84 00 c1 af  	sw	$1, 0x84($fp)
8002ae80: bb ab 00 08  	j	0x2aeec <.text+0xaeec>
8002ae84: 00 00 00 00  	nop
8002ae88: 34 00 c1 8f  	lw	$1, 0x34($fp)
8002ae8c: 10 00 24 8c  	lw	$4, 0x10($1)
8002ae90: 14 00 25 8c  	lw	$5, 0x14($1)
8002ae94: e8 00 c4 af  	sw	$4, 0xe8($fp)
8002ae98: ec 00 c5 af  	sw	$5, 0xec($fp)
8002ae9c: e1 b1 00 0c  	jal	0x2c784 <.text+0xc784>
8002aea0: 00 00 00 00  	nop
8002aea4: 25 28 40 00  	move	$5, $2
8002aea8: 25 30 60 00  	move	$6, $3
8002aeac: a8 00 c4 27  	addiu	$4, $fp, 0xa8
8002aeb0: 2c 00 c4 af  	sw	$4, 0x2c($fp)
8002aeb4: 20 95 00 0c  	jal	0x25480 <.text+0x5480>
8002aeb8: 00 00 00 00  	nop
8002aebc: 2c 00 c5 8f  	lw	$5, 0x2c($fp)
8002aec0: 9c 00 c4 27  	addiu	$4, $fp, 0x9c
8002aec4: 5f 9a 00 0c  	jal	0x2697c <.text+0x697c>
8002aec8: 00 00 00 00  	nop
8002aecc: a4 00 c1 8f  	lw	$1, 0xa4($fp)
8002aed0: bc 00 c1 af  	sw	$1, 0xbc($fp)
8002aed4: a0 00 c1 8f  	lw	$1, 0xa0($fp)
8002aed8: b8 00 c1 af  	sw	$1, 0xb8($fp)
8002aedc: 9c 00 c1 8f  	lw	$1, 0x9c($fp)
8002aee0: b4 00 c1 af  	sw	$1, 0xb4($fp)
8002aee4: 2f ac 00 08  	j	0x2b0bc <.text+0xb0bc>
8002aee8: 00 00 00 00  	nop
8002aeec: 84 00 c4 27  	addiu	$4, $fp, 0x84
8002aef0: 21 9a 00 0c  	jal	0x26884 <.text+0x6884>
8002aef4: 00 00 00 00  	nop
8002aef8: 90 00 c2 af  	sw	$2, 0x90($fp)
8002aefc: 94 00 c3 af  	sw	$3, 0x94($fp)
8002af00: 94 00 c1 8f  	lw	$1, 0x94($fp)
8002af04: 0f 00 20 14  	bnez	$1, 0x8002af44 <.text+0xaf44>
8002af08: 00 00 00 00  	nop
8002af0c: c5 ab 00 08  	j	0x2af14 <.text+0xaf14>
8002af10: 00 00 00 00  	nop
8002af14: 34 00 c1 8f  	lw	$1, 0x34($fp)
8002af18: 00 00 24 8c  	lw	$4, 0x0($1)
8002af1c: 04 00 25 8c  	lw	$5, 0x4($1)
8002af20: 68 00 c6 8f  	lw	$6, 0x68($fp)
8002af24: fd a1 00 0c  	jal	0x287f4 <.text+0x87f4>
8002af28: 00 00 00 00  	nop
8002af2c: cc 00 c2 af  	sw	$2, 0xcc($fp)
8002af30: cc 00 c1 8f  	lw	$1, 0xcc($fp)
8002af34: 80 00 20 14  	bnez	$1, 0x8002b138 <.text+0xb138>
8002af38: 00 00 00 00  	nop
8002af3c: 61 ac 00 08  	j	0x2b184 <.text+0xb184>
8002af40: 00 00 00 00  	nop
8002af44: 34 00 c1 8f  	lw	$1, 0x34($fp)
8002af48: 90 00 c6 8f  	lw	$6, 0x90($fp)
8002af4c: dc 00 c6 af  	sw	$6, 0xdc($fp)
8002af50: 94 00 c2 8f  	lw	$2, 0x94($fp)
8002af54: 24 00 c2 af  	sw	$2, 0x24($fp)
8002af58: e0 00 c2 af  	sw	$2, 0xe0($fp)
8002af5c: 00 00 24 8c  	lw	$4, 0x0($1)
8002af60: 04 00 25 8c  	lw	$5, 0x4($1)
8002af64: 10 a2 00 0c  	jal	0x28840 <.text+0x8840>
8002af68: 00 00 00 00  	nop
8002af6c: 25 08 40 00  	move	$1, $2
8002af70: 28 00 c1 af  	sw	$1, 0x28($fp)
8002af74: e4 00 c2 af  	sw	$2, 0xe4($fp)
8002af78: 00 00 44 8c  	lw	$4, 0x0($2)
8002af7c: 04 00 45 8c  	lw	$5, 0x4($2)
8002af80: fe b1 00 0c  	jal	0x2c7f8 <.text+0xc7f8>
8002af84: 00 00 00 00  	nop
8002af88: 15 00 40 14  	bnez	$2, 0x8002afe0 <.text+0xafe0>
8002af8c: 00 00 00 00  	nop
8002af90: e6 ab 00 08  	j	0x2af98 <.text+0xaf98>
8002af94: 00 00 00 00  	nop
8002af98: 28 00 c2 8f  	lw	$2, 0x28($fp)
8002af9c: 58 00 c4 8f  	lw	$4, 0x58($fp)
8002afa0: 5c 00 c1 8f  	lw	$1, 0x5c($fp)
8002afa4: 00 00 45 8c  	lw	$5, 0x0($2)
8002afa8: 04 00 46 8c  	lw	$6, 0x4($2)
8002afac: 0c 00 39 8c  	lw	$25, 0xc($1)
8002afb0: 09 f8 20 03  	jalr	$25
8002afb4: 00 00 00 00  	nop
8002afb8: 25 20 40 00  	move	$4, $2
8002afbc: b2 bd 00 0c  	jal	0x2f6c8 <.text+0xf6c8>
8002afc0: 00 00 00 00  	nop
8002afc4: 9a 00 c2 a3  	sb	$2, 0x9a($fp)
8002afc8: 9a 00 c1 93  	lbu	$1, 0x9a($fp)
8002afcc: 01 00 21 30  	andi	$1, $1, 0x1
8002afd0: 15 00 20 14  	bnez	$1, 0x8002b028 <.text+0xb028>
8002afd4: 00 00 00 00  	nop
8002afd8: f8 ab 00 08  	j	0x2afe0 <.text+0xafe0>
8002afdc: 00 00 00 00  	nop
8002afe0: 24 00 c1 8f  	lw	$1, 0x24($fp)
8002afe4: 00 01 c1 af  	sw	$1, 0x100($fp)
8002afe8: 44 00 c5 27  	addiu	$5, $fp, 0x44
8002afec: 04 01 c5 af  	sw	$5, 0x104($fp)
8002aff0: 04 00 39 8c  	lw	$25, 0x4($1)
8002aff4: 00 00 24 8c  	lw	$4, 0x0($1)
8002aff8: 09 f8 20 03  	jalr	$25
8002affc: 00 00 00 00  	nop
8002b000: 25 20 40 00  	move	$4, $2
8002b004: b2 bd 00 0c  	jal	0x2f6c8 <.text+0xf6c8>
8002b008: 00 00 00 00  	nop
8002b00c: 9b 00 c2 a3  	sb	$2, 0x9b($fp)
8002b010: 9b 00 c1 93  	lbu	$1, 0x9b($fp)
8002b014: 01 00 21 30  	andi	$1, $1, 0x1
8002b018: 12 00 20 10  	beqz	$1, 0x8002b064 <.text+0xb064>
8002b01c: 00 00 00 00  	nop
8002b020: 20 ac 00 08  	j	0x2b080 <.text+0xb080>
8002b024: 00 00 00 00  	nop
8002b028: 03 80 01 3c  	lui	$1, 0x8003
8002b02c: 50 1a 24 24  	addiu	$4, $1, 0x1a50
8002b030: fb bd 00 0c  	jal	0x2f7ec <.text+0xf7ec>
8002b034: 00 00 00 00  	nop
8002b038: 43 00 c2 a3  	sb	$2, 0x43($fp)
8002b03c: 11 ac 00 08  	j	0x2b044 <.text+0xb044>
8002b040: 00 00 00 00  	nop
8002b044: 43 00 c1 93  	lbu	$1, 0x43($fp)
8002b048: 01 00 22 30  	andi	$2, $1, 0x1
8002b04c: 25 e8 c0 03  	move	$sp, $fp
8002b050: 08 01 be 8f  	lw	$fp, 0x108($sp)
8002b054: 0c 01 bf 8f  	lw	$ra, 0x10c($sp)
8002b058: 10 01 bd 27  	addiu	$sp, $sp, 0x110
8002b05c: 08 00 e0 03  	jr	$ra
8002b060: 00 00 00 00  	nop
8002b064: 68 00 c1 8f  	lw	$1, 0x68($fp)
8002b068: 01 00 21 24  	addiu	$1, $1, 0x1
8002b06c: 20 00 c1 af  	sw	$1, 0x20($fp)
8002b070: 0e 00 20 10  	beqz	$1, 0x8002b0ac <.text+0xb0ac>
8002b074: 00 00 00 00  	nop
8002b078: 27 ac 00 08  	j	0x2b09c <.text+0xb09c>
8002b07c: 00 00 00 00  	nop
8002b080: 03 80 01 3c  	lui	$1, 0x8003
8002b084: 70 1a 24 24  	addiu	$4, $1, 0x1a70
8002b088: fb bd 00 0c  	jal	0x2f7ec <.text+0xf7ec>
8002b08c: 00 00 00 00  	nop
8002b090: 43 00 c2 a3  	sb	$2, 0x43($fp)
8002b094: 11 ac 00 08  	j	0x2b044 <.text+0xb044>
8002b098: 00 00 00 00  	nop
8002b09c: 20 00 c1 8f  	lw	$1, 0x20($fp)
8002b0a0: 68 00 c1 af  	sw	$1, 0x68($fp)
8002b0a4: bb ab 00 08  	j	0x2aeec <.text+0xaeec>
8002b0a8: 00 00 00 00  	nop
8002b0ac: 03 80 01 3c  	lui	$1, 0x8003
8002b0b0: 60 1a 24 24  	addiu	$4, $1, 0x1a60
8002b0b4: be b2 00 0c  	jal	0x2caf8 <.text+0xcaf8>
8002b0b8: 00 00 00 00  	nop
8002b0bc: b4 00 c4 27  	addiu	$4, $fp, 0xb4
8002b0c0: e3 99 00 0c  	jal	0x2678c <.text+0x678c>
8002b0c4: 00 00 00 00  	nop
8002b0c8: c0 00 c2 af  	sw	$2, 0xc0($fp)
8002b0cc: c4 00 c3 af  	sw	$3, 0xc4($fp)
8002b0d0: c4 00 c1 8f  	lw	$1, 0xc4($fp)
8002b0d4: 8f ff 20 10  	beqz	$1, 0x8002af14 <.text+0xaf14>
8002b0d8: 00 00 00 00  	nop
8002b0dc: 39 ac 00 08  	j	0x2b0e4 <.text+0xb0e4>
8002b0e0: 00 00 00 00  	nop
8002b0e4: 34 00 c1 8f  	lw	$1, 0x34($fp)
8002b0e8: c0 00 c6 8f  	lw	$6, 0xc0($fp)
8002b0ec: f4 00 c6 af  	sw	$6, 0xf4($fp)
8002b0f0: c4 00 c2 8f  	lw	$2, 0xc4($fp)
8002b0f4: 18 00 c2 af  	sw	$2, 0x18($fp)
8002b0f8: f8 00 c2 af  	sw	$2, 0xf8($fp)
8002b0fc: 00 00 24 8c  	lw	$4, 0x0($1)
8002b100: 04 00 25 8c  	lw	$5, 0x4($1)
8002b104: 10 a2 00 0c  	jal	0x28840 <.text+0x8840>
8002b108: 00 00 00 00  	nop
8002b10c: 25 08 40 00  	move	$1, $2
8002b110: 1c 00 c1 af  	sw	$1, 0x1c($fp)
8002b114: fc 00 c2 af  	sw	$2, 0xfc($fp)
8002b118: 00 00 44 8c  	lw	$4, 0x0($2)
8002b11c: 04 00 45 8c  	lw	$5, 0x4($2)
8002b120: fe b1 00 0c  	jal	0x2c7f8 <.text+0xc7f8>
8002b124: 00 00 00 00  	nop
8002b128: 33 00 40 14  	bnez	$2, 0x8002b1f8 <.text+0xb1f8>
8002b12c: 00 00 00 00  	nop
8002b130: 6c ac 00 08  	j	0x2b1b0 <.text+0xb1b0>
8002b134: 00 00 00 00  	nop
8002b138: cc 00 c2 8f  	lw	$2, 0xcc($fp)
8002b13c: f0 00 c2 af  	sw	$2, 0xf0($fp)
8002b140: 58 00 c4 8f  	lw	$4, 0x58($fp)
8002b144: 5c 00 c1 8f  	lw	$1, 0x5c($fp)
8002b148: 00 00 45 8c  	lw	$5, 0x0($2)
8002b14c: 04 00 46 8c  	lw	$6, 0x4($2)
8002b150: 0c 00 39 8c  	lw	$25, 0xc($1)
8002b154: 09 f8 20 03  	jalr	$25
8002b158: 00 00 00 00  	nop
8002b15c: 25 20 40 00  	move	$4, $2
8002b160: b2 bd 00 0c  	jal	0x2f6c8 <.text+0xf6c8>
8002b164: 00 00 00 00  	nop
8002b168: d3 00 c2 a3  	sb	$2, 0xd3($fp)
8002b16c: d3 00 c1 93  	lbu	$1, 0xd3($fp)
8002b170: 01 00 21 30  	andi	$1, $1, 0x1
8002b174: 07 00 20 14  	bnez	$1, 0x8002b194 <.text+0xb194>
8002b178: 00 00 00 00  	nop
8002b17c: 61 ac 00 08  	j	0x2b184 <.text+0xb184>
8002b180: 00 00 00 00  	nop
8002b184: 00 00 01 24  	addiu	$1, $zero, 0x0
8002b188: 43 00 c0 a3  	sb	$zero, 0x43($fp)
8002b18c: 11 ac 00 08  	j	0x2b044 <.text+0xb044>
8002b190: 00 00 00 00  	nop
8002b194: 03 80 01 3c  	lui	$1, 0x8003
8002b198: 80 1a 24 24  	addiu	$4, $1, 0x1a80
8002b19c: fb bd 00 0c  	jal	0x2f7ec <.text+0xf7ec>
8002b1a0: 00 00 00 00  	nop
8002b1a4: 43 00 c2 a3  	sb	$2, 0x43($fp)
8002b1a8: 11 ac 00 08  	j	0x2b044 <.text+0xb044>
8002b1ac: 00 00 00 00  	nop
8002b1b0: 1c 00 c2 8f  	lw	$2, 0x1c($fp)
8002b1b4: 58 00 c4 8f  	lw	$4, 0x58($fp)
8002b1b8: 5c 00 c1 8f  	lw	$1, 0x5c($fp)
8002b1bc: 00 00 45 8c  	lw	$5, 0x0($2)
8002b1c0: 04 00 46 8c  	lw	$6, 0x4($2)
8002b1c4: 0c 00 39 8c  	lw	$25, 0xc($1)
8002b1c8: 09 f8 20 03  	jalr	$25
8002b1cc: 00 00 00 00  	nop
8002b1d0: 25 20 40 00  	move	$4, $2
8002b1d4: b2 bd 00 0c  	jal	0x2f6c8 <.text+0xf6c8>
8002b1d8: 00 00 00 00  	nop
8002b1dc: ca 00 c2 a3  	sb	$2, 0xca($fp)
8002b1e0: ca 00 c1 93  	lbu	$1, 0xca($fp)
8002b1e4: 01 00 21 30  	andi	$1, $1, 0x1
8002b1e8: 14 00 20 14  	bnez	$1, 0x8002b23c <.text+0xb23c>
8002b1ec: 00 00 00 00  	nop
8002b1f0: 7e ac 00 08  	j	0x2b1f8 <.text+0xb1f8>
8002b1f4: 00 00 00 00  	nop
8002b1f8: 18 00 c5 8f  	lw	$5, 0x18($fp)
8002b1fc: 34 00 c1 8f  	lw	$1, 0x34($fp)
8002b200: 08 00 26 8c  	lw	$6, 0x8($1)
8002b204: 0c 00 27 8c  	lw	$7, 0xc($1)
8002b208: 44 00 c4 27  	addiu	$4, $fp, 0x44
8002b20c: ac ac 00 0c  	jal	0x2b2b0 <.text+0xb2b0>
8002b210: 00 00 00 00  	nop
8002b214: 25 20 40 00  	move	$4, $2
8002b218: b2 bd 00 0c  	jal	0x2f6c8 <.text+0xf6c8>
8002b21c: 00 00 00 00  	nop
8002b220: cb 00 c2 a3  	sb	$2, 0xcb($fp)
8002b224: cb 00 c1 93  	lbu	$1, 0xcb($fp)
8002b228: 01 00 21 30  	andi	$1, $1, 0x1
8002b22c: 0a 00 20 10  	beqz	$1, 0x8002b258 <.text+0xb258>
8002b230: 00 00 00 00  	nop
8002b234: 9d ac 00 08  	j	0x2b274 <.text+0xb274>
8002b238: 00 00 00 00  	nop
8002b23c: 03 80 01 3c  	lui	$1, 0x8003
8002b240: 90 1a 24 24  	addiu	$4, $1, 0x1a90
8002b244: fb bd 00 0c  	jal	0x2f7ec <.text+0xf7ec>
8002b248: 00 00 00 00  	nop
8002b24c: 43 00 c2 a3  	sb	$2, 0x43($fp)
8002b250: 11 ac 00 08  	j	0x2b044 <.text+0xb044>
8002b254: 00 00 00 00  	nop
8002b258: 68 00 c1 8f  	lw	$1, 0x68($fp)
8002b25c: 01 00 21 24  	addiu	$1, $1, 0x1
8002b260: 14 00 c1 af  	sw	$1, 0x14($fp)
8002b264: 0e 00 20 10  	beqz	$1, 0x8002b2a0 <.text+0xb2a0>
8002b268: 00 00 00 00  	nop
8002b26c: a4 ac 00 08  	j	0x2b290 <.text+0xb290>
8002b270: 00 00 00 00  	nop
8002b274: 03 80 01 3c  	lui	$1, 0x8003
8002b278: b0 1a 24 24  	addiu	$4, $1, 0x1ab0
8002b27c: fb bd 00 0c  	jal	0x2f7ec <.text+0xf7ec>
8002b280: 00 00 00 00  	nop
8002b284: 43 00 c2 a3  	sb	$2, 0x43($fp)
8002b288: 11 ac 00 08  	j	0x2b044 <.text+0xb044>
8002b28c: 00 00 00 00  	nop
8002b290: 14 00 c1 8f  	lw	$1, 0x14($fp)
8002b294: 68 00 c1 af  	sw	$1, 0x68($fp)
8002b298: 2f ac 00 08  	j	0x2b0bc <.text+0xb0bc>
8002b29c: 00 00 00 00  	nop
8002b2a0: 03 80 01 3c  	lui	$1, 0x8003
8002b2a4: a0 1a 24 24  	addiu	$4, $1, 0x1aa0
8002b2a8: be b2 00 0c  	jal	0x2caf8 <.text+0xcaf8>
8002b2ac: 00 00 00 00  	nop
8002b2b0: b8 ff bd 27  	addiu	$sp, $sp, -0x48
8002b2b4: 44 00 bf af  	sw	$ra, 0x44($sp)
8002b2b8: 40 00 be af  	sw	$fp, 0x40($sp)
8002b2bc: 25 f0 a0 03  	move	$fp, $sp
8002b2c0: 18 00 c7 af  	sw	$7, 0x18($fp)
8002b2c4: 14 00 c6 af  	sw	$6, 0x14($fp)
8002b2c8: 25 08 a0 00  	move	$1, $5
8002b2cc: 18 00 c5 8f  	lw	$5, 0x18($fp)
8002b2d0: 1c 00 c1 af  	sw	$1, 0x1c($fp)
8002b2d4: 25 18 80 00  	move	$3, $4
8002b2d8: 14 00 c4 8f  	lw	$4, 0x14($fp)
8002b2dc: 20 00 c3 af  	sw	$3, 0x20($fp)
8002b2e0: 24 00 c3 af  	sw	$3, 0x24($fp)
8002b2e4: 28 00 c1 af  	sw	$1, 0x28($fp)
8002b2e8: 2c 00 c4 af  	sw	$4, 0x2c($fp)
8002b2ec: 30 00 c5 af  	sw	$5, 0x30($fp)
8002b2f0: 10 00 22 8c  	lw	$2, 0x10($1)
8002b2f4: 10 00 62 ac  	sw	$2, 0x10($3)
8002b2f8: 1c 00 22 90  	lbu	$2, 0x1c($1)
8002b2fc: 20 00 62 a0  	sb	$2, 0x20($3)
8002b300: 18 00 22 8c  	lw	$2, 0x18($1)
8002b304: 1c 00 62 ac  	sw	$2, 0x1c($3)
8002b308: 08 00 26 24  	addiu	$6, $1, 0x8
8002b30c: f5 ac 00 0c  	jal	0x2b3d4 <.text+0xb3d4>
8002b310: 00 00 00 00  	nop
8002b314: 14 00 c4 8f  	lw	$4, 0x14($fp)
8002b318: 18 00 c5 8f  	lw	$5, 0x18($fp)
8002b31c: 1c 00 c6 8f  	lw	$6, 0x1c($fp)
8002b320: 20 00 c1 8f  	lw	$1, 0x20($fp)
8002b324: 00 00 22 ac  	sw	$2, 0x0($1)
8002b328: 04 00 23 ac  	sw	$3, 0x4($1)
8002b32c: f5 ac 00 0c  	jal	0x2b3d4 <.text+0xb3d4>
8002b330: 00 00 00 00  	nop
8002b334: 20 00 c4 8f  	lw	$4, 0x20($fp)
8002b338: 08 00 82 ac  	sw	$2, 0x8($4)
8002b33c: 0c 00 83 ac  	sw	$3, 0xc($4)
8002b340: d2 ac 00 08  	j	0x2b348 <.text+0xb348>
8002b344: 00 00 00 00  	nop
8002b348: 18 00 c2 8f  	lw	$2, 0x18($fp)
8002b34c: 1c 00 c1 8f  	lw	$1, 0x1c($fp)
8002b350: 14 00 21 8c  	lw	$1, 0x14($1)
8002b354: 2b 08 22 00  	sltu	$1, $1, $2
8002b358: 0a 00 20 14  	bnez	$1, 0x8002b384 <.text+0xb384>
8002b35c: 00 00 00 00  	nop
8002b360: da ac 00 08  	j	0x2b368 <.text+0xb368>
8002b364: 00 00 00 00  	nop
8002b368: 03 80 01 3c  	lui	$1, 0x8003
8002b36c: c0 1a 24 24  	addiu	$4, $1, 0x1ac0
8002b370: 03 80 01 3c  	lui	$1, 0x8003
8002b374: ec 1a 26 24  	addiu	$6, $1, 0x1aec
8002b378: 2b 00 05 24  	addiu	$5, $zero, 0x2b
8002b37c: 44 b5 00 0c  	jal	0x2d510 <.text+0xd510>
8002b380: 00 00 00 00  	nop
8002b384: 18 00 c5 8f  	lw	$5, 0x18($fp)
8002b388: 14 00 c4 8f  	lw	$4, 0x14($fp)
8002b38c: 1c 00 c1 8f  	lw	$1, 0x1c($fp)
8002b390: 14 00 26 8c  	lw	$6, 0x14($1)
8002b394: c0 b1 00 0c  	jal	0x2c700 <.text+0xc700>
8002b398: 00 00 00 00  	nop
8002b39c: 20 00 c5 8f  	lw	$5, 0x20($fp)
8002b3a0: 34 00 c2 af  	sw	$2, 0x34($fp)
8002b3a4: 38 00 c2 af  	sw	$2, 0x38($fp)
8002b3a8: 3c 00 c5 af  	sw	$5, 0x3c($fp)
8002b3ac: 04 00 59 8c  	lw	$25, 0x4($2)
8002b3b0: 00 00 44 8c  	lw	$4, 0x0($2)
8002b3b4: 09 f8 20 03  	jalr	$25
8002b3b8: 00 00 00 00  	nop
8002b3bc: 25 e8 c0 03  	move	$sp, $fp
8002b3c0: 40 00 be 8f  	lw	$fp, 0x40($sp)
8002b3c4: 44 00 bf 8f  	lw	$ra, 0x44($sp)
8002b3c8: 48 00 bd 27  	addiu	$sp, $sp, 0x48
8002b3cc: 08 00 e0 03  	jr	$ra
8002b3d0: 00 00 00 00  	nop
8002b3d4: a8 ff bd 27  	addiu	$sp, $sp, -0x58
8002b3d8: 54 00 bf af  	sw	$ra, 0x54($sp)
8002b3dc: 50 00 be af  	sw	$fp, 0x50($sp)
8002b3e0: 25 f0 a0 03  	move	$fp, $sp
8002b3e4: 18 00 c6 af  	sw	$6, 0x18($fp)
8002b3e8: 1c 00 c5 af  	sw	$5, 0x1c($fp)
8002b3ec: 20 00 c4 af  	sw	$4, 0x20($fp)
8002b3f0: 30 00 c4 af  	sw	$4, 0x30($fp)
8002b3f4: 34 00 c5 af  	sw	$5, 0x34($fp)
8002b3f8: 38 00 c6 af  	sw	$6, 0x38($fp)
8002b3fc: 00 00 c1 8c  	lw	$1, 0x0($6)
8002b400: 24 00 c1 af  	sw	$1, 0x24($fp)
8002b404: 0c 00 20 10  	beqz	$1, 0x8002b438 <.text+0xb438>
8002b408: 00 00 00 00  	nop
8002b40c: 05 ad 00 08  	j	0x2b414 <.text+0xb414>
8002b410: 00 00 00 00  	nop
8002b414: 24 00 c1 8f  	lw	$1, 0x24($fp)
8002b418: 01 00 02 24  	addiu	$2, $zero, 0x1
8002b41c: 0e 00 22 10  	beq	$1, $2, 0x8002b458 <.text+0xb458>
8002b420: 00 00 00 00  	nop
8002b424: 0b ad 00 08  	j	0x2b42c <.text+0xb42c>
8002b428: 00 00 00 00  	nop
8002b42c: 1c ad 00 08  	j	0x2b470 <.text+0xb470>
8002b430: 00 00 00 00  	nop
8002b434: 0d 00 00 00  	break
8002b438: 18 00 c1 8f  	lw	$1, 0x18($fp)
8002b43c: 04 00 21 8c  	lw	$1, 0x4($1)
8002b440: 3c 00 c1 af  	sw	$1, 0x3c($fp)
8002b444: 2c 00 c1 af  	sw	$1, 0x2c($fp)
8002b448: 01 00 01 24  	addiu	$1, $zero, 0x1
8002b44c: 28 00 c1 af  	sw	$1, 0x28($fp)
8002b450: 1f ad 00 08  	j	0x2b47c <.text+0xb47c>
8002b454: 00 00 00 00  	nop
8002b458: 18 00 c1 8f  	lw	$1, 0x18($fp)
8002b45c: 04 00 21 8c  	lw	$1, 0x4($1)
8002b460: 14 00 c1 af  	sw	$1, 0x14($fp)
8002b464: 40 00 c1 af  	sw	$1, 0x40($fp)
8002b468: 27 ad 00 08  	j	0x2b49c <.text+0xb49c>
8002b46c: 00 00 00 00  	nop
8002b470: 28 00 c0 af  	sw	$zero, 0x28($fp)
8002b474: 1f ad 00 08  	j	0x2b47c <.text+0xb47c>
8002b478: 00 00 00 00  	nop
8002b47c: 28 00 c2 8f  	lw	$2, 0x28($fp)
8002b480: 2c 00 c3 8f  	lw	$3, 0x2c($fp)
8002b484: 25 e8 c0 03  	move	$sp, $fp
8002b488: 50 00 be 8f  	lw	$fp, 0x50($sp)
8002b48c: 54 00 bf 8f  	lw	$ra, 0x54($sp)
8002b490: 58 00 bd 27  	addiu	$sp, $sp, 0x58
8002b494: 08 00 e0 03  	jr	$ra
8002b498: 00 00 00 00  	nop
8002b49c: 14 00 c1 8f  	lw	$1, 0x14($fp)
8002b4a0: 1c 00 c2 8f  	lw	$2, 0x1c($fp)
8002b4a4: 2b 08 22 00  	sltu	$1, $1, $2
8002b4a8: 0a 00 20 14  	bnez	$1, 0x8002b4d4 <.text+0xb4d4>
8002b4ac: 00 00 00 00  	nop
8002b4b0: 2e ad 00 08  	j	0x2b4b8 <.text+0xb4b8>
8002b4b4: 00 00 00 00  	nop
8002b4b8: 03 80 01 3c  	lui	$1, 0x8003
8002b4bc: 64 11 24 24  	addiu	$4, $1, 0x1164
8002b4c0: 03 80 01 3c  	lui	$1, 0x8003
8002b4c4: fc 1a 26 24  	addiu	$6, $1, 0x1afc
8002b4c8: 20 00 05 24  	addiu	$5, $zero, 0x20
8002b4cc: 44 b5 00 0c  	jal	0x2d510 <.text+0xd510>
8002b4d0: 00 00 00 00  	nop
8002b4d4: 14 00 c6 8f  	lw	$6, 0x14($fp)
8002b4d8: 1c 00 c5 8f  	lw	$5, 0x1c($fp)
8002b4dc: 20 00 c4 8f  	lw	$4, 0x20($fp)
8002b4e0: c0 b1 00 0c  	jal	0x2c700 <.text+0xc700>
8002b4e4: 00 00 00 00  	nop
8002b4e8: 25 08 40 00  	move	$1, $2
8002b4ec: 10 00 c1 af  	sw	$1, 0x10($fp)
8002b4f0: 4c 00 c2 af  	sw	$2, 0x4c($fp)
8002b4f4: 04 00 41 8c  	lw	$1, 0x4($2)
8002b4f8: 02 80 02 3c  	lui	$2, 0x8002
8002b4fc: 28 66 42 24  	addiu	$2, $2, 0x6628
8002b500: 06 00 22 10  	beq	$1, $2, 0x8002b51c <.text+0xb51c>
8002b504: 00 00 00 00  	nop
8002b508: 44 ad 00 08  	j	0x2b510 <.text+0xb510>
8002b50c: 00 00 00 00  	nop
8002b510: 44 00 c0 af  	sw	$zero, 0x44($fp)
8002b514: 4f ad 00 08  	j	0x2b53c <.text+0xb53c>
8002b518: 00 00 00 00  	nop
8002b51c: 10 00 c1 8f  	lw	$1, 0x10($fp)
8002b520: 00 00 21 8c  	lw	$1, 0x0($1)
8002b524: 00 00 21 8c  	lw	$1, 0x0($1)
8002b528: 48 00 c1 af  	sw	$1, 0x48($fp)
8002b52c: 01 00 01 24  	addiu	$1, $zero, 0x1
8002b530: 44 00 c1 af  	sw	$1, 0x44($fp)
8002b534: 4f ad 00 08  	j	0x2b53c <.text+0xb53c>
8002b538: 00 00 00 00  	nop
8002b53c: 44 00 c2 8f  	lw	$2, 0x44($fp)
8002b540: 48 00 c1 8f  	lw	$1, 0x48($fp)
8002b544: 28 00 c2 af  	sw	$2, 0x28($fp)
8002b548: 2c 00 c1 af  	sw	$1, 0x2c($fp)
8002b54c: 1f ad 00 08  	j	0x2b47c <.text+0xb47c>
8002b550: 00 00 00 00  	nop
8002b554: e8 ff bd 27  	addiu	$sp, $sp, -0x18
8002b558: 14 00 bf af  	sw	$ra, 0x14($sp)
8002b55c: 10 00 be af  	sw	$fp, 0x10($sp)
8002b560: 25 f0 a0 03  	move	$fp, $sp
8002b564: 08 00 c4 af  	sw	$4, 0x8($fp)
8002b568: 0c 00 c5 af  	sw	$5, 0xc($fp)
8002b56c: 00 00 c4 af  	sw	$4, 0x0($fp)
8002b570: 04 00 c5 af  	sw	$5, 0x4($fp)
8002b574: 00 00 c2 8f  	lw	$2, 0x0($fp)
8002b578: 04 00 c3 8f  	lw	$3, 0x4($fp)
8002b57c: 25 e8 c0 03  	move	$sp, $fp
8002b580: 10 00 be 8f  	lw	$fp, 0x10($sp)
8002b584: 14 00 bf 8f  	lw	$ra, 0x14($sp)
8002b588: 18 00 bd 27  	addiu	$sp, $sp, 0x18
8002b58c: 08 00 e0 03  	jr	$ra
8002b590: 00 00 00 00  	nop
8002b594: b0 ff bd 27  	addiu	$sp, $sp, -0x50
8002b598: 4c 00 bf af  	sw	$ra, 0x4c($sp)
8002b59c: 48 00 be af  	sw	$fp, 0x48($sp)
8002b5a0: 25 f0 a0 03  	move	$fp, $sp
8002b5a4: 14 00 c6 af  	sw	$6, 0x14($fp)
8002b5a8: 18 00 c4 af  	sw	$4, 0x18($fp)
8002b5ac: 3c 00 c4 af  	sw	$4, 0x3c($fp)
8002b5b0: 40 00 c5 af  	sw	$5, 0x40($fp)
8002b5b4: 44 00 c6 af  	sw	$6, 0x44($fp)
8002b5b8: 20 00 c0 af  	sw	$zero, 0x20($fp)
8002b5bc: 24 00 c5 af  	sw	$5, 0x24($fp)
8002b5c0: 20 00 c4 8f  	lw	$4, 0x20($fp)
8002b5c4: 24 00 c5 8f  	lw	$5, 0x24($fp)
8002b5c8: a9 b6 00 0c  	jal	0x2daa4 <.text+0xdaa4>
8002b5cc: 00 00 00 00  	nop
8002b5d0: 28 00 c2 af  	sw	$2, 0x28($fp)
8002b5d4: 2c 00 c3 af  	sw	$3, 0x2c($fp)
8002b5d8: 78 ad 00 08  	j	0x2b5e0 <.text+0xb5e0>
8002b5dc: 00 00 00 00  	nop
8002b5e0: 28 00 c4 27  	addiu	$4, $fp, 0x28
8002b5e4: 9c b6 00 0c  	jal	0x2da70 <.text+0xda70>
8002b5e8: 00 00 00 00  	nop
8002b5ec: 30 00 c2 af  	sw	$2, 0x30($fp)
8002b5f0: 34 00 c3 af  	sw	$3, 0x34($fp)
8002b5f4: 30 00 c1 8f  	lw	$1, 0x30($fp)
8002b5f8: 07 00 20 14  	bnez	$1, 0x8002b618 <.text+0xb618>
8002b5fc: 00 00 00 00  	nop
8002b600: 82 ad 00 08  	j	0x2b608 <.text+0xb608>
8002b604: 00 00 00 00  	nop
8002b608: 00 00 01 24  	addiu	$1, $zero, 0x0
8002b60c: 1f 00 c0 a3  	sb	$zero, 0x1f($fp)
8002b610: 97 ad 00 08  	j	0x2b65c <.text+0xb65c>
8002b614: 00 00 00 00  	nop
8002b618: 18 00 c5 8f  	lw	$5, 0x18($fp)
8002b61c: 14 00 c1 8f  	lw	$1, 0x14($fp)
8002b620: 14 00 24 8c  	lw	$4, 0x14($1)
8002b624: 18 00 21 8c  	lw	$1, 0x18($1)
8002b628: 10 00 39 8c  	lw	$25, 0x10($1)
8002b62c: 09 f8 20 03  	jalr	$25
8002b630: 00 00 00 00  	nop
8002b634: 25 20 40 00  	move	$4, $2
8002b638: b2 bd 00 0c  	jal	0x2f6c8 <.text+0xf6c8>
8002b63c: 00 00 00 00  	nop
8002b640: 3b 00 c2 a3  	sb	$2, 0x3b($fp)
8002b644: 3b 00 c1 93  	lbu	$1, 0x3b($fp)
8002b648: 01 00 21 30  	andi	$1, $1, 0x1
8002b64c: e4 ff 20 10  	beqz	$1, 0x8002b5e0 <.text+0xb5e0>
8002b650: 00 00 00 00  	nop
8002b654: 9f ad 00 08  	j	0x2b67c <.text+0xb67c>
8002b658: 00 00 00 00  	nop
8002b65c: 1f 00 c1 93  	lbu	$1, 0x1f($fp)
8002b660: 01 00 22 30  	andi	$2, $1, 0x1
8002b664: 25 e8 c0 03  	move	$sp, $fp
8002b668: 48 00 be 8f  	lw	$fp, 0x48($sp)
8002b66c: 4c 00 bf 8f  	lw	$ra, 0x4c($sp)
8002b670: 50 00 bd 27  	addiu	$sp, $sp, 0x50
8002b674: 08 00 e0 03  	jr	$ra
8002b678: 00 00 00 00  	nop
8002b67c: 03 80 01 3c  	lui	$1, 0x8003
8002b680: 0c 1b 24 24  	addiu	$4, $1, 0x1b0c
8002b684: fb bd 00 0c  	jal	0x2f7ec <.text+0xf7ec>
8002b688: 00 00 00 00  	nop
8002b68c: 1f 00 c2 a3  	sb	$2, 0x1f($fp)
8002b690: 97 ad 00 08  	j	0x2b65c <.text+0xb65c>
8002b694: 00 00 00 00  	nop
8002b698: 10 ff bd 27  	addiu	$sp, $sp, -0xf0
8002b69c: ec 00 bf af  	sw	$ra, 0xec($sp)
8002b6a0: e8 00 be af  	sw	$fp, 0xe8($sp)
8002b6a4: 25 f0 a0 03  	move	$fp, $sp
8002b6a8: 44 00 c7 af  	sw	$7, 0x44($fp)
8002b6ac: 48 00 c6 af  	sw	$6, 0x48($fp)
8002b6b0: 25 08 a0 00  	move	$1, $5
8002b6b4: 58 00 c1 af  	sw	$1, 0x58($fp)
8002b6b8: 25 10 80 00  	move	$2, $4
8002b6bc: 4c 00 c2 af  	sw	$2, 0x4c($fp)
8002b6c0: 04 01 c5 8f  	lw	$5, 0x104($fp)
8002b6c4: 50 00 c5 af  	sw	$5, 0x50($fp)
8002b6c8: 00 01 c4 8f  	lw	$4, 0x100($fp)
8002b6cc: 54 00 c4 af  	sw	$4, 0x54($fp)
8002b6d0: a4 00 c2 af  	sw	$2, 0xa4($fp)
8002b6d4: ab 00 c1 a3  	sb	$1, 0xab($fp)
8002b6d8: ac 00 c6 af  	sw	$6, 0xac($fp)
8002b6dc: b0 00 c7 af  	sw	$7, 0xb0($fp)
8002b6e0: b4 00 c4 af  	sw	$4, 0xb4($fp)
8002b6e4: b8 00 c5 af  	sw	$5, 0xb8($fp)
8002b6e8: ef b1 00 0c  	jal	0x2c7bc <.text+0xc7bc>
8002b6ec: 00 00 00 00  	nop
8002b6f0: 58 00 c5 8f  	lw	$5, 0x58($fp)
8002b6f4: 70 00 c2 af  	sw	$2, 0x70($fp)
8002b6f8: 11 00 01 3c  	lui	$1, 0x11
8002b6fc: 74 00 c1 af  	sw	$1, 0x74($fp)
8002b700: 0e 00 a0 14  	bnez	$5, 0x8002b73c <.text+0xb73c>
8002b704: 00 00 00 00  	nop
8002b708: c4 ad 00 08  	j	0x2b710 <.text+0xb710>
8002b70c: 00 00 00 00  	nop
8002b710: 2d 00 01 24  	addiu	$1, $zero, 0x2d
8002b714: 78 00 c1 af  	sw	$1, 0x78($fp)
8002b718: 78 00 c1 8f  	lw	$1, 0x78($fp)
8002b71c: 74 00 c1 af  	sw	$1, 0x74($fp)
8002b720: 70 00 c1 8f  	lw	$1, 0x70($fp)
8002b724: 01 00 21 24  	addiu	$1, $1, 0x1
8002b728: 40 00 c1 af  	sw	$1, 0x40($fp)
8002b72c: 0e 00 20 10  	beqz	$1, 0x8002b768 <.text+0xb768>
8002b730: 00 00 00 00  	nop
8002b734: d6 ad 00 08  	j	0x2b758 <.text+0xb758>
8002b738: 00 00 00 00  	nop
8002b73c: 4c 00 c4 8f  	lw	$4, 0x4c($fp)
8002b740: 84 b1 00 0c  	jal	0x2c610 <.text+0xc610>
8002b744: 00 00 00 00  	nop
8002b748: 12 00 40 14  	bnez	$2, 0x8002b794 <.text+0xb794>
8002b74c: 00 00 00 00  	nop
8002b750: de ad 00 08  	j	0x2b778 <.text+0xb778>
8002b754: 00 00 00 00  	nop
8002b758: 40 00 c1 8f  	lw	$1, 0x40($fp)
8002b75c: 70 00 c1 af  	sw	$1, 0x70($fp)
8002b760: de ad 00 08  	j	0x2b778 <.text+0xb778>
8002b764: 00 00 00 00  	nop
8002b768: 03 80 01 3c  	lui	$1, 0x8003
8002b76c: 1c 1b 24 24  	addiu	$4, $1, 0x1b1c
8002b770: be b2 00 0c  	jal	0x2caf8 <.text+0xcaf8>
8002b774: 00 00 00 00  	nop
8002b778: 4c 00 c4 8f  	lw	$4, 0x4c($fp)
8002b77c: 91 b1 00 0c  	jal	0x2c644 <.text+0xc644>
8002b780: 00 00 00 00  	nop
8002b784: 19 00 40 14  	bnez	$2, 0x8002b7ec <.text+0xb7ec>
8002b788: 00 00 00 00  	nop
8002b78c: f8 ad 00 08  	j	0x2b7e0 <.text+0xb7e0>
8002b790: 00 00 00 00  	nop
8002b794: 2b 00 01 24  	addiu	$1, $zero, 0x2b
8002b798: 7c 00 c1 af  	sw	$1, 0x7c($fp)
8002b79c: 7c 00 c1 8f  	lw	$1, 0x7c($fp)
8002b7a0: 74 00 c1 af  	sw	$1, 0x74($fp)
8002b7a4: 70 00 c1 8f  	lw	$1, 0x70($fp)
8002b7a8: 01 00 21 24  	addiu	$1, $1, 0x1
8002b7ac: 3c 00 c1 af  	sw	$1, 0x3c($fp)
8002b7b0: 07 00 20 10  	beqz	$1, 0x8002b7d0 <.text+0xb7d0>
8002b7b4: 00 00 00 00  	nop
8002b7b8: f0 ad 00 08  	j	0x2b7c0 <.text+0xb7c0>
8002b7bc: 00 00 00 00  	nop
8002b7c0: 3c 00 c1 8f  	lw	$1, 0x3c($fp)
8002b7c4: 70 00 c1 af  	sw	$1, 0x70($fp)
8002b7c8: de ad 00 08  	j	0x2b778 <.text+0xb778>
8002b7cc: 00 00 00 00  	nop
8002b7d0: 03 80 01 3c  	lui	$1, 0x8003
8002b7d4: 2c 1b 24 24  	addiu	$4, $1, 0x1b2c
8002b7d8: be b2 00 0c  	jal	0x2caf8 <.text+0xcaf8>
8002b7dc: 00 00 00 00  	nop
8002b7e0: 80 00 c0 af  	sw	$zero, 0x80($fp)
8002b7e4: 0c ae 00 08  	j	0x2b830 <.text+0xb830>
8002b7e8: 00 00 00 00  	nop
8002b7ec: 44 00 c5 8f  	lw	$5, 0x44($fp)
8002b7f0: 48 00 c4 8f  	lw	$4, 0x48($fp)
8002b7f4: 59 b2 00 0c  	jal	0x2c964 <.text+0xc964>
8002b7f8: 00 00 00 00  	nop
8002b7fc: 25 20 40 00  	move	$4, $2
8002b800: 25 28 60 00  	move	$5, $3
8002b804: b6 b5 00 0c  	jal	0x2d6d8 <.text+0xd6d8>
8002b808: 00 00 00 00  	nop
8002b80c: 25 08 40 00  	move	$1, $2
8002b810: 70 00 c2 8f  	lw	$2, 0x70($fp)
8002b814: 21 08 41 00  	addu	$1, $2, $1
8002b818: 38 00 c1 af  	sw	$1, 0x38($fp)
8002b81c: 2b 08 22 00  	sltu	$1, $1, $2
8002b820: 11 00 20 14  	bnez	$1, 0x8002b868 <.text+0xb868>
8002b824: 00 00 00 00  	nop
8002b828: 12 ae 00 08  	j	0x2b848 <.text+0xb848>
8002b82c: 00 00 00 00  	nop
8002b830: 4c 00 c1 8f  	lw	$1, 0x4c($fp)
8002b834: 00 00 21 8c  	lw	$1, 0x0($1)
8002b838: 0f 00 20 10  	beqz	$1, 0x8002b878 <.text+0xb878>
8002b83c: 00 00 00 00  	nop
8002b840: 2e ae 00 08  	j	0x2b8b8 <.text+0xb8b8>
8002b844: 00 00 00 00  	nop
8002b848: 44 00 c1 8f  	lw	$1, 0x44($fp)
8002b84c: 48 00 c2 8f  	lw	$2, 0x48($fp)
8002b850: 38 00 c3 8f  	lw	$3, 0x38($fp)
8002b854: 70 00 c3 af  	sw	$3, 0x70($fp)
8002b858: 80 00 c2 af  	sw	$2, 0x80($fp)
8002b85c: 84 00 c1 af  	sw	$1, 0x84($fp)
8002b860: 0c ae 00 08  	j	0x2b830 <.text+0xb830>
8002b864: 00 00 00 00  	nop
8002b868: 03 80 01 3c  	lui	$1, 0x8003
8002b86c: 3c 1b 24 24  	addiu	$4, $1, 0x1b3c
8002b870: be b2 00 0c  	jal	0x2caf8 <.text+0xcaf8>
8002b874: 00 00 00 00  	nop
8002b878: 4c 00 c4 8f  	lw	$4, 0x4c($fp)
8002b87c: 74 00 c5 8f  	lw	$5, 0x74($fp)
8002b880: 80 00 c6 8f  	lw	$6, 0x80($fp)
8002b884: 84 00 c7 8f  	lw	$7, 0x84($fp)
8002b888: 77 af 00 0c  	jal	0x2bddc <.text+0xbddc>
8002b88c: 00 00 00 00  	nop
8002b890: 25 20 40 00  	move	$4, $2
8002b894: b2 bd 00 0c  	jal	0x2f6c8 <.text+0xf6c8>
8002b898: 00 00 00 00  	nop
8002b89c: 88 00 c2 a3  	sb	$2, 0x88($fp)
8002b8a0: 88 00 c1 93  	lbu	$1, 0x88($fp)
8002b8a4: 01 00 21 30  	andi	$1, $1, 0x1
8002b8a8: 0d 00 20 10  	beqz	$1, 0x8002b8e0 <.text+0xb8e0>
8002b8ac: 00 00 00 00  	nop
8002b8b0: 43 ae 00 08  	j	0x2b90c <.text+0xb90c>
8002b8b4: 00 00 00 00  	nop
8002b8b8: 4c 00 c2 8f  	lw	$2, 0x4c($fp)
8002b8bc: 04 00 41 24  	addiu	$1, $2, 0x4
8002b8c0: bc 00 c1 af  	sw	$1, 0xbc($fp)
8002b8c4: 70 00 c1 8f  	lw	$1, 0x70($fp)
8002b8c8: 04 00 42 8c  	lw	$2, 0x4($2)
8002b8cc: 2b 08 22 00  	sltu	$1, $1, $2
8002b8d0: 26 00 20 10  	beqz	$1, 0x8002b96c <.text+0xb96c>
8002b8d4: 00 00 00 00  	nop
8002b8d8: 52 ae 00 08  	j	0x2b948 <.text+0xb948>
8002b8dc: 00 00 00 00  	nop
8002b8e0: 50 00 c6 8f  	lw	$6, 0x50($fp)
8002b8e4: 54 00 c5 8f  	lw	$5, 0x54($fp)
8002b8e8: 4c 00 c1 8f  	lw	$1, 0x4c($fp)
8002b8ec: 14 00 24 8c  	lw	$4, 0x14($1)
8002b8f0: 18 00 21 8c  	lw	$1, 0x18($1)
8002b8f4: 0c 00 39 8c  	lw	$25, 0xc($1)
8002b8f8: 09 f8 20 03  	jalr	$25
8002b8fc: 00 00 00 00  	nop
8002b900: 6f 00 c2 a3  	sb	$2, 0x6f($fp)
8002b904: 4a ae 00 08  	j	0x2b928 <.text+0xb928>
8002b908: 00 00 00 00  	nop
8002b90c: 03 80 01 3c  	lui	$1, 0x8003
8002b910: 4c 1b 24 24  	addiu	$4, $1, 0x1b4c
8002b914: fb bd 00 0c  	jal	0x2f7ec <.text+0xf7ec>
8002b918: 00 00 00 00  	nop
8002b91c: 6f 00 c2 a3  	sb	$2, 0x6f($fp)
8002b920: 4a ae 00 08  	j	0x2b928 <.text+0xb928>
8002b924: 00 00 00 00  	nop
8002b928: 6f 00 c1 93  	lbu	$1, 0x6f($fp)
8002b92c: 01 00 22 30  	andi	$2, $1, 0x1
8002b930: 25 e8 c0 03  	move	$sp, $fp
8002b934: e8 00 be 8f  	lw	$fp, 0xe8($sp)
8002b938: ec 00 bf 8f  	lw	$ra, 0xec($sp)
8002b93c: f0 00 bd 27  	addiu	$sp, $sp, 0xf0
8002b940: 08 00 e0 03  	jr	$ra
8002b944: 00 00 00 00  	nop
8002b948: 4c 00 c4 8f  	lw	$4, 0x4c($fp)
8002b94c: 04 00 81 24  	addiu	$1, $4, 0x4
8002b950: c0 00 c1 af  	sw	$1, 0xc0($fp)
8002b954: 9f b1 00 0c  	jal	0x2c67c <.text+0xc67c>
8002b958: 00 00 00 00  	nop
8002b95c: 20 00 40 14  	bnez	$2, 0x8002b9e0 <.text+0xb9e0>
8002b960: 00 00 00 00  	nop
8002b964: 6d ae 00 08  	j	0x2b9b4 <.text+0xb9b4>
8002b968: 00 00 00 00  	nop
8002b96c: 4c 00 c4 8f  	lw	$4, 0x4c($fp)
8002b970: 04 00 81 8c  	lw	$1, 0x4($4)
8002b974: e4 00 c1 af  	sw	$1, 0xe4($fp)
8002b978: 74 00 c5 8f  	lw	$5, 0x74($fp)
8002b97c: 80 00 c6 8f  	lw	$6, 0x80($fp)
8002b980: 84 00 c7 8f  	lw	$7, 0x84($fp)
8002b984: 77 af 00 0c  	jal	0x2bddc <.text+0xbddc>
8002b988: 00 00 00 00  	nop
8002b98c: 25 20 40 00  	move	$4, $2
8002b990: b2 bd 00 0c  	jal	0x2f6c8 <.text+0xf6c8>
8002b994: 00 00 00 00  	nop
8002b998: 89 00 c2 a3  	sb	$2, 0x89($fp)
8002b99c: 89 00 c1 93  	lbu	$1, 0x89($fp)
8002b9a0: 01 00 21 30  	andi	$1, $1, 0x1
8002b9a4: fb 00 20 10  	beqz	$1, 0x8002bd94 <.text+0xbd94>
8002b9a8: 00 00 00 00  	nop
8002b9ac: 70 af 00 08  	j	0x2bdc0 <.text+0xbdc0>
8002b9b0: 00 00 00 00  	nop
8002b9b4: 4c 00 c1 8f  	lw	$1, 0x4c($fp)
8002b9b8: 04 00 21 8c  	lw	$1, 0x4($1)
8002b9bc: c4 00 c1 af  	sw	$1, 0xc4($fp)
8002b9c0: 70 00 c2 8f  	lw	$2, 0x70($fp)
8002b9c4: 23 18 22 00  	subu	$3, $1, $2
8002b9c8: 34 00 c3 af  	sw	$3, 0x34($fp)
8002b9cc: 2b 08 22 00  	sltu	$1, $1, $2
8002b9d0: 3b 00 20 14  	bnez	$1, 0x8002bac0 <.text+0xbac0>
8002b9d4: 00 00 00 00  	nop
8002b9d8: 9d ae 00 08  	j	0x2ba74 <.text+0xba74>
8002b9dc: 00 00 00 00  	nop
8002b9e0: 4c 00 c1 8f  	lw	$1, 0x4c($fp)
8002b9e4: 04 00 22 8c  	lw	$2, 0x4($1)
8002b9e8: 28 00 c2 af  	sw	$2, 0x28($fp)
8002b9ec: d0 00 c2 af  	sw	$2, 0xd0($fp)
8002b9f0: 10 00 24 24  	addiu	$4, $1, 0x10
8002b9f4: 30 00 05 24  	addiu	$5, $zero, 0x30
8002b9f8: 21 9e 00 0c  	jal	0x27884 <.text+0x7884>
8002b9fc: 00 00 00 00  	nop
8002ba00: 4c 00 c1 8f  	lw	$1, 0x4c($fp)
8002ba04: 25 18 40 00  	move	$3, $2
8002ba08: 2c 00 c3 af  	sw	$3, 0x2c($fp)
8002ba0c: d4 00 c2 af  	sw	$2, 0xd4($fp)
8002ba10: 20 00 24 24  	addiu	$4, $1, 0x20
8002ba14: 01 00 01 24  	addiu	$1, $zero, 0x1
8002ba18: 8a 00 c1 a3  	sb	$1, 0x8a($fp)
8002ba1c: 8a 00 c5 93  	lbu	$5, 0x8a($fp)
8002ba20: 0a 9e 00 0c  	jal	0x27828 <.text+0x7828>
8002ba24: 00 00 00 00  	nop
8002ba28: 4c 00 c4 8f  	lw	$4, 0x4c($fp)
8002ba2c: 25 08 40 00  	move	$1, $2
8002ba30: 30 00 c1 af  	sw	$1, 0x30($fp)
8002ba34: db 00 c2 a3  	sb	$2, 0xdb($fp)
8002ba38: 74 00 c5 8f  	lw	$5, 0x74($fp)
8002ba3c: 80 00 c6 8f  	lw	$6, 0x80($fp)
8002ba40: 84 00 c7 8f  	lw	$7, 0x84($fp)
8002ba44: 77 af 00 0c  	jal	0x2bddc <.text+0xbddc>
8002ba48: 00 00 00 00  	nop
8002ba4c: 25 20 40 00  	move	$4, $2
8002ba50: b2 bd 00 0c  	jal	0x2f6c8 <.text+0xf6c8>
8002ba54: 00 00 00 00  	nop
8002ba58: 8b 00 c2 a3  	sb	$2, 0x8b($fp)
8002ba5c: 8b 00 c1 93  	lbu	$1, 0x8b($fp)
8002ba60: 01 00 21 30  	andi	$1, $1, 0x1
8002ba64: 5f 00 20 10  	beqz	$1, 0x8002bbe4 <.text+0xbbe4>
8002ba68: 00 00 00 00  	nop
8002ba6c: 02 af 00 08  	j	0x2bc08 <.text+0xbc08>
8002ba70: 00 00 00 00  	nop
8002ba74: 34 00 c5 8f  	lw	$5, 0x34($fp)
8002ba78: 4c 00 c4 8f  	lw	$4, 0x4c($fp)
8002ba7c: 01 00 01 24  	addiu	$1, $zero, 0x1
8002ba80: a1 00 c1 a3  	sb	$1, 0xa1($fp)
8002ba84: a1 00 c6 93  	lbu	$6, 0xa1($fp)
8002ba88: a0 b0 00 0c  	jal	0x2c280 <.text+0xc280>
8002ba8c: 00 00 00 00  	nop
8002ba90: 25 20 40 00  	move	$4, $2
8002ba94: 25 28 60 00  	move	$5, $3
8002ba98: cd bd 00 0c  	jal	0x2f734 <.text+0xf734>
8002ba9c: 00 00 00 00  	nop
8002baa0: 98 00 c2 af  	sw	$2, 0x98($fp)
8002baa4: 9c 00 c3 af  	sw	$3, 0x9c($fp)
8002baa8: 98 00 c1 8f  	lw	$1, 0x98($fp)
8002baac: 11 00 02 3c  	lui	$2, 0x11
8002bab0: 07 00 22 14  	bne	$1, $2, 0x8002bad0 <.text+0xbad0>
8002bab4: 00 00 00 00  	nop
8002bab8: ca ae 00 08  	j	0x2bb28 <.text+0xbb28>
8002babc: 00 00 00 00  	nop
8002bac0: 03 80 01 3c  	lui	$1, 0x8003
8002bac4: 5c 1b 24 24  	addiu	$4, $1, 0x1b5c
8002bac8: ce b2 00 0c  	jal	0x2cb38 <.text+0xcb38>
8002bacc: 00 00 00 00  	nop
8002bad0: 4c 00 c4 8f  	lw	$4, 0x4c($fp)
8002bad4: 98 00 c2 8f  	lw	$2, 0x98($fp)
8002bad8: 20 00 c2 af  	sw	$2, 0x20($fp)
8002badc: 9c 00 c1 8f  	lw	$1, 0x9c($fp)
8002bae0: 24 00 c1 af  	sw	$1, 0x24($fp)
8002bae4: c8 00 c2 af  	sw	$2, 0xc8($fp)
8002bae8: cc 00 c1 af  	sw	$1, 0xcc($fp)
8002baec: 74 00 c5 8f  	lw	$5, 0x74($fp)
8002baf0: 80 00 c6 8f  	lw	$6, 0x80($fp)
8002baf4: 84 00 c7 8f  	lw	$7, 0x84($fp)
8002baf8: 77 af 00 0c  	jal	0x2bddc <.text+0xbddc>
8002bafc: 00 00 00 00  	nop
8002bb00: 25 20 40 00  	move	$4, $2
8002bb04: b2 bd 00 0c  	jal	0x2f6c8 <.text+0xf6c8>
8002bb08: 00 00 00 00  	nop
8002bb0c: a2 00 c2 a3  	sb	$2, 0xa2($fp)
8002bb10: a2 00 c1 93  	lbu	$1, 0xa2($fp)
8002bb14: 01 00 21 30  	andi	$1, $1, 0x1
8002bb18: 0a 00 20 10  	beqz	$1, 0x8002bb44 <.text+0xbb44>
8002bb1c: 00 00 00 00  	nop
8002bb20: e3 ae 00 08  	j	0x2bb8c <.text+0xbb8c>
8002bb24: 00 00 00 00  	nop
8002bb28: 03 80 01 3c  	lui	$1, 0x8003
8002bb2c: 8c 1b 24 24  	addiu	$4, $1, 0x1b8c
8002bb30: fb bd 00 0c  	jal	0x2f7ec <.text+0xf7ec>
8002bb34: 00 00 00 00  	nop
8002bb38: 6f 00 c2 a3  	sb	$2, 0x6f($fp)
8002bb3c: 4a ae 00 08  	j	0x2b928 <.text+0xb928>
8002bb40: 00 00 00 00  	nop
8002bb44: 50 00 c6 8f  	lw	$6, 0x50($fp)
8002bb48: 54 00 c5 8f  	lw	$5, 0x54($fp)
8002bb4c: 4c 00 c1 8f  	lw	$1, 0x4c($fp)
8002bb50: 14 00 24 8c  	lw	$4, 0x14($1)
8002bb54: 18 00 21 8c  	lw	$1, 0x18($1)
8002bb58: 0c 00 39 8c  	lw	$25, 0xc($1)
8002bb5c: 09 f8 20 03  	jalr	$25
8002bb60: 00 00 00 00  	nop
8002bb64: 25 20 40 00  	move	$4, $2
8002bb68: b2 bd 00 0c  	jal	0x2f6c8 <.text+0xf6c8>
8002bb6c: 00 00 00 00  	nop
8002bb70: a3 00 c2 a3  	sb	$2, 0xa3($fp)
8002bb74: a3 00 c1 93  	lbu	$1, 0xa3($fp)
8002bb78: 01 00 21 30  	andi	$1, $1, 0x1
8002bb7c: 0a 00 20 10  	beqz	$1, 0x8002bba8 <.text+0xbba8>
8002bb80: 00 00 00 00  	nop
8002bb84: f2 ae 00 08  	j	0x2bbc8 <.text+0xbbc8>
8002bb88: 00 00 00 00  	nop
8002bb8c: 03 80 01 3c  	lui	$1, 0x8003
8002bb90: 7c 1b 24 24  	addiu	$4, $1, 0x1b7c
8002bb94: fb bd 00 0c  	jal	0x2f7ec <.text+0xf7ec>
8002bb98: 00 00 00 00  	nop
8002bb9c: 6f 00 c2 a3  	sb	$2, 0x6f($fp)
8002bba0: 4a ae 00 08  	j	0x2b928 <.text+0xb928>
8002bba4: 00 00 00 00  	nop
8002bba8: 4c 00 c6 8f  	lw	$6, 0x4c($fp)
8002bbac: 24 00 c5 8f  	lw	$5, 0x24($fp)
8002bbb0: 20 00 c4 8f  	lw	$4, 0x20($fp)
8002bbb4: 65 ad 00 0c  	jal	0x2b594 <.text+0xb594>
8002bbb8: 00 00 00 00  	nop
8002bbbc: 6f 00 c2 a3  	sb	$2, 0x6f($fp)
8002bbc0: 4a ae 00 08  	j	0x2b928 <.text+0xb928>
8002bbc4: 00 00 00 00  	nop
8002bbc8: 03 80 01 3c  	lui	$1, 0x8003
8002bbcc: 6c 1b 24 24  	addiu	$4, $1, 0x1b6c
8002bbd0: fb bd 00 0c  	jal	0x2f7ec <.text+0xf7ec>
8002bbd4: 00 00 00 00  	nop
8002bbd8: 6f 00 c2 a3  	sb	$2, 0x6f($fp)
8002bbdc: 4a ae 00 08  	j	0x2b928 <.text+0xb928>
8002bbe0: 00 00 00 00  	nop
8002bbe4: 28 00 c1 8f  	lw	$1, 0x28($fp)
8002bbe8: 70 00 c2 8f  	lw	$2, 0x70($fp)
8002bbec: 23 18 22 00  	subu	$3, $1, $2
8002bbf0: 1c 00 c3 af  	sw	$3, 0x1c($fp)
8002bbf4: 2b 08 22 00  	sltu	$1, $1, $2
8002bbf8: 1d 00 20 14  	bnez	$1, 0x8002bc70 <.text+0xbc70>
8002bbfc: 00 00 00 00  	nop
8002bc00: 09 af 00 08  	j	0x2bc24 <.text+0xbc24>
8002bc04: 00 00 00 00  	nop
8002bc08: 03 80 01 3c  	lui	$1, 0x8003
8002bc0c: dc 1b 24 24  	addiu	$4, $1, 0x1bdc
8002bc10: fb bd 00 0c  	jal	0x2f7ec <.text+0xf7ec>
8002bc14: 00 00 00 00  	nop
8002bc18: 6f 00 c2 a3  	sb	$2, 0x6f($fp)
8002bc1c: 4a ae 00 08  	j	0x2b928 <.text+0xb928>
8002bc20: 00 00 00 00  	nop
8002bc24: 1c 00 c5 8f  	lw	$5, 0x1c($fp)
8002bc28: 4c 00 c4 8f  	lw	$4, 0x4c($fp)
8002bc2c: 01 00 01 24  	addiu	$1, $zero, 0x1
8002bc30: 95 00 c1 a3  	sb	$1, 0x95($fp)
8002bc34: 95 00 c6 93  	lbu	$6, 0x95($fp)
8002bc38: a0 b0 00 0c  	jal	0x2c280 <.text+0xc280>
8002bc3c: 00 00 00 00  	nop
8002bc40: 25 20 40 00  	move	$4, $2
8002bc44: 25 28 60 00  	move	$5, $3
8002bc48: cd bd 00 0c  	jal	0x2f734 <.text+0xf734>
8002bc4c: 00 00 00 00  	nop
8002bc50: 8c 00 c2 af  	sw	$2, 0x8c($fp)
8002bc54: 90 00 c3 af  	sw	$3, 0x90($fp)
8002bc58: 8c 00 c1 8f  	lw	$1, 0x8c($fp)
8002bc5c: 11 00 02 3c  	lui	$2, 0x11
8002bc60: 07 00 22 14  	bne	$1, $2, 0x8002bc80 <.text+0xbc80>
8002bc64: 00 00 00 00  	nop
8002bc68: 38 af 00 08  	j	0x2bce0 <.text+0xbce0>
8002bc6c: 00 00 00 00  	nop
8002bc70: 03 80 01 3c  	lui	$1, 0x8003
8002bc74: 9c 1b 24 24  	addiu	$4, $1, 0x1b9c
8002bc78: ce b2 00 0c  	jal	0x2cb38 <.text+0xcb38>
8002bc7c: 00 00 00 00  	nop
8002bc80: 50 00 c6 8f  	lw	$6, 0x50($fp)
8002bc84: 54 00 c5 8f  	lw	$5, 0x54($fp)
8002bc88: 4c 00 c1 8f  	lw	$1, 0x4c($fp)
8002bc8c: 8c 00 c3 8f  	lw	$3, 0x8c($fp)
8002bc90: 14 00 c3 af  	sw	$3, 0x14($fp)
8002bc94: 90 00 c2 8f  	lw	$2, 0x90($fp)
8002bc98: 18 00 c2 af  	sw	$2, 0x18($fp)
8002bc9c: dc 00 c3 af  	sw	$3, 0xdc($fp)
8002bca0: e0 00 c2 af  	sw	$2, 0xe0($fp)
8002bca4: 14 00 24 8c  	lw	$4, 0x14($1)
8002bca8: 18 00 21 8c  	lw	$1, 0x18($1)
8002bcac: 0c 00 39 8c  	lw	$25, 0xc($1)
8002bcb0: 09 f8 20 03  	jalr	$25
8002bcb4: 00 00 00 00  	nop
8002bcb8: 25 20 40 00  	move	$4, $2
8002bcbc: b2 bd 00 0c  	jal	0x2f6c8 <.text+0xf6c8>
8002bcc0: 00 00 00 00  	nop
8002bcc4: 96 00 c2 a3  	sb	$2, 0x96($fp)
8002bcc8: 96 00 c1 93  	lbu	$1, 0x96($fp)
8002bccc: 01 00 21 30  	andi	$1, $1, 0x1
8002bcd0: 0a 00 20 10  	beqz	$1, 0x8002bcfc <.text+0xbcfc>
8002bcd4: 00 00 00 00  	nop
8002bcd8: 4e af 00 08  	j	0x2bd38 <.text+0xbd38>
8002bcdc: 00 00 00 00  	nop
8002bce0: 03 80 01 3c  	lui	$1, 0x8003
8002bce4: cc 1b 24 24  	addiu	$4, $1, 0x1bcc
8002bce8: fb bd 00 0c  	jal	0x2f7ec <.text+0xf7ec>
8002bcec: 00 00 00 00  	nop
8002bcf0: 6f 00 c2 a3  	sb	$2, 0x6f($fp)
8002bcf4: 4a ae 00 08  	j	0x2b928 <.text+0xb928>
8002bcf8: 00 00 00 00  	nop
8002bcfc: 4c 00 c6 8f  	lw	$6, 0x4c($fp)
8002bd00: 18 00 c5 8f  	lw	$5, 0x18($fp)
8002bd04: 14 00 c4 8f  	lw	$4, 0x14($fp)
8002bd08: 65 ad 00 0c  	jal	0x2b594 <.text+0xb594>
8002bd0c: 00 00 00 00  	nop
8002bd10: 25 20 40 00  	move	$4, $2
8002bd14: b2 bd 00 0c  	jal	0x2f6c8 <.text+0xf6c8>
8002bd18: 00 00 00 00  	nop
8002bd1c: 97 00 c2 a3  	sb	$2, 0x97($fp)
8002bd20: 97 00 c1 93  	lbu	$1, 0x97($fp)
8002bd24: 01 00 21 30  	andi	$1, $1, 0x1
8002bd28: 0a 00 20 10  	beqz	$1, 0x8002bd54 <.text+0xbd54>
8002bd2c: 00 00 00 00  	nop
8002bd30: 5e af 00 08  	j	0x2bd78 <.text+0xbd78>
8002bd34: 00 00 00 00  	nop
8002bd38: 03 80 01 3c  	lui	$1, 0x8003
8002bd3c: bc 1b 24 24  	addiu	$4, $1, 0x1bbc
8002bd40: fb bd 00 0c  	jal	0x2f7ec <.text+0xf7ec>
8002bd44: 00 00 00 00  	nop
8002bd48: 6f 00 c2 a3  	sb	$2, 0x6f($fp)
8002bd4c: 4a ae 00 08  	j	0x2b928 <.text+0xb928>
8002bd50: 00 00 00 00  	nop
8002bd54: 30 00 c1 8f  	lw	$1, 0x30($fp)
8002bd58: 4c 00 c2 8f  	lw	$2, 0x4c($fp)
8002bd5c: 2c 00 c3 8f  	lw	$3, 0x2c($fp)
8002bd60: 10 00 43 ac  	sw	$3, 0x10($2)
8002bd64: 20 00 41 a0  	sb	$1, 0x20($2)
8002bd68: 00 00 01 24  	addiu	$1, $zero, 0x0
8002bd6c: 6f 00 c0 a3  	sb	$zero, 0x6f($fp)
8002bd70: 4a ae 00 08  	j	0x2b928 <.text+0xb928>
8002bd74: 00 00 00 00  	nop
8002bd78: 03 80 01 3c  	lui	$1, 0x8003
8002bd7c: ac 1b 24 24  	addiu	$4, $1, 0x1bac
8002bd80: fb bd 00 0c  	jal	0x2f7ec <.text+0xf7ec>
8002bd84: 00 00 00 00  	nop
8002bd88: 6f 00 c2 a3  	sb	$2, 0x6f($fp)
8002bd8c: 4a ae 00 08  	j	0x2b928 <.text+0xb928>
8002bd90: 00 00 00 00  	nop
8002bd94: 50 00 c6 8f  	lw	$6, 0x50($fp)
8002bd98: 54 00 c5 8f  	lw	$5, 0x54($fp)
8002bd9c: 4c 00 c1 8f  	lw	$1, 0x4c($fp)
8002bda0: 14 00 24 8c  	lw	$4, 0x14($1)
8002bda4: 18 00 21 8c  	lw	$1, 0x18($1)
8002bda8: 0c 00 39 8c  	lw	$25, 0xc($1)
8002bdac: 09 f8 20 03  	jalr	$25
8002bdb0: 00 00 00 00  	nop
8002bdb4: 6f 00 c2 a3  	sb	$2, 0x6f($fp)
8002bdb8: 4a ae 00 08  	j	0x2b928 <.text+0xb928>
8002bdbc: 00 00 00 00  	nop
8002bdc0: 03 80 01 3c  	lui	$1, 0x8003
8002bdc4: ec 1b 24 24  	addiu	$4, $1, 0x1bec
8002bdc8: fb bd 00 0c  	jal	0x2f7ec <.text+0xf7ec>
8002bdcc: 00 00 00 00  	nop
8002bdd0: 6f 00 c2 a3  	sb	$2, 0x6f($fp)
8002bdd4: 4a ae 00 08  	j	0x2b928 <.text+0xb928>
8002bdd8: 00 00 00 00  	nop
8002bddc: c0 ff bd 27  	addiu	$sp, $sp, -0x40
8002bde0: 3c 00 bf af  	sw	$ra, 0x3c($sp)
8002bde4: 38 00 be af  	sw	$fp, 0x38($sp)
8002bde8: 25 f0 a0 03  	move	$fp, $sp
8002bdec: 10 00 c4 af  	sw	$4, 0x10($fp)
8002bdf0: 18 00 c5 af  	sw	$5, 0x18($fp)
8002bdf4: 1c 00 c6 af  	sw	$6, 0x1c($fp)
8002bdf8: 20 00 c7 af  	sw	$7, 0x20($fp)
8002bdfc: 28 00 c4 af  	sw	$4, 0x28($fp)
8002be00: 18 00 c1 8f  	lw	$1, 0x18($fp)
8002be04: 11 00 02 3c  	lui	$2, 0x11
8002be08: 15 00 22 10  	beq	$1, $2, 0x8002be60 <.text+0xbe60>
8002be0c: 00 00 00 00  	nop
8002be10: 86 af 00 08  	j	0x2be18 <.text+0xbe18>
8002be14: 00 00 00 00  	nop
8002be18: 10 00 c1 8f  	lw	$1, 0x10($fp)
8002be1c: 18 00 c5 8f  	lw	$5, 0x18($fp)
8002be20: 2c 00 c5 af  	sw	$5, 0x2c($fp)
8002be24: 14 00 24 8c  	lw	$4, 0x14($1)
8002be28: 18 00 21 8c  	lw	$1, 0x18($1)
8002be2c: 10 00 39 8c  	lw	$25, 0x10($1)
8002be30: 09 f8 20 03  	jalr	$25
8002be34: 00 00 00 00  	nop
8002be38: 25 20 40 00  	move	$4, $2
8002be3c: b2 bd 00 0c  	jal	0x2f6c8 <.text+0xf6c8>
8002be40: 00 00 00 00  	nop
8002be44: 27 00 c2 a3  	sb	$2, 0x27($fp)
8002be48: 27 00 c1 93  	lbu	$1, 0x27($fp)
8002be4c: 01 00 21 30  	andi	$1, $1, 0x1
8002be50: 08 00 20 14  	bnez	$1, 0x8002be74 <.text+0xbe74>
8002be54: 00 00 00 00  	nop
8002be58: 98 af 00 08  	j	0x2be60 <.text+0xbe60>
8002be5c: 00 00 00 00  	nop
8002be60: 1c 00 c1 8f  	lw	$1, 0x1c($fp)
8002be64: 12 00 20 14  	bnez	$1, 0x8002beb0 <.text+0xbeb0>
8002be68: 00 00 00 00  	nop
8002be6c: b9 af 00 08  	j	0x2bee4 <.text+0xbee4>
8002be70: 00 00 00 00  	nop
8002be74: 03 80 01 3c  	lui	$1, 0x8003
8002be78: fc 1b 24 24  	addiu	$4, $1, 0x1bfc
8002be7c: fb bd 00 0c  	jal	0x2f7ec <.text+0xf7ec>
8002be80: 00 00 00 00  	nop
8002be84: 26 00 c2 a3  	sb	$2, 0x26($fp)
8002be88: a4 af 00 08  	j	0x2be90 <.text+0xbe90>
8002be8c: 00 00 00 00  	nop
8002be90: 26 00 c1 93  	lbu	$1, 0x26($fp)
8002be94: 01 00 22 30  	andi	$2, $1, 0x1
8002be98: 25 e8 c0 03  	move	$sp, $fp
8002be9c: 38 00 be 8f  	lw	$fp, 0x38($sp)
8002bea0: 3c 00 bf 8f  	lw	$ra, 0x3c($sp)
8002bea4: 40 00 bd 27  	addiu	$sp, $sp, 0x40
8002bea8: 08 00 e0 03  	jr	$ra
8002beac: 00 00 00 00  	nop
8002beb0: 10 00 c1 8f  	lw	$1, 0x10($fp)
8002beb4: 1c 00 c5 8f  	lw	$5, 0x1c($fp)
8002beb8: 20 00 c6 8f  	lw	$6, 0x20($fp)
8002bebc: 30 00 c5 af  	sw	$5, 0x30($fp)
8002bec0: 34 00 c6 af  	sw	$6, 0x34($fp)
8002bec4: 14 00 24 8c  	lw	$4, 0x14($1)
8002bec8: 18 00 21 8c  	lw	$1, 0x18($1)
8002becc: 0c 00 39 8c  	lw	$25, 0xc($1)
8002bed0: 09 f8 20 03  	jalr	$25
8002bed4: 00 00 00 00  	nop
8002bed8: 26 00 c2 a3  	sb	$2, 0x26($fp)
8002bedc: a4 af 00 08  	j	0x2be90 <.text+0xbe90>
8002bee0: 00 00 00 00  	nop
8002bee4: 00 00 01 24  	addiu	$1, $zero, 0x0
8002bee8: 26 00 c0 a3  	sb	$zero, 0x26($fp)
8002beec: a4 af 00 08  	j	0x2be90 <.text+0xbe90>
8002bef0: 00 00 00 00  	nop
8002bef4: 68 ff bd 27  	addiu	$sp, $sp, -0x98
8002bef8: 94 00 bf af  	sw	$ra, 0x94($sp)
8002befc: 90 00 be af  	sw	$fp, 0x90($sp)
8002bf00: 25 f0 a0 03  	move	$fp, $sp
8002bf04: 30 00 c4 af  	sw	$4, 0x30($fp)
8002bf08: 38 00 c5 af  	sw	$5, 0x38($fp)
8002bf0c: 3c 00 c6 af  	sw	$6, 0x3c($fp)
8002bf10: 74 00 c4 af  	sw	$4, 0x74($fp)
8002bf14: 9f bb 00 0c  	jal	0x2ee7c <.text+0xee7c>
8002bf18: 00 00 00 00  	nop
8002bf1c: 0a 00 40 14  	bnez	$2, 0x8002bf48 <.text+0xbf48>
8002bf20: 00 00 00 00  	nop
8002bf24: cb af 00 08  	j	0x2bf2c <.text+0xbf2c>
8002bf28: 00 00 00 00  	nop
8002bf2c: 30 00 c1 8f  	lw	$1, 0x30($fp)
8002bf30: 08 00 21 8c  	lw	$1, 0x8($1)
8002bf34: 01 00 02 24  	addiu	$2, $zero, 0x1
8002bf38: 16 00 22 10  	beq	$1, $2, 0x8002bf94 <.text+0xbf94>
8002bf3c: 00 00 00 00  	nop
8002bf40: fb af 00 08  	j	0x2bfec <.text+0xbfec>
8002bf44: 00 00 00 00  	nop
8002bf48: 30 00 c1 8f  	lw	$1, 0x30($fp)
8002bf4c: 08 00 24 24  	addiu	$4, $1, 0x8
8002bf50: 9f bb 00 0c  	jal	0x2ee7c <.text+0xee7c>
8002bf54: 00 00 00 00  	nop
8002bf58: f4 ff 40 10  	beqz	$2, 0x8002bf2c <.text+0xbf2c>
8002bf5c: 00 00 00 00  	nop
8002bf60: da af 00 08  	j	0x2bf68 <.text+0xbf68>
8002bf64: 00 00 00 00  	nop
8002bf68: 30 00 c1 8f  	lw	$1, 0x30($fp)
8002bf6c: 14 00 24 8c  	lw	$4, 0x14($1)
8002bf70: 18 00 21 8c  	lw	$1, 0x18($1)
8002bf74: 38 00 c5 8f  	lw	$5, 0x38($fp)
8002bf78: 3c 00 c6 8f  	lw	$6, 0x3c($fp)
8002bf7c: 0c 00 39 8c  	lw	$25, 0xc($1)
8002bf80: 09 f8 20 03  	jalr	$25
8002bf84: 00 00 00 00  	nop
8002bf88: 43 00 c2 a3  	sb	$2, 0x43($fp)
8002bf8c: 3f b0 00 08  	j	0x2c0fc <.text+0xc0fc>
8002bf90: 00 00 00 00  	nop
8002bf94: 30 00 c1 8f  	lw	$1, 0x30($fp)
8002bf98: 0c 00 21 8c  	lw	$1, 0xc($1)
8002bf9c: 2c 00 c1 af  	sw	$1, 0x2c($fp)
8002bfa0: 78 00 c1 af  	sw	$1, 0x78($fp)
8002bfa4: 38 00 c5 8f  	lw	$5, 0x38($fp)
8002bfa8: 3c 00 c6 8f  	lw	$6, 0x3c($fp)
8002bfac: 54 00 c4 27  	addiu	$4, $fp, 0x54
8002bfb0: 28 00 c4 af  	sw	$4, 0x28($fp)
8002bfb4: 6d b2 00 0c  	jal	0x2c9b4 <.text+0xc9b4>
8002bfb8: 00 00 00 00  	nop
8002bfbc: 28 00 c4 8f  	lw	$4, 0x28($fp)
8002bfc0: 2c 00 c5 8f  	lw	$5, 0x2c($fp)
8002bfc4: cb b4 00 0c  	jal	0x2d32c <.text+0xd32c>
8002bfc8: 00 00 00 00  	nop
8002bfcc: 4c 00 c2 af  	sw	$2, 0x4c($fp)
8002bfd0: 50 00 c3 af  	sw	$3, 0x50($fp)
8002bfd4: 50 00 c1 8f  	lw	$1, 0x50($fp)
8002bfd8: 11 00 02 3c  	lui	$2, 0x11
8002bfdc: 09 00 22 14  	bne	$1, $2, 0x8002c004 <.text+0xc004>
8002bfe0: 00 00 00 00  	nop
8002bfe4: 13 b0 00 08  	j	0x2c04c <.text+0xc04c>
8002bfe8: 00 00 00 00  	nop
8002bfec: 38 00 c2 8f  	lw	$2, 0x38($fp)
8002bff0: 3c 00 c1 8f  	lw	$1, 0x3c($fp)
8002bff4: 44 00 c2 af  	sw	$2, 0x44($fp)
8002bff8: 48 00 c1 af  	sw	$1, 0x48($fp)
8002bffc: 19 b0 00 08  	j	0x2c064 <.text+0xc064>
8002c000: 00 00 00 00  	nop
8002c004: 4c 00 c1 8f  	lw	$1, 0x4c($fp)
8002c008: 7c 00 c1 af  	sw	$1, 0x7c($fp)
8002c00c: 38 00 c4 8f  	lw	$4, 0x38($fp)
8002c010: 3c 00 c5 8f  	lw	$5, 0x3c($fp)
8002c014: 60 00 c1 af  	sw	$1, 0x60($fp)
8002c018: 60 00 c6 8f  	lw	$6, 0x60($fp)
8002c01c: 46 b2 00 0c  	jal	0x2c918 <.text+0xc918>
8002c020: 00 00 00 00  	nop
8002c024: 25 20 40 00  	move	$4, $2
8002c028: 25 28 60 00  	move	$5, $3
8002c02c: 38 00 c6 8f  	lw	$6, 0x38($fp)
8002c030: 3c 00 c7 8f  	lw	$7, 0x3c($fp)
8002c034: bb bb 00 0c  	jal	0x2eeec <.text+0xeeec>
8002c038: 00 00 00 00  	nop
8002c03c: 44 00 c2 af  	sw	$2, 0x44($fp)
8002c040: 48 00 c3 af  	sw	$3, 0x48($fp)
8002c044: 19 b0 00 08  	j	0x2c064 <.text+0xc064>
8002c048: 00 00 00 00  	nop
8002c04c: 38 00 c2 8f  	lw	$2, 0x38($fp)
8002c050: 3c 00 c1 8f  	lw	$1, 0x3c($fp)
8002c054: 44 00 c2 af  	sw	$2, 0x44($fp)
8002c058: 48 00 c1 af  	sw	$1, 0x48($fp)
8002c05c: 19 b0 00 08  	j	0x2c064 <.text+0xc064>
8002c060: 00 00 00 00  	nop
8002c064: 30 00 c1 8f  	lw	$1, 0x30($fp)
8002c068: 00 00 21 8c  	lw	$1, 0x0($1)
8002c06c: 0e 00 20 14  	bnez	$1, 0x8002c0a8 <.text+0xc0a8>
8002c070: 00 00 00 00  	nop
8002c074: 1f b0 00 08  	j	0x2c07c <.text+0xc07c>
8002c078: 00 00 00 00  	nop
8002c07c: 30 00 c1 8f  	lw	$1, 0x30($fp)
8002c080: 14 00 24 8c  	lw	$4, 0x14($1)
8002c084: 18 00 21 8c  	lw	$1, 0x18($1)
8002c088: 44 00 c5 8f  	lw	$5, 0x44($fp)
8002c08c: 48 00 c6 8f  	lw	$6, 0x48($fp)
8002c090: 0c 00 39 8c  	lw	$25, 0xc($1)
8002c094: 09 f8 20 03  	jalr	$25
8002c098: 00 00 00 00  	nop
8002c09c: 43 00 c2 a3  	sb	$2, 0x43($fp)
8002c0a0: 3f b0 00 08  	j	0x2c0fc <.text+0xc0fc>
8002c0a4: 00 00 00 00  	nop
8002c0a8: 30 00 c1 8f  	lw	$1, 0x30($fp)
8002c0ac: 04 00 21 8c  	lw	$1, 0x4($1)
8002c0b0: 20 00 c1 af  	sw	$1, 0x20($fp)
8002c0b4: 80 00 c1 af  	sw	$1, 0x80($fp)
8002c0b8: 44 00 c4 8f  	lw	$4, 0x44($fp)
8002c0bc: 48 00 c5 8f  	lw	$5, 0x48($fp)
8002c0c0: 59 b2 00 0c  	jal	0x2c964 <.text+0xc964>
8002c0c4: 00 00 00 00  	nop
8002c0c8: 25 20 40 00  	move	$4, $2
8002c0cc: 25 28 60 00  	move	$5, $3
8002c0d0: b6 b5 00 0c  	jal	0x2d6d8 <.text+0xd6d8>
8002c0d4: 00 00 00 00  	nop
8002c0d8: 20 00 c1 8f  	lw	$1, 0x20($fp)
8002c0dc: 25 18 40 00  	move	$3, $2
8002c0e0: 24 00 c3 af  	sw	$3, 0x24($fp)
8002c0e4: 84 00 c2 af  	sw	$2, 0x84($fp)
8002c0e8: 2b 08 41 00  	sltu	$1, $2, $1
8002c0ec: 16 00 20 10  	beqz	$1, 0x8002c148 <.text+0xc148>
8002c0f0: 00 00 00 00  	nop
8002c0f4: 47 b0 00 08  	j	0x2c11c <.text+0xc11c>
8002c0f8: 00 00 00 00  	nop
8002c0fc: 43 00 c1 93  	lbu	$1, 0x43($fp)
8002c100: 01 00 22 30  	andi	$2, $1, 0x1
8002c104: 25 e8 c0 03  	move	$sp, $fp
8002c108: 90 00 be 8f  	lw	$fp, 0x90($sp)
8002c10c: 94 00 bf 8f  	lw	$ra, 0x94($sp)
8002c110: 98 00 bd 27  	addiu	$sp, $sp, 0x98
8002c114: 08 00 e0 03  	jr	$ra
8002c118: 00 00 00 00  	nop
8002c11c: 20 00 c1 8f  	lw	$1, 0x20($fp)
8002c120: 24 00 c2 8f  	lw	$2, 0x24($fp)
8002c124: 00 00 03 24  	addiu	$3, $zero, 0x0
8002c128: 67 00 c0 a3  	sb	$zero, 0x67($fp)
8002c12c: 23 18 22 00  	subu	$3, $1, $2
8002c130: 1c 00 c3 af  	sw	$3, 0x1c($fp)
8002c134: 2b 08 22 00  	sltu	$1, $1, $2
8002c138: 1f 00 20 14  	bnez	$1, 0x8002c1b8 <.text+0xc1b8>
8002c13c: 00 00 00 00  	nop
8002c140: 5d b0 00 08  	j	0x2c174 <.text+0xc174>
8002c144: 00 00 00 00  	nop
8002c148: 30 00 c1 8f  	lw	$1, 0x30($fp)
8002c14c: 14 00 24 8c  	lw	$4, 0x14($1)
8002c150: 18 00 21 8c  	lw	$1, 0x18($1)
8002c154: 44 00 c5 8f  	lw	$5, 0x44($fp)
8002c158: 48 00 c6 8f  	lw	$6, 0x48($fp)
8002c15c: 0c 00 39 8c  	lw	$25, 0xc($1)
8002c160: 09 f8 20 03  	jalr	$25
8002c164: 00 00 00 00  	nop
8002c168: 43 00 c2 a3  	sb	$2, 0x43($fp)
8002c16c: 3f b0 00 08  	j	0x2c0fc <.text+0xc0fc>
8002c170: 00 00 00 00  	nop
8002c174: 1c 00 c5 8f  	lw	$5, 0x1c($fp)
8002c178: 30 00 c4 8f  	lw	$4, 0x30($fp)
8002c17c: 67 00 c6 93  	lbu	$6, 0x67($fp)
8002c180: a0 b0 00 0c  	jal	0x2c280 <.text+0xc280>
8002c184: 00 00 00 00  	nop
8002c188: 25 20 40 00  	move	$4, $2
8002c18c: 25 28 60 00  	move	$5, $3
8002c190: cd bd 00 0c  	jal	0x2f734 <.text+0xf734>
8002c194: 00 00 00 00  	nop
8002c198: 68 00 c2 af  	sw	$2, 0x68($fp)
8002c19c: 6c 00 c3 af  	sw	$3, 0x6c($fp)
8002c1a0: 68 00 c1 8f  	lw	$1, 0x68($fp)
8002c1a4: 11 00 02 3c  	lui	$2, 0x11
8002c1a8: 07 00 22 14  	bne	$1, $2, 0x8002c1c8 <.text+0xc1c8>
8002c1ac: 00 00 00 00  	nop
8002c1b0: 8a b0 00 08  	j	0x2c228 <.text+0xc228>
8002c1b4: 00 00 00 00  	nop
8002c1b8: 03 80 01 3c  	lui	$1, 0x8003
8002c1bc: 0c 1c 24 24  	addiu	$4, $1, 0x1c0c
8002c1c0: ce b2 00 0c  	jal	0x2cb38 <.text+0xcb38>
8002c1c4: 00 00 00 00  	nop
8002c1c8: 30 00 c1 8f  	lw	$1, 0x30($fp)
8002c1cc: 68 00 c3 8f  	lw	$3, 0x68($fp)
8002c1d0: 14 00 c3 af  	sw	$3, 0x14($fp)
8002c1d4: 6c 00 c2 8f  	lw	$2, 0x6c($fp)
8002c1d8: 18 00 c2 af  	sw	$2, 0x18($fp)
8002c1dc: 88 00 c3 af  	sw	$3, 0x88($fp)
8002c1e0: 8c 00 c2 af  	sw	$2, 0x8c($fp)
8002c1e4: 14 00 24 8c  	lw	$4, 0x14($1)
8002c1e8: 18 00 21 8c  	lw	$1, 0x18($1)
8002c1ec: 44 00 c5 8f  	lw	$5, 0x44($fp)
8002c1f0: 48 00 c6 8f  	lw	$6, 0x48($fp)
8002c1f4: 0c 00 39 8c  	lw	$25, 0xc($1)
8002c1f8: 09 f8 20 03  	jalr	$25
8002c1fc: 00 00 00 00  	nop
8002c200: 25 20 40 00  	move	$4, $2
8002c204: b2 bd 00 0c  	jal	0x2f6c8 <.text+0xf6c8>
8002c208: 00 00 00 00  	nop
8002c20c: 73 00 c2 a3  	sb	$2, 0x73($fp)
8002c210: 73 00 c1 93  	lbu	$1, 0x73($fp)
8002c214: 01 00 21 30  	andi	$1, $1, 0x1
8002c218: 0a 00 20 10  	beqz	$1, 0x8002c244 <.text+0xc244>
8002c21c: 00 00 00 00  	nop
8002c220: 99 b0 00 08  	j	0x2c264 <.text+0xc264>
8002c224: 00 00 00 00  	nop
8002c228: 03 80 01 3c  	lui	$1, 0x8003
8002c22c: 2c 1c 24 24  	addiu	$4, $1, 0x1c2c
8002c230: fb bd 00 0c  	jal	0x2f7ec <.text+0xf7ec>
8002c234: 00 00 00 00  	nop
8002c238: 43 00 c2 a3  	sb	$2, 0x43($fp)
8002c23c: 3f b0 00 08  	j	0x2c0fc <.text+0xc0fc>
8002c240: 00 00 00 00  	nop
8002c244: 30 00 c6 8f  	lw	$6, 0x30($fp)
8002c248: 18 00 c5 8f  	lw	$5, 0x18($fp)
8002c24c: 14 00 c4 8f  	lw	$4, 0x14($fp)
8002c250: 65 ad 00 0c  	jal	0x2b594 <.text+0xb594>
8002c254: 00 00 00 00  	nop
8002c258: 43 00 c2 a3  	sb	$2, 0x43($fp)
8002c25c: 3f b0 00 08  	j	0x2c0fc <.text+0xc0fc>
8002c260: 00 00 00 00  	nop
8002c264: 03 80 01 3c  	lui	$1, 0x8003
8002c268: 1c 1c 24 24  	addiu	$4, $1, 0x1c1c
8002c26c: fb bd 00 0c  	jal	0x2f7ec <.text+0xf7ec>
8002c270: 00 00 00 00  	nop
8002c274: 43 00 c2 a3  	sb	$2, 0x43($fp)
8002c278: 3f b0 00 08  	j	0x2c0fc <.text+0xc0fc>
8002c27c: 00 00 00 00  	nop
8002c280: 80 ff bd 27  	addiu	$sp, $sp, -0x80
8002c284: 7c 00 bf af  	sw	$ra, 0x7c($sp)
8002c288: 78 00 be af  	sw	$fp, 0x78($sp)
8002c28c: 25 f0 a0 03  	move	$fp, $sp
8002c290: 20 00 c5 af  	sw	$5, 0x20($fp)
8002c294: 24 00 c4 af  	sw	$4, 0x24($fp)
8002c298: 25 08 c0 00  	move	$1, $6
8002c29c: 28 00 c1 af  	sw	$1, 0x28($fp)
8002c2a0: 64 00 c4 af  	sw	$4, 0x64($fp)
8002c2a4: 68 00 c5 af  	sw	$5, 0x68($fp)
8002c2a8: 6f 00 c6 a3  	sb	$6, 0x6f($fp)
8002c2ac: 20 00 81 90  	lbu	$1, 0x20($4)
8002c2b0: 2c 00 c1 af  	sw	$1, 0x2c($fp)
8002c2b4: 2c 00 c1 8f  	lw	$1, 0x2c($fp)
8002c2b8: 80 08 01 00  	sll	$1, $1, 0x2
8002c2bc: 03 80 02 3c  	lui	$2, 0x8003
8002c2c0: 21 08 22 00  	addu	$1, $1, $2
8002c2c4: c0 18 21 8c  	lw	$1, 0x18c0($1)
8002c2c8: 08 00 20 00  	jr	$1
8002c2cc: 00 00 00 00  	nop
8002c2d0: 0d 00 00 00  	break
8002c2d4: 00 00 01 24  	addiu	$1, $zero, 0x0
8002c2d8: 3f 00 c0 a3  	sb	$zero, 0x3f($fp)
8002c2dc: c5 b0 00 08  	j	0x2c314 <.text+0xc314>
8002c2e0: 00 00 00 00  	nop
8002c2e4: 01 00 01 24  	addiu	$1, $zero, 0x1
8002c2e8: 3f 00 c1 a3  	sb	$1, 0x3f($fp)
8002c2ec: c5 b0 00 08  	j	0x2c314 <.text+0xc314>
8002c2f0: 00 00 00 00  	nop
8002c2f4: 02 00 01 24  	addiu	$1, $zero, 0x2
8002c2f8: 3f 00 c1 a3  	sb	$1, 0x3f($fp)
8002c2fc: c5 b0 00 08  	j	0x2c314 <.text+0xc314>
8002c300: 00 00 00 00  	nop
8002c304: 28 00 c1 8f  	lw	$1, 0x28($fp)
8002c308: 3f 00 c1 a3  	sb	$1, 0x3f($fp)
8002c30c: c5 b0 00 08  	j	0x2c314 <.text+0xc314>
8002c310: 00 00 00 00  	nop
8002c314: 3f 00 c1 93  	lbu	$1, 0x3f($fp)
8002c318: 1c 00 c1 af  	sw	$1, 0x1c($fp)
8002c31c: 0b 00 20 10  	beqz	$1, 0x8002c34c <.text+0xc34c>
8002c320: 00 00 00 00  	nop
8002c324: cb b0 00 08  	j	0x2c32c <.text+0xc32c>
8002c328: 00 00 00 00  	nop
8002c32c: 1c 00 c1 8f  	lw	$1, 0x1c($fp)
8002c330: 01 00 02 24  	addiu	$2, $zero, 0x1
8002c334: 0a 00 22 10  	beq	$1, $2, 0x8002c360 <.text+0xc360>
8002c338: 00 00 00 00  	nop
8002c33c: d1 b0 00 08  	j	0x2c344 <.text+0xc344>
8002c340: 00 00 00 00  	nop
8002c344: dd b0 00 08  	j	0x2c374 <.text+0xc374>
8002c348: 00 00 00 00  	nop
8002c34c: 20 00 c1 8f  	lw	$1, 0x20($fp)
8002c350: 40 00 c0 af  	sw	$zero, 0x40($fp)
8002c354: 44 00 c1 af  	sw	$1, 0x44($fp)
8002c358: e6 b0 00 08  	j	0x2c398 <.text+0xc398>
8002c35c: 00 00 00 00  	nop
8002c360: 20 00 c1 8f  	lw	$1, 0x20($fp)
8002c364: 40 00 c1 af  	sw	$1, 0x40($fp)
8002c368: 44 00 c0 af  	sw	$zero, 0x44($fp)
8002c36c: e6 b0 00 08  	j	0x2c398 <.text+0xc398>
8002c370: 00 00 00 00  	nop
8002c374: 20 00 c1 8f  	lw	$1, 0x20($fp)
8002c378: 42 10 01 00  	srl	$2, $1, 0x1
8002c37c: 14 00 c2 af  	sw	$2, 0x14($fp)
8002c380: 01 00 21 24  	addiu	$1, $1, 0x1
8002c384: 18 00 c1 af  	sw	$1, 0x18($fp)
8002c388: 19 00 20 10  	beqz	$1, 0x8002c3f0 <.text+0xc3f0>
8002c38c: 00 00 00 00  	nop
8002c390: f5 b0 00 08  	j	0x2c3d4 <.text+0xc3d4>
8002c394: 00 00 00 00  	nop
8002c398: 40 00 c1 8f  	lw	$1, 0x40($fp)
8002c39c: 70 00 c1 af  	sw	$1, 0x70($fp)
8002c3a0: 44 00 c2 8f  	lw	$2, 0x44($fp)
8002c3a4: 10 00 c2 af  	sw	$2, 0x10($fp)
8002c3a8: 74 00 c2 af  	sw	$2, 0x74($fp)
8002c3ac: 48 00 c0 af  	sw	$zero, 0x48($fp)
8002c3b0: 4c 00 c1 af  	sw	$1, 0x4c($fp)
8002c3b4: 48 00 c4 8f  	lw	$4, 0x48($fp)
8002c3b8: 4c 00 c5 8f  	lw	$5, 0x4c($fp)
8002c3bc: a9 b6 00 0c  	jal	0x2daa4 <.text+0xdaa4>
8002c3c0: 00 00 00 00  	nop
8002c3c4: 50 00 c2 af  	sw	$2, 0x50($fp)
8002c3c8: 54 00 c3 af  	sw	$3, 0x54($fp)
8002c3cc: 00 b1 00 08  	j	0x2c400 <.text+0xc400>
8002c3d0: 00 00 00 00  	nop
8002c3d4: 14 00 c2 8f  	lw	$2, 0x14($fp)
8002c3d8: 18 00 c1 8f  	lw	$1, 0x18($fp)
8002c3dc: 42 08 01 00  	srl	$1, $1, 0x1
8002c3e0: 40 00 c2 af  	sw	$2, 0x40($fp)
8002c3e4: 44 00 c1 af  	sw	$1, 0x44($fp)
8002c3e8: e6 b0 00 08  	j	0x2c398 <.text+0xc398>
8002c3ec: 00 00 00 00  	nop
8002c3f0: 03 80 01 3c  	lui	$1, 0x8003
8002c3f4: 3c 1c 24 24  	addiu	$4, $1, 0x1c3c
8002c3f8: be b2 00 0c  	jal	0x2caf8 <.text+0xcaf8>
8002c3fc: 00 00 00 00  	nop
8002c400: 50 00 c4 27  	addiu	$4, $fp, 0x50
8002c404: 9c b6 00 0c  	jal	0x2da70 <.text+0xda70>
8002c408: 00 00 00 00  	nop
8002c40c: 58 00 c2 af  	sw	$2, 0x58($fp)
8002c410: 5c 00 c3 af  	sw	$3, 0x5c($fp)
8002c414: 58 00 c1 8f  	lw	$1, 0x58($fp)
8002c418: 0c 00 20 14  	bnez	$1, 0x8002c44c <.text+0xc44c>
8002c41c: 00 00 00 00  	nop
8002c420: 0a b1 00 08  	j	0x2c428 <.text+0xc428>
8002c424: 00 00 00 00  	nop
8002c428: 10 00 c5 8f  	lw	$5, 0x10($fp)
8002c42c: 24 00 c1 8f  	lw	$1, 0x24($fp)
8002c430: 10 00 24 8c  	lw	$4, 0x10($1)
8002c434: 55 ad 00 0c  	jal	0x2b554 <.text+0xb554>
8002c438: 00 00 00 00  	nop
8002c43c: 34 00 c2 af  	sw	$2, 0x34($fp)
8002c440: 38 00 c3 af  	sw	$3, 0x38($fp)
8002c444: 24 b1 00 08  	j	0x2c490 <.text+0xc490>
8002c448: 00 00 00 00  	nop
8002c44c: 24 00 c2 8f  	lw	$2, 0x24($fp)
8002c450: 14 00 44 8c  	lw	$4, 0x14($2)
8002c454: 18 00 41 8c  	lw	$1, 0x18($2)
8002c458: 10 00 45 8c  	lw	$5, 0x10($2)
8002c45c: 10 00 39 8c  	lw	$25, 0x10($1)
8002c460: 09 f8 20 03  	jalr	$25
8002c464: 00 00 00 00  	nop
8002c468: 25 20 40 00  	move	$4, $2
8002c46c: b2 bd 00 0c  	jal	0x2f6c8 <.text+0xf6c8>
8002c470: 00 00 00 00  	nop
8002c474: 63 00 c2 a3  	sb	$2, 0x63($fp)
8002c478: 63 00 c1 93  	lbu	$1, 0x63($fp)
8002c47c: 01 00 21 30  	andi	$1, $1, 0x1
8002c480: df ff 20 10  	beqz	$1, 0x8002c400 <.text+0xc400>
8002c484: 00 00 00 00  	nop
8002c488: 2c b1 00 08  	j	0x2c4b0 <.text+0xc4b0>
8002c48c: 00 00 00 00  	nop
8002c490: 34 00 c2 8f  	lw	$2, 0x34($fp)
8002c494: 38 00 c3 8f  	lw	$3, 0x38($fp)
8002c498: 25 e8 c0 03  	move	$sp, $fp
8002c49c: 78 00 be 8f  	lw	$fp, 0x78($sp)
8002c4a0: 7c 00 bf 8f  	lw	$ra, 0x7c($sp)
8002c4a4: 80 00 bd 27  	addiu	$sp, $sp, 0x80
8002c4a8: 08 00 e0 03  	jr	$ra
8002c4ac: 00 00 00 00  	nop
8002c4b0: 03 80 01 3c  	lui	$1, 0x8003
8002c4b4: 4c 1c 24 24  	addiu	$4, $1, 0x1c4c
8002c4b8: ed bd 00 0c  	jal	0x2f7b4 <.text+0xf7b4>
8002c4bc: 00 00 00 00  	nop
8002c4c0: 34 00 c2 af  	sw	$2, 0x34($fp)
8002c4c4: 38 00 c3 af  	sw	$3, 0x38($fp)
8002c4c8: 24 b1 00 08  	j	0x2c490 <.text+0xc490>
8002c4cc: 00 00 00 00  	nop
8002c4d0: d8 ff bd 27  	addiu	$sp, $sp, -0x28
8002c4d4: 24 00 bf af  	sw	$ra, 0x24($sp)
8002c4d8: 20 00 be af  	sw	$fp, 0x20($sp)
8002c4dc: 25 f0 a0 03  	move	$fp, $sp
8002c4e0: 25 08 80 00  	move	$1, $4
8002c4e4: 14 00 c1 af  	sw	$1, 0x14($fp)
8002c4e8: 18 00 c5 af  	sw	$5, 0x18($fp)
8002c4ec: 1c 00 c6 af  	sw	$6, 0x1c($fp)
8002c4f0: 14 00 24 8c  	lw	$4, 0x14($1)
8002c4f4: 18 00 21 8c  	lw	$1, 0x18($1)
8002c4f8: 0c 00 39 8c  	lw	$25, 0xc($1)
8002c4fc: 09 f8 20 03  	jalr	$25
8002c500: 00 00 00 00  	nop
8002c504: 25 e8 c0 03  	move	$sp, $fp
8002c508: 20 00 be 8f  	lw	$fp, 0x20($sp)
8002c50c: 24 00 bf 8f  	lw	$ra, 0x24($sp)
8002c510: 28 00 bd 27  	addiu	$sp, $sp, 0x28
8002c514: 08 00 e0 03  	jr	$ra
8002c518: 00 00 00 00  	nop
8002c51c: b0 ff bd 27  	addiu	$sp, $sp, -0x50
8002c520: 4c 00 bf af  	sw	$ra, 0x4c($sp)
8002c524: 48 00 be af  	sw	$fp, 0x48($sp)
8002c528: 25 f0 a0 03  	move	$fp, $sp
8002c52c: 10 00 c5 af  	sw	$5, 0x10($fp)
8002c530: 25 08 80 00  	move	$1, $4
8002c534: 10 00 c4 8f  	lw	$4, 0x10($fp)
8002c538: 14 00 c1 af  	sw	$1, 0x14($fp)
8002c53c: 3c 00 c1 af  	sw	$1, 0x3c($fp)
8002c540: 53 ab 00 0c  	jal	0x2ad4c <.text+0xad4c>
8002c544: 00 00 00 00  	nop
8002c548: 1c 00 c2 af  	sw	$2, 0x1c($fp)
8002c54c: 20 00 c3 af  	sw	$3, 0x20($fp)
8002c550: 1c 00 c1 8f  	lw	$1, 0x1c($fp)
8002c554: 10 00 20 10  	beqz	$1, 0x8002c598 <.text+0xc598>
8002c558: 00 00 00 00  	nop
8002c55c: 59 b1 00 08  	j	0x2c564 <.text+0xc564>
8002c560: 00 00 00 00  	nop
8002c564: 14 00 c1 8f  	lw	$1, 0x14($fp)
8002c568: 1c 00 c5 8f  	lw	$5, 0x1c($fp)
8002c56c: 20 00 c6 8f  	lw	$6, 0x20($fp)
8002c570: 40 00 c5 af  	sw	$5, 0x40($fp)
8002c574: 44 00 c6 af  	sw	$6, 0x44($fp)
8002c578: 14 00 24 8c  	lw	$4, 0x14($1)
8002c57c: 18 00 21 8c  	lw	$1, 0x18($1)
8002c580: 0c 00 39 8c  	lw	$25, 0xc($1)
8002c584: 09 f8 20 03  	jalr	$25
8002c588: 00 00 00 00  	nop
8002c58c: 1b 00 c2 a3  	sb	$2, 0x1b($fp)
8002c590: 7c b1 00 08  	j	0x2c5f0 <.text+0xc5f0>
8002c594: 00 00 00 00  	nop
8002c598: 10 00 c1 8f  	lw	$1, 0x10($fp)
8002c59c: 14 00 c2 8f  	lw	$2, 0x14($fp)
8002c5a0: 14 00 44 8c  	lw	$4, 0x14($2)
8002c5a4: 18 00 45 8c  	lw	$5, 0x18($2)
8002c5a8: 14 00 22 8c  	lw	$2, 0x14($1)
8002c5ac: 38 00 c2 af  	sw	$2, 0x38($fp)
8002c5b0: 10 00 22 8c  	lw	$2, 0x10($1)
8002c5b4: 34 00 c2 af  	sw	$2, 0x34($fp)
8002c5b8: 0c 00 22 8c  	lw	$2, 0xc($1)
8002c5bc: 30 00 c2 af  	sw	$2, 0x30($fp)
8002c5c0: 08 00 22 8c  	lw	$2, 0x8($1)
8002c5c4: 2c 00 c2 af  	sw	$2, 0x2c($fp)
8002c5c8: 04 00 22 8c  	lw	$2, 0x4($1)
8002c5cc: 28 00 c2 af  	sw	$2, 0x28($fp)
8002c5d0: 00 00 21 8c  	lw	$1, 0x0($1)
8002c5d4: 24 00 c1 af  	sw	$1, 0x24($fp)
8002c5d8: 24 00 c6 27  	addiu	$6, $fp, 0x24
8002c5dc: 78 ab 00 0c  	jal	0x2ade0 <.text+0xade0>
8002c5e0: 00 00 00 00  	nop
8002c5e4: 1b 00 c2 a3  	sb	$2, 0x1b($fp)
8002c5e8: 7c b1 00 08  	j	0x2c5f0 <.text+0xc5f0>
8002c5ec: 00 00 00 00  	nop
8002c5f0: 1b 00 c1 93  	lbu	$1, 0x1b($fp)
8002c5f4: 01 00 22 30  	andi	$2, $1, 0x1
8002c5f8: 25 e8 c0 03  	move	$sp, $fp
8002c5fc: 48 00 be 8f  	lw	$fp, 0x48($sp)
8002c600: 4c 00 bf 8f  	lw	$ra, 0x4c($sp)
8002c604: 50 00 bd 27  	addiu	$sp, $sp, 0x50
8002c608: 08 00 e0 03  	jr	$ra
8002c60c: 00 00 00 00  	nop
8002c610: f0 ff bd 27  	addiu	$sp, $sp, -0x10
8002c614: 0c 00 bf af  	sw	$ra, 0xc($sp)
8002c618: 08 00 be af  	sw	$fp, 0x8($sp)
8002c61c: 25 f0 a0 03  	move	$fp, $sp
8002c620: 04 00 c4 af  	sw	$4, 0x4($fp)
8002c624: 1c 00 81 8c  	lw	$1, 0x1c($4)
8002c628: 01 00 22 30  	andi	$2, $1, 0x1
8002c62c: 25 e8 c0 03  	move	$sp, $fp
8002c630: 08 00 be 8f  	lw	$fp, 0x8($sp)
8002c634: 0c 00 bf 8f  	lw	$ra, 0xc($sp)
8002c638: 10 00 bd 27  	addiu	$sp, $sp, 0x10
8002c63c: 08 00 e0 03  	jr	$ra
8002c640: 00 00 00 00  	nop
8002c644: f0 ff bd 27  	addiu	$sp, $sp, -0x10
8002c648: 0c 00 bf af  	sw	$ra, 0xc($sp)
8002c64c: 08 00 be af  	sw	$fp, 0x8($sp)
8002c650: 25 f0 a0 03  	move	$fp, $sp
8002c654: 04 00 c4 af  	sw	$4, 0x4($fp)
8002c658: 1c 00 81 90  	lbu	$1, 0x1c($4)
8002c65c: 04 00 21 30  	andi	$1, $1, 0x4
8002c660: 82 10 01 00  	srl	$2, $1, 0x2
8002c664: 25 e8 c0 03  	move	$sp, $fp
8002c668: 08 00 be 8f  	lw	$fp, 0x8($sp)
8002c66c: 0c 00 bf 8f  	lw	$ra, 0xc($sp)
8002c670: 10 00 bd 27  	addiu	$sp, $sp, 0x10
8002c674: 08 00 e0 03  	jr	$ra
8002c678: 00 00 00 00  	nop
8002c67c: f0 ff bd 27  	addiu	$sp, $sp, -0x10
8002c680: 0c 00 bf af  	sw	$ra, 0xc($sp)
8002c684: 08 00 be af  	sw	$fp, 0x8($sp)
8002c688: 25 f0 a0 03  	move	$fp, $sp
8002c68c: 04 00 c4 af  	sw	$4, 0x4($fp)
8002c690: 1c 00 81 90  	lbu	$1, 0x1c($4)
8002c694: 08 00 21 30  	andi	$1, $1, 0x8
8002c698: c2 10 01 00  	srl	$2, $1, 0x3
8002c69c: 25 e8 c0 03  	move	$sp, $fp
8002c6a0: 08 00 be 8f  	lw	$fp, 0x8($sp)
8002c6a4: 0c 00 bf 8f  	lw	$ra, 0xc($sp)
8002c6a8: 10 00 bd 27  	addiu	$sp, $sp, 0x10
8002c6ac: 08 00 e0 03  	jr	$ra
8002c6b0: 00 00 00 00  	nop
8002c6b4: d8 ff bd 27  	addiu	$sp, $sp, -0x28
8002c6b8: 24 00 bf af  	sw	$ra, 0x24($sp)
8002c6bc: 20 00 be af  	sw	$fp, 0x20($sp)
8002c6c0: 25 f0 a0 03  	move	$fp, $sp
8002c6c4: 10 00 c6 af  	sw	$6, 0x10($fp)
8002c6c8: 25 30 a0 00  	move	$6, $5
8002c6cc: 25 28 80 00  	move	$5, $4
8002c6d0: 10 00 c4 8f  	lw	$4, 0x10($fp)
8002c6d4: 14 00 c5 af  	sw	$5, 0x14($fp)
8002c6d8: 18 00 c6 af  	sw	$6, 0x18($fp)
8002c6dc: 1c 00 c4 af  	sw	$4, 0x1c($fp)
8002c6e0: bd af 00 0c  	jal	0x2bef4 <.text+0xbef4>
8002c6e4: 00 00 00 00  	nop
8002c6e8: 25 e8 c0 03  	move	$sp, $fp
8002c6ec: 20 00 be 8f  	lw	$fp, 0x20($sp)
8002c6f0: 24 00 bf 8f  	lw	$ra, 0x24($sp)
8002c6f4: 28 00 bd 27  	addiu	$sp, $sp, 0x28
8002c6f8: 08 00 e0 03  	jr	$ra
8002c6fc: 00 00 00 00  	nop
8002c700: d8 ff bd 27  	addiu	$sp, $sp, -0x28
8002c704: 24 00 bf af  	sw	$ra, 0x24($sp)
8002c708: 20 00 be af  	sw	$fp, 0x20($sp)
8002c70c: 25 f0 a0 03  	move	$fp, $sp
8002c710: 10 00 c6 af  	sw	$6, 0x10($fp)
8002c714: 25 30 a0 00  	move	$6, $5
8002c718: 25 28 80 00  	move	$5, $4
8002c71c: 10 00 c4 8f  	lw	$4, 0x10($fp)
8002c720: 14 00 c5 af  	sw	$5, 0x14($fp)
8002c724: 18 00 c6 af  	sw	$6, 0x18($fp)
8002c728: 1c 00 c4 af  	sw	$4, 0x1c($fp)
8002c72c: 07 a9 00 0c  	jal	0x2a41c <.text+0xa41c>
8002c730: 00 00 00 00  	nop
8002c734: 25 e8 c0 03  	move	$sp, $fp
8002c738: 20 00 be 8f  	lw	$fp, 0x20($sp)
8002c73c: 24 00 bf 8f  	lw	$ra, 0x24($sp)
8002c740: 28 00 bd 27  	addiu	$sp, $sp, 0x28
8002c744: 08 00 e0 03  	jr	$ra
8002c748: 00 00 00 00  	nop
8002c74c: e0 ff bd 27  	addiu	$sp, $sp, -0x20
8002c750: 1c 00 bf af  	sw	$ra, 0x1c($sp)
8002c754: 18 00 be af  	sw	$fp, 0x18($sp)
8002c758: 25 f0 a0 03  	move	$fp, $sp
8002c75c: 10 00 c4 af  	sw	$4, 0x10($fp)
8002c760: 14 00 c5 af  	sw	$5, 0x14($fp)
8002c764: 95 95 00 0c  	jal	0x25654 <.text+0x5654>
8002c768: 00 00 00 00  	nop
8002c76c: 25 e8 c0 03  	move	$sp, $fp
8002c770: 18 00 be 8f  	lw	$fp, 0x18($sp)
8002c774: 1c 00 bf 8f  	lw	$ra, 0x1c($sp)
8002c778: 20 00 bd 27  	addiu	$sp, $sp, 0x20
8002c77c: 08 00 e0 03  	jr	$ra
8002c780: 00 00 00 00  	nop
8002c784: e0 ff bd 27  	addiu	$sp, $sp, -0x20
8002c788: 1c 00 bf af  	sw	$ra, 0x1c($sp)
8002c78c: 18 00 be af  	sw	$fp, 0x18($sp)
8002c790: 25 f0 a0 03  	move	$fp, $sp
8002c794: 10 00 c4 af  	sw	$4, 0x10($fp)
8002c798: 14 00 c5 af  	sw	$5, 0x14($fp)
8002c79c: 6c 95 00 0c  	jal	0x255b0 <.text+0x55b0>
8002c7a0: 00 00 00 00  	nop
8002c7a4: 25 e8 c0 03  	move	$sp, $fp
8002c7a8: 18 00 be 8f  	lw	$fp, 0x18($sp)
8002c7ac: 1c 00 bf 8f  	lw	$ra, 0x1c($sp)
8002c7b0: 20 00 bd 27  	addiu	$sp, $sp, 0x20
8002c7b4: 08 00 e0 03  	jr	$ra
8002c7b8: 00 00 00 00  	nop
8002c7bc: e8 ff bd 27  	addiu	$sp, $sp, -0x18
8002c7c0: 14 00 bf af  	sw	$ra, 0x14($sp)
8002c7c4: 10 00 be af  	sw	$fp, 0x10($sp)
8002c7c8: 25 f0 a0 03  	move	$fp, $sp
8002c7cc: 25 10 a0 00  	move	$2, $5
8002c7d0: 00 00 c4 af  	sw	$4, 0x0($fp)
8002c7d4: 04 00 c2 af  	sw	$2, 0x4($fp)
8002c7d8: 08 00 c4 af  	sw	$4, 0x8($fp)
8002c7dc: 0c 00 c2 af  	sw	$2, 0xc($fp)
8002c7e0: 25 e8 c0 03  	move	$sp, $fp
8002c7e4: 10 00 be 8f  	lw	$fp, 0x10($sp)
8002c7e8: 14 00 bf 8f  	lw	$ra, 0x14($sp)
8002c7ec: 18 00 bd 27  	addiu	$sp, $sp, 0x18
8002c7f0: 08 00 e0 03  	jr	$ra
8002c7f4: 00 00 00 00  	nop
8002c7f8: e0 ff bd 27  	addiu	$sp, $sp, -0x20
8002c7fc: 1c 00 bf af  	sw	$ra, 0x1c($sp)
8002c800: 18 00 be af  	sw	$fp, 0x18($sp)
8002c804: 25 f0 a0 03  	move	$fp, $sp
8002c808: 10 00 c4 af  	sw	$4, 0x10($fp)
8002c80c: 14 00 c5 af  	sw	$5, 0x14($fp)
8002c810: ef b1 00 0c  	jal	0x2c7bc <.text+0xc7bc>
8002c814: 00 00 00 00  	nop
8002c818: 01 00 42 2c  	sltiu	$2, $2, 0x1
8002c81c: 25 e8 c0 03  	move	$sp, $fp
8002c820: 18 00 be 8f  	lw	$fp, 0x18($sp)
8002c824: 1c 00 bf 8f  	lw	$ra, 0x1c($sp)
8002c828: 20 00 bd 27  	addiu	$sp, $sp, 0x20
8002c82c: 08 00 e0 03  	jr	$ra
8002c830: 00 00 00 00  	nop
8002c834: b8 ff bd 27  	addiu	$sp, $sp, -0x48
8002c838: 44 00 bf af  	sw	$ra, 0x44($sp)
8002c83c: 40 00 be af  	sw	$fp, 0x40($sp)
8002c840: 25 f0 a0 03  	move	$fp, $sp
8002c844: 14 00 c6 af  	sw	$6, 0x14($fp)
8002c848: 18 00 c5 af  	sw	$5, 0x18($fp)
8002c84c: 1c 00 c4 af  	sw	$4, 0x1c($fp)
8002c850: 28 00 c4 af  	sw	$4, 0x28($fp)
8002c854: 2c 00 c5 af  	sw	$5, 0x2c($fp)
8002c858: 30 00 c6 af  	sw	$6, 0x30($fp)
8002c85c: 07 00 c0 14  	bnez	$6, 0x8002c87c <.text+0xc87c>
8002c860: 00 00 00 00  	nop
8002c864: 1b b2 00 08  	j	0x2c86c <.text+0xc86c>
8002c868: 00 00 00 00  	nop
8002c86c: 01 00 01 24  	addiu	$1, $zero, 0x1
8002c870: 23 00 c1 a3  	sb	$1, 0x23($fp)
8002c874: 2c b2 00 08  	j	0x2c8b0 <.text+0xc8b0>
8002c878: 00 00 00 00  	nop
8002c87c: 14 00 c6 8f  	lw	$6, 0x14($fp)
8002c880: 18 00 c5 8f  	lw	$5, 0x18($fp)
8002c884: 1c 00 c4 8f  	lw	$4, 0x1c($fp)
8002c888: 38 00 c4 af  	sw	$4, 0x38($fp)
8002c88c: 3c 00 c5 af  	sw	$5, 0x3c($fp)
8002c890: ea a1 00 0c  	jal	0x287a8 <.text+0x87a8>
8002c894: 00 00 00 00  	nop
8002c898: 24 00 c2 af  	sw	$2, 0x24($fp)
8002c89c: 24 00 c1 8f  	lw	$1, 0x24($fp)
8002c8a0: 0b 00 20 10  	beqz	$1, 0x8002c8d0 <.text+0xc8d0>
8002c8a4: 00 00 00 00  	nop
8002c8a8: 3e b2 00 08  	j	0x2c8f8 <.text+0xc8f8>
8002c8ac: 00 00 00 00  	nop
8002c8b0: 23 00 c1 93  	lbu	$1, 0x23($fp)
8002c8b4: 01 00 22 30  	andi	$2, $1, 0x1
8002c8b8: 25 e8 c0 03  	move	$sp, $fp
8002c8bc: 40 00 be 8f  	lw	$fp, 0x40($sp)
8002c8c0: 44 00 bf 8f  	lw	$ra, 0x44($sp)
8002c8c4: 48 00 bd 27  	addiu	$sp, $sp, 0x48
8002c8c8: 08 00 e0 03  	jr	$ra
8002c8cc: 00 00 00 00  	nop
8002c8d0: 18 00 c5 8f  	lw	$5, 0x18($fp)
8002c8d4: 1c 00 c4 8f  	lw	$4, 0x1c($fp)
8002c8d8: ef b1 00 0c  	jal	0x2c7bc <.text+0xc7bc>
8002c8dc: 00 00 00 00  	nop
8002c8e0: 14 00 c1 8f  	lw	$1, 0x14($fp)
8002c8e4: 26 08 22 00  	xor	$1, $1, $2
8002c8e8: 01 00 21 2c  	sltiu	$1, $1, 0x1
8002c8ec: 23 00 c1 a3  	sb	$1, 0x23($fp)
8002c8f0: 2c b2 00 08  	j	0x2c8b0 <.text+0xc8b0>
8002c8f4: 00 00 00 00  	nop
8002c8f8: 24 00 c1 8f  	lw	$1, 0x24($fp)
8002c8fc: 00 00 24 90  	lbu	$4, 0x0($1)
8002c900: 37 00 c4 a3  	sb	$4, 0x37($fp)
8002c904: 4a 94 00 0c  	jal	0x25128 <.text+0x5128>
8002c908: 00 00 00 00  	nop
8002c90c: 23 00 c2 a3  	sb	$2, 0x23($fp)
8002c910: 2c b2 00 08  	j	0x2c8b0 <.text+0xc8b0>
8002c914: 00 00 00 00  	nop
8002c918: d8 ff bd 27  	addiu	$sp, $sp, -0x28
8002c91c: 24 00 bf af  	sw	$ra, 0x24($sp)
8002c920: 20 00 be af  	sw	$fp, 0x20($sp)
8002c924: 25 f0 a0 03  	move	$fp, $sp
8002c928: 10 00 c6 af  	sw	$6, 0x10($fp)
8002c92c: 25 30 a0 00  	move	$6, $5
8002c930: 25 28 80 00  	move	$5, $4
8002c934: 10 00 c4 8f  	lw	$4, 0x10($fp)
8002c938: 14 00 c5 af  	sw	$5, 0x14($fp)
8002c93c: 18 00 c6 af  	sw	$6, 0x18($fp)
8002c940: 1c 00 c4 af  	sw	$4, 0x1c($fp)
8002c944: e6 b7 00 0c  	jal	0x2df98 <.text+0xdf98>
8002c948: 00 00 00 00  	nop
8002c94c: 25 e8 c0 03  	move	$sp, $fp
8002c950: 20 00 be 8f  	lw	$fp, 0x20($sp)
8002c954: 24 00 bf 8f  	lw	$ra, 0x24($sp)
8002c958: 28 00 bd 27  	addiu	$sp, $sp, 0x28
8002c95c: 08 00 e0 03  	jr	$ra
8002c960: 00 00 00 00  	nop
8002c964: d0 ff bd 27  	addiu	$sp, $sp, -0x30
8002c968: 2c 00 bf af  	sw	$ra, 0x2c($sp)
8002c96c: 28 00 be af  	sw	$fp, 0x28($sp)
8002c970: 25 f0 a0 03  	move	$fp, $sp
8002c974: 18 00 c4 af  	sw	$4, 0x18($fp)
8002c978: 1c 00 c5 af  	sw	$5, 0x1c($fp)
8002c97c: 20 00 c4 af  	sw	$4, 0x20($fp)
8002c980: 24 00 c5 af  	sw	$5, 0x24($fp)
8002c984: 3f a2 00 0c  	jal	0x288fc <.text+0x88fc>
8002c988: 00 00 00 00  	nop
8002c98c: 10 00 c2 af  	sw	$2, 0x10($fp)
8002c990: 14 00 c3 af  	sw	$3, 0x14($fp)
8002c994: 10 00 c2 8f  	lw	$2, 0x10($fp)
8002c998: 14 00 c3 8f  	lw	$3, 0x14($fp)
8002c99c: 25 e8 c0 03  	move	$sp, $fp
8002c9a0: 28 00 be 8f  	lw	$fp, 0x28($sp)
8002c9a4: 2c 00 bf 8f  	lw	$ra, 0x2c($sp)
8002c9a8: 30 00 bd 27  	addiu	$sp, $sp, 0x30
8002c9ac: 08 00 e0 03  	jr	$ra
8002c9b0: 00 00 00 00  	nop
8002c9b4: d0 ff bd 27  	addiu	$sp, $sp, -0x30
8002c9b8: 2c 00 bf af  	sw	$ra, 0x2c($sp)
8002c9bc: 28 00 be af  	sw	$fp, 0x28($sp)
8002c9c0: 25 f0 a0 03  	move	$fp, $sp
8002c9c4: 10 00 c6 af  	sw	$6, 0x10($fp)
8002c9c8: 25 08 a0 00  	move	$1, $5
8002c9cc: 10 00 c5 8f  	lw	$5, 0x10($fp)
8002c9d0: 14 00 c1 af  	sw	$1, 0x14($fp)
8002c9d4: 25 08 80 00  	move	$1, $4
8002c9d8: 14 00 c4 8f  	lw	$4, 0x14($fp)
8002c9dc: 18 00 c1 af  	sw	$1, 0x18($fp)
8002c9e0: 1c 00 c1 af  	sw	$1, 0x1c($fp)
8002c9e4: 20 00 c4 af  	sw	$4, 0x20($fp)
8002c9e8: 24 00 c5 af  	sw	$5, 0x24($fp)
8002c9ec: 59 b2 00 0c  	jal	0x2c964 <.text+0xc964>
8002c9f0: 00 00 00 00  	nop
8002c9f4: 18 00 c4 8f  	lw	$4, 0x18($fp)
8002c9f8: 25 08 40 00  	move	$1, $2
8002c9fc: 1c 00 c2 8f  	lw	$2, 0x1c($fp)
8002ca00: 08 00 80 ac  	sw	$zero, 0x8($4)
8002ca04: 00 00 81 ac  	sw	$1, 0x0($4)
8002ca08: 04 00 83 ac  	sw	$3, 0x4($4)
8002ca0c: 25 e8 c0 03  	move	$sp, $fp
8002ca10: 28 00 be 8f  	lw	$fp, 0x28($sp)
8002ca14: 2c 00 bf 8f  	lw	$ra, 0x2c($sp)
8002ca18: 30 00 bd 27  	addiu	$sp, $sp, 0x30
8002ca1c: 08 00 e0 03  	jr	$ra
8002ca20: 00 00 00 00  	nop
8002ca24: f0 ff bd 27  	addiu	$sp, $sp, -0x10
8002ca28: 0c 00 bf af  	sw	$ra, 0xc($sp)
8002ca2c: 08 00 be af  	sw	$fp, 0x8($sp)
8002ca30: 25 f0 a0 03  	move	$fp, $sp
8002ca34: 00 00 c4 af  	sw	$4, 0x0($fp)
8002ca38: 04 00 c5 af  	sw	$5, 0x4($fp)
8002ca3c: 00 00 81 8c  	lw	$1, 0x0($4)
8002ca40: 00 00 a2 8c  	lw	$2, 0x0($5)
8002ca44: 26 08 22 00  	xor	$1, $1, $2
8002ca48: 01 00 22 2c  	sltiu	$2, $1, 0x1
8002ca4c: 25 e8 c0 03  	move	$sp, $fp
8002ca50: 08 00 be 8f  	lw	$fp, 0x8($sp)
8002ca54: 0c 00 bf 8f  	lw	$ra, 0xc($sp)
8002ca58: 10 00 bd 27  	addiu	$sp, $sp, 0x10
8002ca5c: 08 00 e0 03  	jr	$ra
8002ca60: 00 00 00 00  	nop
8002ca64: f0 ff bd 27  	addiu	$sp, $sp, -0x10
8002ca68: 0c 00 bf af  	sw	$ra, 0xc($sp)
8002ca6c: 08 00 be af  	sw	$fp, 0x8($sp)
8002ca70: 25 f0 a0 03  	move	$fp, $sp
8002ca74: 00 00 c4 af  	sw	$4, 0x0($fp)
8002ca78: 04 00 c5 af  	sw	$5, 0x4($fp)
8002ca7c: 00 00 81 8c  	lw	$1, 0x0($4)
8002ca80: 04 00 82 8c  	lw	$2, 0x4($4)
8002ca84: 00 00 a3 8c  	lw	$3, 0x0($5)
8002ca88: 04 00 a4 8c  	lw	$4, 0x4($5)
8002ca8c: 26 10 44 00  	xor	$2, $2, $4
8002ca90: 26 08 23 00  	xor	$1, $1, $3
8002ca94: 25 08 22 00  	or	$1, $1, $2
8002ca98: 01 00 22 2c  	sltiu	$2, $1, 0x1
8002ca9c: 25 e8 c0 03  	move	$sp, $fp
8002caa0: 08 00 be 8f  	lw	$fp, 0x8($sp)
8002caa4: 0c 00 bf 8f  	lw	$ra, 0xc($sp)
8002caa8: 10 00 bd 27  	addiu	$sp, $sp, 0x10
8002caac: 08 00 e0 03  	jr	$ra
8002cab0: 00 00 00 00  	nop
8002cab4: f0 ff bd 27  	addiu	$sp, $sp, -0x10
8002cab8: 0c 00 bf af  	sw	$ra, 0xc($sp)
8002cabc: 08 00 be af  	sw	$fp, 0x8($sp)
8002cac0: 25 f0 a0 03  	move	$fp, $sp
8002cac4: 00 00 c4 af  	sw	$4, 0x0($fp)
8002cac8: 04 00 c5 af  	sw	$5, 0x4($fp)
8002cacc: 00 00 82 8c  	lw	$2, 0x0($4)
8002cad0: 00 00 a3 8c  	lw	$3, 0x0($5)
8002cad4: 2b 08 62 00  	sltu	$1, $3, $2
8002cad8: 2b 10 43 00  	sltu	$2, $2, $3
8002cadc: 23 10 22 00  	subu	$2, $1, $2
8002cae0: 25 e8 c0 03  	move	$sp, $fp
8002cae4: 08 00 be 8f  	lw	$fp, 0x8($sp)
8002cae8: 0c 00 bf 8f  	lw	$ra, 0xc($sp)
8002caec: 10 00 bd 27  	addiu	$sp, $sp, 0x10
8002caf0: 08 00 e0 03  	jr	$ra
8002caf4: 00 00 00 00  	nop
8002caf8: c8 ff bd 27  	addiu	$sp, $sp, -0x38
8002cafc: 34 00 bf af  	sw	$ra, 0x34($sp)
8002cb00: 30 00 be af  	sw	$fp, 0x30($sp)
8002cb04: 25 f0 a0 03  	move	$fp, $sp
8002cb08: 14 00 c4 af  	sw	$4, 0x14($fp)
8002cb0c: 03 80 01 3c  	lui	$1, 0x8003
8002cb10: 78 1c 25 24  	addiu	$5, $1, 0x1c78
8002cb14: 18 00 c4 27  	addiu	$4, $fp, 0x18
8002cb18: 10 00 c4 af  	sw	$4, 0x10($fp)
8002cb1c: 01 00 06 24  	addiu	$6, $zero, 0x1
8002cb20: a0 aa 00 0c  	jal	0x2aa80 <.text+0xaa80>
8002cb24: 00 00 00 00  	nop
8002cb28: 10 00 c4 8f  	lw	$4, 0x10($fp)
8002cb2c: 14 00 c5 8f  	lw	$5, 0x14($fp)
8002cb30: f6 b4 00 0c  	jal	0x2d3d8 <.text+0xd3d8>
8002cb34: 00 00 00 00  	nop
8002cb38: c8 ff bd 27  	addiu	$sp, $sp, -0x38
8002cb3c: 34 00 bf af  	sw	$ra, 0x34($sp)
8002cb40: 30 00 be af  	sw	$fp, 0x30($sp)
8002cb44: 25 f0 a0 03  	move	$fp, $sp
8002cb48: 14 00 c4 af  	sw	$4, 0x14($fp)
8002cb4c: 03 80 01 3c  	lui	$1, 0x8003
8002cb50: a4 1c 25 24  	addiu	$5, $1, 0x1ca4
8002cb54: 18 00 c4 27  	addiu	$4, $fp, 0x18
8002cb58: 10 00 c4 af  	sw	$4, 0x10($fp)
8002cb5c: 01 00 06 24  	addiu	$6, $zero, 0x1
8002cb60: a0 aa 00 0c  	jal	0x2aa80 <.text+0xaa80>
8002cb64: 00 00 00 00  	nop
8002cb68: 10 00 c4 8f  	lw	$4, 0x10($fp)
8002cb6c: 14 00 c5 8f  	lw	$5, 0x14($fp)
8002cb70: f6 b4 00 0c  	jal	0x2d3d8 <.text+0xd3d8>
8002cb74: 00 00 00 00  	nop
8002cb78: c8 ff bd 27  	addiu	$sp, $sp, -0x38
8002cb7c: 34 00 bf af  	sw	$ra, 0x34($sp)
8002cb80: 30 00 be af  	sw	$fp, 0x30($sp)
8002cb84: 25 f0 a0 03  	move	$fp, $sp
8002cb88: 14 00 c4 af  	sw	$4, 0x14($fp)
8002cb8c: 03 80 01 3c  	lui	$1, 0x8003
8002cb90: d0 1c 25 24  	addiu	$5, $1, 0x1cd0
8002cb94: 18 00 c4 27  	addiu	$4, $fp, 0x18
8002cb98: 10 00 c4 af  	sw	$4, 0x10($fp)
8002cb9c: 01 00 06 24  	addiu	$6, $zero, 0x1
8002cba0: a0 aa 00 0c  	jal	0x2aa80 <.text+0xaa80>
8002cba4: 00 00 00 00  	nop
8002cba8: 10 00 c4 8f  	lw	$4, 0x10($fp)
8002cbac: 14 00 c5 8f  	lw	$5, 0x14($fp)
8002cbb0: f6 b4 00 0c  	jal	0x2d3d8 <.text+0xd3d8>
8002cbb4: 00 00 00 00  	nop
8002cbb8: c8 ff bd 27  	addiu	$sp, $sp, -0x38
8002cbbc: 34 00 bf af  	sw	$ra, 0x34($sp)
8002cbc0: 30 00 be af  	sw	$fp, 0x30($sp)
8002cbc4: 25 f0 a0 03  	move	$fp, $sp
8002cbc8: 14 00 c4 af  	sw	$4, 0x14($fp)
8002cbcc: 03 80 01 3c  	lui	$1, 0x8003
8002cbd0: f8 1c 25 24  	addiu	$5, $1, 0x1cf8
8002cbd4: 18 00 c4 27  	addiu	$4, $fp, 0x18
8002cbd8: 10 00 c4 af  	sw	$4, 0x10($fp)
8002cbdc: 01 00 06 24  	addiu	$6, $zero, 0x1
8002cbe0: a0 aa 00 0c  	jal	0x2aa80 <.text+0xaa80>
8002cbe4: 00 00 00 00  	nop
8002cbe8: 10 00 c4 8f  	lw	$4, 0x10($fp)
8002cbec: 14 00 c5 8f  	lw	$5, 0x14($fp)
8002cbf0: f6 b4 00 0c  	jal	0x2d3d8 <.text+0xd3d8>
8002cbf4: 00 00 00 00  	nop
8002cbf8: c8 ff bd 27  	addiu	$sp, $sp, -0x38
8002cbfc: 34 00 bf af  	sw	$ra, 0x34($sp)
8002cc00: 30 00 be af  	sw	$fp, 0x30($sp)
8002cc04: 25 f0 a0 03  	move	$fp, $sp
8002cc08: 14 00 c4 af  	sw	$4, 0x14($fp)
8002cc0c: 03 80 01 3c  	lui	$1, 0x8003
8002cc10: 24 1d 25 24  	addiu	$5, $1, 0x1d24
8002cc14: 18 00 c4 27  	addiu	$4, $fp, 0x18
8002cc18: 10 00 c4 af  	sw	$4, 0x10($fp)
8002cc1c: 01 00 06 24  	addiu	$6, $zero, 0x1
8002cc20: a0 aa 00 0c  	jal	0x2aa80 <.text+0xaa80>
8002cc24: 00 00 00 00  	nop
8002cc28: 10 00 c4 8f  	lw	$4, 0x10($fp)
8002cc2c: 14 00 c5 8f  	lw	$5, 0x14($fp)
8002cc30: f6 b4 00 0c  	jal	0x2d3d8 <.text+0xd3d8>
8002cc34: 00 00 00 00  	nop
8002cc38: c8 ff bd 27  	addiu	$sp, $sp, -0x38
8002cc3c: 34 00 bf af  	sw	$ra, 0x34($sp)
8002cc40: 30 00 be af  	sw	$fp, 0x30($sp)
8002cc44: 25 f0 a0 03  	move	$fp, $sp
8002cc48: 14 00 c4 af  	sw	$4, 0x14($fp)
8002cc4c: 03 80 01 3c  	lui	$1, 0x8003
8002cc50: 48 1d 25 24  	addiu	$5, $1, 0x1d48
8002cc54: 18 00 c4 27  	addiu	$4, $fp, 0x18
8002cc58: 10 00 c4 af  	sw	$4, 0x10($fp)
8002cc5c: 01 00 06 24  	addiu	$6, $zero, 0x1
8002cc60: a0 aa 00 0c  	jal	0x2aa80 <.text+0xaa80>
8002cc64: 00 00 00 00  	nop
8002cc68: 10 00 c4 8f  	lw	$4, 0x10($fp)
8002cc6c: 14 00 c5 8f  	lw	$5, 0x14($fp)
8002cc70: f6 b4 00 0c  	jal	0x2d3d8 <.text+0xd3d8>
8002cc74: 00 00 00 00  	nop
8002cc78: c8 ff bd 27  	addiu	$sp, $sp, -0x38
8002cc7c: 34 00 bf af  	sw	$ra, 0x34($sp)
8002cc80: 30 00 be af  	sw	$fp, 0x30($sp)
8002cc84: 25 f0 a0 03  	move	$fp, $sp
8002cc88: 14 00 c4 af  	sw	$4, 0x14($fp)
8002cc8c: 03 80 01 3c  	lui	$1, 0x8003
8002cc90: 8c 1d 25 24  	addiu	$5, $1, 0x1d8c
8002cc94: 18 00 c4 27  	addiu	$4, $fp, 0x18
8002cc98: 10 00 c4 af  	sw	$4, 0x10($fp)
8002cc9c: 01 00 06 24  	addiu	$6, $zero, 0x1
8002cca0: a0 aa 00 0c  	jal	0x2aa80 <.text+0xaa80>
8002cca4: 00 00 00 00  	nop
8002cca8: 10 00 c4 8f  	lw	$4, 0x10($fp)
8002ccac: 14 00 c5 8f  	lw	$5, 0x14($fp)
8002ccb0: f6 b4 00 0c  	jal	0x2d3d8 <.text+0xd3d8>
8002ccb4: 00 00 00 00  	nop
8002ccb8: e0 ff bd 27  	addiu	$sp, $sp, -0x20
8002ccbc: 1c 00 bf af  	sw	$ra, 0x1c($sp)
8002ccc0: 18 00 be af  	sw	$fp, 0x18($sp)
8002ccc4: 25 f0 a0 03  	move	$fp, $sp
8002ccc8: 25 08 80 00  	move	$1, $4
8002cccc: 10 00 c1 af  	sw	$1, 0x10($fp)
8002ccd0: 14 00 c5 af  	sw	$5, 0x14($fp)
8002ccd4: 00 00 24 8c  	lw	$4, 0x0($1)
8002ccd8: 04 00 21 8c  	lw	$1, 0x4($1)
8002ccdc: 0c 00 39 8c  	lw	$25, 0xc($1)
8002cce0: 09 f8 20 03  	jalr	$25
8002cce4: 00 00 00 00  	nop
8002cce8: 25 e8 c0 03  	move	$sp, $fp
8002ccec: 18 00 be 8f  	lw	$fp, 0x18($sp)
8002ccf0: 1c 00 bf 8f  	lw	$ra, 0x1c($sp)
8002ccf4: 20 00 bd 27  	addiu	$sp, $sp, 0x20
8002ccf8: 08 00 e0 03  	jr	$ra
8002ccfc: 00 00 00 00  	nop
8002cd00: e0 ff bd 27  	addiu	$sp, $sp, -0x20
8002cd04: 1c 00 bf af  	sw	$ra, 0x1c($sp)
8002cd08: 18 00 be af  	sw	$fp, 0x18($sp)
8002cd0c: 25 f0 a0 03  	move	$fp, $sp
8002cd10: 25 30 a0 00  	move	$6, $5
8002cd14: 25 08 80 00  	move	$1, $4
8002cd18: 10 00 c1 af  	sw	$1, 0x10($fp)
8002cd1c: 14 00 c6 af  	sw	$6, 0x14($fp)
8002cd20: 00 00 24 8c  	lw	$4, 0x0($1)
8002cd24: 04 00 25 8c  	lw	$5, 0x4($1)
8002cd28: ad b1 00 0c  	jal	0x2c6b4 <.text+0xc6b4>
8002cd2c: 00 00 00 00  	nop
8002cd30: 25 e8 c0 03  	move	$sp, $fp
8002cd34: 18 00 be 8f  	lw	$fp, 0x18($sp)
8002cd38: 1c 00 bf 8f  	lw	$ra, 0x1c($sp)
8002cd3c: 20 00 bd 27  	addiu	$sp, $sp, 0x20
8002cd40: 08 00 e0 03  	jr	$ra
8002cd44: 00 00 00 00  	nop
8002cd48: e0 ff bd 27  	addiu	$sp, $sp, -0x20
8002cd4c: 1c 00 bf af  	sw	$ra, 0x1c($sp)
8002cd50: 18 00 be af  	sw	$fp, 0x18($sp)
8002cd54: 25 f0 a0 03  	move	$fp, $sp
8002cd58: 14 00 c4 af  	sw	$4, 0x14($fp)
8002cd5c: 10 00 c4 af  	sw	$4, 0x10($fp)
8002cd60: 10 00 c4 8f  	lw	$4, 0x10($fp)
8002cd64: 61 b3 00 0c  	jal	0x2cd84 <.text+0xcd84>
8002cd68: 00 00 00 00  	nop
8002cd6c: 25 e8 c0 03  	move	$sp, $fp
8002cd70: 18 00 be 8f  	lw	$fp, 0x18($sp)
8002cd74: 1c 00 bf 8f  	lw	$ra, 0x1c($sp)
8002cd78: 20 00 bd 27  	addiu	$sp, $sp, 0x20
8002cd7c: 08 00 e0 03  	jr	$ra
8002cd80: 00 00 00 00  	nop
8002cd84: e8 ff bd 27  	addiu	$sp, $sp, -0x18
8002cd88: 14 00 bf af  	sw	$ra, 0x14($sp)
8002cd8c: 10 00 be af  	sw	$fp, 0x10($sp)
8002cd90: 25 f0 a0 03  	move	$fp, $sp
8002cd94: 04 00 c4 af  	sw	$4, 0x4($fp)
8002cd98: 08 00 c4 af  	sw	$4, 0x8($fp)
8002cd9c: 0c 00 c4 af  	sw	$4, 0xc($fp)
8002cda0: 01 00 82 2c  	sltiu	$2, $4, 0x1
8002cda4: 25 e8 c0 03  	move	$sp, $fp
8002cda8: 10 00 be 8f  	lw	$fp, 0x10($sp)
8002cdac: 14 00 bf 8f  	lw	$ra, 0x14($sp)
8002cdb0: 18 00 bd 27  	addiu	$sp, $sp, 0x18
8002cdb4: 08 00 e0 03  	jr	$ra
8002cdb8: 00 00 00 00  	nop
8002cdbc: d0 ff bd 27  	addiu	$sp, $sp, -0x30
8002cdc0: 2c 00 bf af  	sw	$ra, 0x2c($sp)
8002cdc4: 28 00 be af  	sw	$fp, 0x28($sp)
8002cdc8: 25 f0 a0 03  	move	$fp, $sp
8002cdcc: 10 00 c5 af  	sw	$5, 0x10($fp)
8002cdd0: 14 00 c4 af  	sw	$4, 0x14($fp)
8002cdd4: 18 00 c4 af  	sw	$4, 0x18($fp)
8002cdd8: 1c 00 c5 af  	sw	$5, 0x1c($fp)
8002cddc: b4 a9 00 0c  	jal	0x2a6d0 <.text+0xa6d0>
8002cde0: 00 00 00 00  	nop
8002cde4: 09 00 40 14  	bnez	$2, 0x8002ce0c <.text+0xce0c>
8002cde8: 00 00 00 00  	nop
8002cdec: 7d b3 00 08  	j	0x2cdf4 <.text+0xcdf4>
8002cdf0: 00 00 00 00  	nop
8002cdf4: 01 00 01 24  	addiu	$1, $zero, 0x1
8002cdf8: 20 00 c1 af  	sw	$1, 0x20($fp)
8002cdfc: 10 00 20 14  	bnez	$1, 0x8002ce40 <.text+0xce40>
8002ce00: 00 00 00 00  	nop
8002ce04: 89 b3 00 08  	j	0x2ce24 <.text+0xce24>
8002ce08: 00 00 00 00  	nop
8002ce0c: 10 00 c5 8f  	lw	$5, 0x10($fp)
8002ce10: 14 00 c4 8f  	lw	$4, 0x14($fp)
8002ce14: 3c b6 00 0c  	jal	0x2d8f0 <.text+0xd8f0>
8002ce18: 00 00 00 00  	nop
8002ce1c: 7d b3 00 08  	j	0x2cdf4 <.text+0xcdf4>
8002ce20: 00 00 00 00  	nop
8002ce24: 03 80 01 3c  	lui	$1, 0x8003
8002ce28: 94 1d 24 24  	addiu	$4, $1, 0x1d94
8002ce2c: 03 80 01 3c  	lui	$1, 0x8003
8002ce30: 58 1e 26 24  	addiu	$6, $1, 0x1e58
8002ce34: 49 00 05 24  	addiu	$5, $zero, 0x49
8002ce38: 44 b5 00 0c  	jal	0x2d510 <.text+0xd510>
8002ce3c: 00 00 00 00  	nop
8002ce40: 00 00 01 24  	addiu	$1, $zero, 0x0
8002ce44: f7 ff 00 14  	bnez	$zero, 0x8002ce24 <.text+0xce24>
8002ce48: 00 00 00 00  	nop
8002ce4c: 95 b3 00 08  	j	0x2ce54 <.text+0xce54>
8002ce50: 00 00 00 00  	nop
8002ce54: 14 00 c1 8f  	lw	$1, 0x14($fp)
8002ce58: 10 00 c2 8f  	lw	$2, 0x10($fp)
8002ce5c: 23 08 22 00  	subu	$1, $1, $2
8002ce60: 24 00 c1 af  	sw	$1, 0x24($fp)
8002ce64: 24 00 c2 8f  	lw	$2, 0x24($fp)
8002ce68: 25 e8 c0 03  	move	$sp, $fp
8002ce6c: 28 00 be 8f  	lw	$fp, 0x28($sp)
8002ce70: 2c 00 bf 8f  	lw	$ra, 0x2c($sp)
8002ce74: 30 00 bd 27  	addiu	$sp, $sp, 0x30
8002ce78: 08 00 e0 03  	jr	$ra
8002ce7c: 00 00 00 00  	nop
8002ce80: d8 ff bd 27  	addiu	$sp, $sp, -0x28
8002ce84: 24 00 bf af  	sw	$ra, 0x24($sp)
8002ce88: 20 00 be af  	sw	$fp, 0x20($sp)
8002ce8c: 25 f0 a0 03  	move	$fp, $sp
8002ce90: 18 00 c4 af  	sw	$4, 0x18($fp)
8002ce94: 1c 00 c5 af  	sw	$5, 0x1c($fp)
8002ce98: 10 00 c4 af  	sw	$4, 0x10($fp)
8002ce9c: 14 00 c5 af  	sw	$5, 0x14($fp)
8002cea0: 10 00 c4 8f  	lw	$4, 0x10($fp)
8002cea4: 14 00 c5 8f  	lw	$5, 0x14($fp)
8002cea8: b2 b3 00 0c  	jal	0x2cec8 <.text+0xcec8>
8002ceac: 00 00 00 00  	nop
8002ceb0: 25 e8 c0 03  	move	$sp, $fp
8002ceb4: 20 00 be 8f  	lw	$fp, 0x20($sp)
8002ceb8: 24 00 bf 8f  	lw	$ra, 0x24($sp)
8002cebc: 28 00 bd 27  	addiu	$sp, $sp, 0x28
8002cec0: 08 00 e0 03  	jr	$ra
8002cec4: 00 00 00 00  	nop
8002cec8: f0 ff bd 27  	addiu	$sp, $sp, -0x10
8002cecc: 0c 00 bf af  	sw	$ra, 0xc($sp)
8002ced0: 08 00 be af  	sw	$fp, 0x8($sp)
8002ced4: 25 f0 a0 03  	move	$fp, $sp
8002ced8: 00 00 c4 af  	sw	$4, 0x0($fp)
8002cedc: 04 00 c5 af  	sw	$5, 0x4($fp)
8002cee0: 2b 08 85 00  	sltu	$1, $4, $5
8002cee4: 01 00 22 38  	xori	$2, $1, 0x1
8002cee8: 25 e8 c0 03  	move	$sp, $fp
8002ceec: 08 00 be 8f  	lw	$fp, 0x8($sp)
8002cef0: 0c 00 bf 8f  	lw	$ra, 0xc($sp)
8002cef4: 10 00 bd 27  	addiu	$sp, $sp, 0x10
8002cef8: 08 00 e0 03  	jr	$ra
8002cefc: 00 00 00 00  	nop
8002cf00: a0 ff bd 27  	addiu	$sp, $sp, -0x60
8002cf04: 5c 00 bf af  	sw	$ra, 0x5c($sp)
8002cf08: 58 00 be af  	sw	$fp, 0x58($sp)
8002cf0c: 25 f0 a0 03  	move	$fp, $sp
8002cf10: 18 00 c5 af  	sw	$5, 0x18($fp)
8002cf14: 1c 00 c4 af  	sw	$4, 0x1c($fp)
8002cf18: 40 00 c4 af  	sw	$4, 0x40($fp)
8002cf1c: 44 00 c5 af  	sw	$5, 0x44($fp)
8002cf20: 4c 00 c5 af  	sw	$5, 0x4c($fp)
8002cf24: 50 00 c5 af  	sw	$5, 0x50($fp)
8002cf28: 42 08 05 00  	srl	$1, $5, 0x1
8002cf2c: 55 55 02 3c  	lui	$2, 0x5555
8002cf30: 55 55 42 34  	ori	$2, $2, 0x5555
8002cf34: 24 08 22 00  	and	$1, $1, $2
8002cf38: 23 10 a1 00  	subu	$2, $5, $1
8002cf3c: 33 33 01 3c  	lui	$1, 0x3333
8002cf40: 33 33 23 34  	ori	$3, $1, 0x3333
8002cf44: 24 08 43 00  	and	$1, $2, $3
8002cf48: 82 10 02 00  	srl	$2, $2, 0x2
8002cf4c: 24 10 43 00  	and	$2, $2, $3
8002cf50: 21 08 22 00  	addu	$1, $1, $2
8002cf54: 02 11 01 00  	srl	$2, $1, 0x4
8002cf58: 21 08 22 00  	addu	$1, $1, $2
8002cf5c: 0f 0f 02 3c  	lui	$2, 0xf0f
8002cf60: 0f 0f 42 34  	ori	$2, $2, 0xf0f
8002cf64: 24 08 22 00  	and	$1, $1, $2
8002cf68: 00 12 01 00  	sll	$2, $1, 0x8
8002cf6c: 21 18 41 00  	addu	$3, $2, $1
8002cf70: 00 14 01 00  	sll	$2, $1, 0x10
8002cf74: 21 10 43 00  	addu	$2, $2, $3
8002cf78: 00 0e 01 00  	sll	$1, $1, 0x18
8002cf7c: 21 08 22 00  	addu	$1, $1, $2
8002cf80: 02 0e 01 00  	srl	$1, $1, 0x18
8002cf84: 54 00 c1 af  	sw	$1, 0x54($fp)
8002cf88: 54 00 c1 8f  	lw	$1, 0x54($fp)
8002cf8c: 01 00 02 24  	addiu	$2, $zero, 0x1
8002cf90: 0f 00 22 10  	beq	$1, $2, 0x8002cfd0 <.text+0xcfd0>
8002cf94: 00 00 00 00  	nop
8002cf98: e8 b3 00 08  	j	0x2cfa0 <.text+0xcfa0>
8002cf9c: 00 00 00 00  	nop
8002cfa0: 03 80 01 3c  	lui	$1, 0x8003
8002cfa4: 94 1e 25 24  	addiu	$5, $1, 0x1e94
8002cfa8: 20 00 c4 27  	addiu	$4, $fp, 0x20
8002cfac: 14 00 c4 af  	sw	$4, 0x14($fp)
8002cfb0: 01 00 06 24  	addiu	$6, $zero, 0x1
8002cfb4: a0 aa 00 0c  	jal	0x2aa80 <.text+0xaa80>
8002cfb8: 00 00 00 00  	nop
8002cfbc: 14 00 c4 8f  	lw	$4, 0x14($fp)
8002cfc0: 03 80 01 3c  	lui	$1, 0x8003
8002cfc4: 9c 1e 25 24  	addiu	$5, $1, 0x1e9c
8002cfc8: f6 b4 00 0c  	jal	0x2d3d8 <.text+0xd3d8>
8002cfcc: 00 00 00 00  	nop
8002cfd0: 18 00 c1 8f  	lw	$1, 0x18($fp)
8002cfd4: 1c 00 c2 8f  	lw	$2, 0x1c($fp)
8002cfd8: 48 00 c2 af  	sw	$2, 0x48($fp)
8002cfdc: 38 00 c2 af  	sw	$2, 0x38($fp)
8002cfe0: 3c 00 c1 af  	sw	$1, 0x3c($fp)
8002cfe4: 38 00 c4 8f  	lw	$4, 0x38($fp)
8002cfe8: 3c 00 c5 8f  	lw	$5, 0x3c($fp)
8002cfec: 03 b4 00 0c  	jal	0x2d00c <.text+0xd00c>
8002cff0: 00 00 00 00  	nop
8002cff4: 25 e8 c0 03  	move	$sp, $fp
8002cff8: 58 00 be 8f  	lw	$fp, 0x58($sp)
8002cffc: 5c 00 bf 8f  	lw	$ra, 0x5c($sp)
8002d000: 60 00 bd 27  	addiu	$sp, $sp, 0x60
8002d004: 08 00 e0 03  	jr	$ra
8002d008: 00 00 00 00  	nop
8002d00c: d0 ff bd 27  	addiu	$sp, $sp, -0x30
8002d010: 2c 00 bf af  	sw	$ra, 0x2c($sp)
8002d014: 28 00 be af  	sw	$fp, 0x28($sp)
8002d018: 25 f0 a0 03  	move	$fp, $sp
8002d01c: 18 00 c4 af  	sw	$4, 0x18($fp)
8002d020: 1c 00 c5 af  	sw	$5, 0x1c($fp)
8002d024: 20 00 c4 af  	sw	$4, 0x20($fp)
8002d028: 24 00 c4 af  	sw	$4, 0x24($fp)
8002d02c: 10 00 c4 af  	sw	$4, 0x10($fp)
8002d030: ff ff a1 24  	addiu	$1, $5, -0x1
8002d034: 14 00 c1 af  	sw	$1, 0x14($fp)
8002d038: 0d 00 a0 10  	beqz	$5, 0x8002d070 <.text+0xd070>
8002d03c: 00 00 00 00  	nop
8002d040: 12 b4 00 08  	j	0x2d048 <.text+0xd048>
8002d044: 00 00 00 00  	nop
8002d048: 10 00 c1 8f  	lw	$1, 0x10($fp)
8002d04c: 14 00 c2 8f  	lw	$2, 0x14($fp)
8002d050: 24 08 22 00  	and	$1, $1, $2
8002d054: 01 00 22 2c  	sltiu	$2, $1, 0x1
8002d058: 25 e8 c0 03  	move	$sp, $fp
8002d05c: 28 00 be 8f  	lw	$fp, 0x28($sp)
8002d060: 2c 00 bf 8f  	lw	$ra, 0x2c($sp)
8002d064: 30 00 bd 27  	addiu	$sp, $sp, 0x30
8002d068: 08 00 e0 03  	jr	$ra
8002d06c: 00 00 00 00  	nop
8002d070: 03 80 01 3c  	lui	$1, 0x8003
8002d074: ac 1e 24 24  	addiu	$4, $1, 0x1eac
8002d078: ce b2 00 0c  	jal	0x2cb38 <.text+0xcb38>
8002d07c: 00 00 00 00  	nop
8002d080: e0 ff bd 27  	addiu	$sp, $sp, -0x20
8002d084: 1c 00 bf af  	sw	$ra, 0x1c($sp)
8002d088: 18 00 be af  	sw	$fp, 0x18($sp)
8002d08c: 25 f0 a0 03  	move	$fp, $sp
8002d090: 10 00 c4 af  	sw	$4, 0x10($fp)
8002d094: 14 00 c5 af  	sw	$5, 0x14($fp)
8002d098: 47 9e 00 0c  	jal	0x2791c <.text+0x791c>
8002d09c: 00 00 00 00  	nop
8002d0a0: 25 e8 c0 03  	move	$sp, $fp
8002d0a4: 18 00 be 8f  	lw	$fp, 0x18($sp)
8002d0a8: 1c 00 bf 8f  	lw	$ra, 0x1c($sp)
8002d0ac: 20 00 bd 27  	addiu	$sp, $sp, 0x20
8002d0b0: 08 00 e0 03  	jr	$ra
8002d0b4: 00 00 00 00  	nop
8002d0b8: e0 ff bd 27  	addiu	$sp, $sp, -0x20
8002d0bc: 1c 00 bf af  	sw	$ra, 0x1c($sp)
8002d0c0: 18 00 be af  	sw	$fp, 0x18($sp)
8002d0c4: 25 f0 a0 03  	move	$fp, $sp
8002d0c8: 10 00 c4 af  	sw	$4, 0x10($fp)
8002d0cc: 14 00 c5 af  	sw	$5, 0x14($fp)
8002d0d0: 65 9e 00 0c  	jal	0x27994 <.text+0x7994>
8002d0d4: 00 00 00 00  	nop
8002d0d8: 25 e8 c0 03  	move	$sp, $fp
8002d0dc: 18 00 be 8f  	lw	$fp, 0x18($sp)
8002d0e0: 1c 00 bf 8f  	lw	$ra, 0x1c($sp)
8002d0e4: 20 00 bd 27  	addiu	$sp, $sp, 0x20
8002d0e8: 08 00 e0 03  	jr	$ra
8002d0ec: 00 00 00 00  	nop
8002d0f0: f0 ff bd 27  	addiu	$sp, $sp, -0x10
8002d0f4: 0c 00 bf af  	sw	$ra, 0xc($sp)
8002d0f8: 08 00 be af  	sw	$fp, 0x8($sp)
8002d0fc: 25 f0 a0 03  	move	$fp, $sp
8002d100: 25 10 80 00  	move	$2, $4
8002d104: 00 00 c2 af  	sw	$2, 0x0($fp)
8002d108: 04 00 c5 af  	sw	$5, 0x4($fp)
8002d10c: 25 e8 c0 03  	move	$sp, $fp
8002d110: 08 00 be 8f  	lw	$fp, 0x8($sp)
8002d114: 0c 00 bf 8f  	lw	$ra, 0xc($sp)
8002d118: 10 00 bd 27  	addiu	$sp, $sp, 0x10
8002d11c: 08 00 e0 03  	jr	$ra
8002d120: 00 00 00 00  	nop
8002d124: f0 ff bd 27  	addiu	$sp, $sp, -0x10
8002d128: 0c 00 bf af  	sw	$ra, 0xc($sp)
8002d12c: 08 00 be af  	sw	$fp, 0x8($sp)
8002d130: 25 f0 a0 03  	move	$fp, $sp
8002d134: 25 10 80 00  	move	$2, $4
8002d138: 00 00 c2 af  	sw	$2, 0x0($fp)
8002d13c: 04 00 c5 af  	sw	$5, 0x4($fp)
8002d140: 25 e8 c0 03  	move	$sp, $fp
8002d144: 08 00 be 8f  	lw	$fp, 0x8($sp)
8002d148: 0c 00 bf 8f  	lw	$ra, 0xc($sp)
8002d14c: 10 00 bd 27  	addiu	$sp, $sp, 0x10
8002d150: 08 00 e0 03  	jr	$ra
8002d154: 00 00 00 00  	nop
8002d158: e8 ff bd 27  	addiu	$sp, $sp, -0x18
8002d15c: 14 00 bf af  	sw	$ra, 0x14($sp)
8002d160: 10 00 be af  	sw	$fp, 0x10($sp)
8002d164: 25 f0 a0 03  	move	$fp, $sp
8002d168: 08 00 c4 af  	sw	$4, 0x8($fp)
8002d16c: 0c 00 c5 af  	sw	$5, 0xc($fp)
8002d170: 00 00 c4 af  	sw	$4, 0x0($fp)
8002d174: 04 00 c5 af  	sw	$5, 0x4($fp)
8002d178: 00 00 c2 8f  	lw	$2, 0x0($fp)
8002d17c: 04 00 c3 8f  	lw	$3, 0x4($fp)
8002d180: 25 e8 c0 03  	move	$sp, $fp
8002d184: 10 00 be 8f  	lw	$fp, 0x10($sp)
8002d188: 14 00 bf 8f  	lw	$ra, 0x14($sp)
8002d18c: 18 00 bd 27  	addiu	$sp, $sp, 0x18
8002d190: 08 00 e0 03  	jr	$ra
8002d194: 00 00 00 00  	nop
8002d198: e0 ff bd 27  	addiu	$sp, $sp, -0x20
8002d19c: 1c 00 bf af  	sw	$ra, 0x1c($sp)
8002d1a0: 18 00 be af  	sw	$fp, 0x18($sp)
8002d1a4: 25 f0 a0 03  	move	$fp, $sp
8002d1a8: 14 00 c4 af  	sw	$4, 0x14($fp)
8002d1ac: 4a 98 00 0c  	jal	0x26128 <.text+0x6128>
8002d1b0: 00 00 00 00  	nop
8002d1b4: 25 e8 c0 03  	move	$sp, $fp
8002d1b8: 18 00 be 8f  	lw	$fp, 0x18($sp)
8002d1bc: 1c 00 bf 8f  	lw	$ra, 0x1c($sp)
8002d1c0: 20 00 bd 27  	addiu	$sp, $sp, 0x20
8002d1c4: 08 00 e0 03  	jr	$ra
8002d1c8: 00 00 00 00  	nop
8002d1cc: f0 ff bd 27  	addiu	$sp, $sp, -0x10
8002d1d0: 0c 00 bf af  	sw	$ra, 0xc($sp)
8002d1d4: 08 00 be af  	sw	$fp, 0x8($sp)
8002d1d8: 25 f0 a0 03  	move	$fp, $sp
8002d1dc: 25 18 a0 00  	move	$3, $5
8002d1e0: 25 10 80 00  	move	$2, $4
8002d1e4: 00 00 c2 af  	sw	$2, 0x0($fp)
8002d1e8: 04 00 c3 af  	sw	$3, 0x4($fp)
8002d1ec: 25 e8 c0 03  	move	$sp, $fp
8002d1f0: 08 00 be 8f  	lw	$fp, 0x8($sp)
8002d1f4: 0c 00 bf 8f  	lw	$ra, 0xc($sp)
8002d1f8: 10 00 bd 27  	addiu	$sp, $sp, 0x10
8002d1fc: 08 00 e0 03  	jr	$ra
8002d200: 00 00 00 00  	nop
8002d204: a8 ff bd 27  	addiu	$sp, $sp, -0x58
8002d208: 54 00 bf af  	sw	$ra, 0x54($sp)
8002d20c: 50 00 be af  	sw	$fp, 0x50($sp)
8002d210: 25 f0 a0 03  	move	$fp, $sp
8002d214: 18 00 c5 af  	sw	$5, 0x18($fp)
8002d218: 1c 00 c4 af  	sw	$4, 0x1c($fp)
8002d21c: 44 00 c4 af  	sw	$4, 0x44($fp)
8002d220: 48 00 c5 af  	sw	$5, 0x48($fp)
8002d224: 24 00 c0 af  	sw	$zero, 0x24($fp)
8002d228: 28 00 c5 af  	sw	$5, 0x28($fp)
8002d22c: 24 00 c4 8f  	lw	$4, 0x24($fp)
8002d230: 28 00 c5 8f  	lw	$5, 0x28($fp)
8002d234: a9 b6 00 0c  	jal	0x2daa4 <.text+0xdaa4>
8002d238: 00 00 00 00  	nop
8002d23c: 2c 00 c2 af  	sw	$2, 0x2c($fp)
8002d240: 30 00 c3 af  	sw	$3, 0x30($fp)
8002d244: 93 b4 00 08  	j	0x2d24c <.text+0xd24c>
8002d248: 00 00 00 00  	nop
8002d24c: 2c 00 c4 27  	addiu	$4, $fp, 0x2c
8002d250: 9c b6 00 0c  	jal	0x2da70 <.text+0xda70>
8002d254: 00 00 00 00  	nop
8002d258: 34 00 c2 af  	sw	$2, 0x34($fp)
8002d25c: 38 00 c3 af  	sw	$3, 0x38($fp)
8002d260: 34 00 c1 8f  	lw	$1, 0x34($fp)
8002d264: 06 00 20 14  	bnez	$1, 0x8002d280 <.text+0xd280>
8002d268: 00 00 00 00  	nop
8002d26c: 9d b4 00 08  	j	0x2d274 <.text+0xd274>
8002d270: 00 00 00 00  	nop
8002d274: 20 00 c0 af  	sw	$zero, 0x20($fp)
8002d278: af b4 00 08  	j	0x2d2bc <.text+0xd2bc>
8002d27c: 00 00 00 00  	nop
8002d280: 1c 00 c4 8f  	lw	$4, 0x1c($fp)
8002d284: 38 00 c1 8f  	lw	$1, 0x38($fp)
8002d288: 14 00 c1 af  	sw	$1, 0x14($fp)
8002d28c: 4c 00 c1 af  	sw	$1, 0x4c($fp)
8002d290: da b5 00 0c  	jal	0x2d768 <.text+0xd768>
8002d294: 00 00 00 00  	nop
8002d298: 3c 00 c2 af  	sw	$2, 0x3c($fp)
8002d29c: 40 00 c3 af  	sw	$3, 0x40($fp)
8002d2a0: 3c 00 c4 27  	addiu	$4, $fp, 0x3c
8002d2a4: ad bb 00 0c  	jal	0x2eeb4 <.text+0xeeb4>
8002d2a8: 00 00 00 00  	nop
8002d2ac: 0c 00 40 14  	bnez	$2, 0x8002d2e0 <.text+0xd2e0>
8002d2b0: 00 00 00 00  	nop
8002d2b4: b6 b4 00 08  	j	0x2d2d8 <.text+0xd2d8>
8002d2b8: 00 00 00 00  	nop
8002d2bc: 20 00 c2 8f  	lw	$2, 0x20($fp)
8002d2c0: 25 e8 c0 03  	move	$sp, $fp
8002d2c4: 50 00 be 8f  	lw	$fp, 0x50($sp)
8002d2c8: 54 00 bf 8f  	lw	$ra, 0x54($sp)
8002d2cc: 58 00 bd 27  	addiu	$sp, $sp, 0x58
8002d2d0: 08 00 e0 03  	jr	$ra
8002d2d4: 00 00 00 00  	nop
8002d2d8: 93 b4 00 08  	j	0x2d24c <.text+0xd24c>
8002d2dc: 00 00 00 00  	nop
8002d2e0: 18 00 c1 8f  	lw	$1, 0x18($fp)
8002d2e4: 14 00 c2 8f  	lw	$2, 0x14($fp)
8002d2e8: 23 18 22 00  	subu	$3, $1, $2
8002d2ec: 10 00 c3 af  	sw	$3, 0x10($fp)
8002d2f0: 2b 08 22 00  	sltu	$1, $1, $2
8002d2f4: 09 00 20 14  	bnez	$1, 0x8002d31c <.text+0xd31c>
8002d2f8: 00 00 00 00  	nop
8002d2fc: c1 b4 00 08  	j	0x2d304 <.text+0xd304>
8002d300: 00 00 00 00  	nop
8002d304: 10 00 c4 8f  	lw	$4, 0x10($fp)
8002d308: 97 98 00 0c  	jal	0x2625c <.text+0x625c>
8002d30c: 00 00 00 00  	nop
8002d310: 20 00 c2 af  	sw	$2, 0x20($fp)
8002d314: af b4 00 08  	j	0x2d2bc <.text+0xd2bc>
8002d318: 00 00 00 00  	nop
8002d31c: 03 80 01 3c  	lui	$1, 0x8003
8002d320: 3c 1f 24 24  	addiu	$4, $1, 0x1f3c
8002d324: ce b2 00 0c  	jal	0x2cb38 <.text+0xcb38>
8002d328: 00 00 00 00  	nop
8002d32c: c8 ff bd 27  	addiu	$sp, $sp, -0x38
8002d330: 34 00 bf af  	sw	$ra, 0x34($sp)
8002d334: 30 00 be af  	sw	$fp, 0x30($sp)
8002d338: 25 f0 a0 03  	move	$fp, $sp
8002d33c: 14 00 c4 af  	sw	$4, 0x14($fp)
8002d340: 28 00 c4 af  	sw	$4, 0x28($fp)
8002d344: 2c 00 c5 af  	sw	$5, 0x2c($fp)
8002d348: 81 b4 00 0c  	jal	0x2d204 <.text+0xd204>
8002d34c: 00 00 00 00  	nop
8002d350: 25 20 40 00  	move	$4, $2
8002d354: 61 bd 00 0c  	jal	0x2f584 <.text+0xf584>
8002d358: 00 00 00 00  	nop
8002d35c: 25 20 40 00  	move	$4, $2
8002d360: 2f bc 00 0c  	jal	0x2f0bc <.text+0xf0bc>
8002d364: 00 00 00 00  	nop
8002d368: 27 00 c2 a3  	sb	$2, 0x27($fp)
8002d36c: 27 00 c1 93  	lbu	$1, 0x27($fp)
8002d370: 01 00 21 30  	andi	$1, $1, 0x1
8002d374: 0a 00 20 14  	bnez	$1, 0x8002d3a0 <.text+0xd3a0>
8002d378: 00 00 00 00  	nop
8002d37c: e1 b4 00 08  	j	0x2d384 <.text+0xd384>
8002d380: 00 00 00 00  	nop
8002d384: 14 00 c4 8f  	lw	$4, 0x14($fp)
8002d388: da b5 00 0c  	jal	0x2d768 <.text+0xd768>
8002d38c: 00 00 00 00  	nop
8002d390: 1c 00 c2 af  	sw	$2, 0x1c($fp)
8002d394: 20 00 c3 af  	sw	$3, 0x20($fp)
8002d398: ee b4 00 08  	j	0x2d3b8 <.text+0xd3b8>
8002d39c: 00 00 00 00  	nop
8002d3a0: bc bc 00 0c  	jal	0x2f2f0 <.text+0xf2f0>
8002d3a4: 00 00 00 00  	nop
8002d3a8: 1c 00 c2 af  	sw	$2, 0x1c($fp)
8002d3ac: 20 00 c3 af  	sw	$3, 0x20($fp)
8002d3b0: ee b4 00 08  	j	0x2d3b8 <.text+0xd3b8>
8002d3b4: 00 00 00 00  	nop
8002d3b8: 1c 00 c2 8f  	lw	$2, 0x1c($fp)
8002d3bc: 20 00 c3 8f  	lw	$3, 0x20($fp)
8002d3c0: 25 e8 c0 03  	move	$sp, $fp
8002d3c4: 30 00 be 8f  	lw	$fp, 0x30($sp)
8002d3c8: 34 00 bf 8f  	lw	$ra, 0x34($sp)
8002d3cc: 38 00 bd 27  	addiu	$sp, $sp, 0x38
8002d3d0: 08 00 e0 03  	jr	$ra
8002d3d4: 00 00 00 00  	nop
8002d3d8: b8 ff bd 27  	addiu	$sp, $sp, -0x48
8002d3dc: 44 00 bf af  	sw	$ra, 0x44($sp)
8002d3e0: 40 00 be af  	sw	$fp, 0x40($sp)
8002d3e4: 25 f0 a0 03  	move	$fp, $sp
8002d3e8: 20 00 c5 af  	sw	$5, 0x20($fp)
8002d3ec: 24 00 c4 af  	sw	$4, 0x24($fp)
8002d3f0: fe b4 00 08  	j	0x2d3f8 <.text+0xd3f8>
8002d3f4: 00 00 00 00  	nop
8002d3f8: 20 00 c4 8f  	lw	$4, 0x20($fp)
8002d3fc: 24 00 c1 8f  	lw	$1, 0x24($fp)
8002d400: 3c 00 c1 af  	sw	$1, 0x3c($fp)
8002d404: fd bc 00 0c  	jal	0x2f3f4 <.text+0xf3f4>
8002d408: 00 00 00 00  	nop
8002d40c: 25 30 40 00  	move	$6, $2
8002d410: 3c 00 c5 8f  	lw	$5, 0x3c($fp)
8002d414: 25 08 a0 03  	move	$1, $sp
8002d418: 10 00 20 ac  	sw	$zero, 0x10($1)
8002d41c: 28 00 c4 27  	addiu	$4, $fp, 0x28
8002d420: 1c 00 c4 af  	sw	$4, 0x1c($fp)
8002d424: 01 00 07 24  	addiu	$7, $zero, 0x1
8002d428: 81 9a 00 0c  	jal	0x26a04 <.text+0x6a04>
8002d42c: 00 00 00 00  	nop
8002d430: 1c 00 c4 8f  	lw	$4, 0x1c($fp)
8002d434: e5 85 00 0c  	jal	0x21794 <.text+0x1794>
8002d438: 00 00 00 00  	nop
8002d43c: c8 ff bd 27  	addiu	$sp, $sp, -0x38
8002d440: 34 00 bf af  	sw	$ra, 0x34($sp)
8002d444: 30 00 be af  	sw	$fp, 0x30($sp)
8002d448: 25 f0 a0 03  	move	$fp, $sp
8002d44c: 2f 00 c5 a3  	sb	$5, 0x2f($fp)
8002d450: 14 00 81 8c  	lw	$1, 0x14($4)
8002d454: 24 00 c1 af  	sw	$1, 0x24($fp)
8002d458: 10 00 81 8c  	lw	$1, 0x10($4)
8002d45c: 20 00 c1 af  	sw	$1, 0x20($fp)
8002d460: 0c 00 81 8c  	lw	$1, 0xc($4)
8002d464: 1c 00 c1 af  	sw	$1, 0x1c($fp)
8002d468: 08 00 81 8c  	lw	$1, 0x8($4)
8002d46c: 18 00 c1 af  	sw	$1, 0x18($fp)
8002d470: 04 00 81 8c  	lw	$1, 0x4($4)
8002d474: 14 00 c1 af  	sw	$1, 0x14($fp)
8002d478: 00 00 81 8c  	lw	$1, 0x0($4)
8002d47c: 10 00 c1 af  	sw	$1, 0x10($fp)
8002d480: 28 00 c5 a3  	sb	$5, 0x28($fp)
8002d484: 28 00 c1 93  	lbu	$1, 0x28($fp)
8002d488: 01 00 25 30  	andi	$5, $1, 0x1
8002d48c: 10 00 c4 27  	addiu	$4, $fp, 0x10
8002d490: 26 b5 00 0c  	jal	0x2d498 <.text+0xd498>
8002d494: 00 00 00 00  	nop
8002d498: b0 ff bd 27  	addiu	$sp, $sp, -0x50
8002d49c: 4c 00 bf af  	sw	$ra, 0x4c($sp)
8002d4a0: 48 00 be af  	sw	$fp, 0x48($sp)
8002d4a4: 25 f0 a0 03  	move	$fp, $sp
8002d4a8: 20 00 c6 af  	sw	$6, 0x20($fp)
8002d4ac: 24 00 c4 af  	sw	$4, 0x24($fp)
8002d4b0: 25 08 a0 00  	move	$1, $5
8002d4b4: 28 00 c1 af  	sw	$1, 0x28($fp)
8002d4b8: 47 00 c5 a3  	sb	$5, 0x47($fp)
8002d4bc: 31 b5 00 08  	j	0x2d4c4 <.text+0xd4c4>
8002d4c0: 00 00 00 00  	nop
8002d4c4: 20 00 c4 8f  	lw	$4, 0x20($fp)
8002d4c8: 24 00 c1 8f  	lw	$1, 0x24($fp)
8002d4cc: 40 00 c1 af  	sw	$1, 0x40($fp)
8002d4d0: fd bc 00 0c  	jal	0x2f3f4 <.text+0xf3f4>
8002d4d4: 00 00 00 00  	nop
8002d4d8: 28 00 c1 8f  	lw	$1, 0x28($fp)
8002d4dc: 25 30 40 00  	move	$6, $2
8002d4e0: 40 00 c5 8f  	lw	$5, 0x40($fp)
8002d4e4: 01 00 21 30  	andi	$1, $1, 0x1
8002d4e8: 25 10 a0 03  	move	$2, $sp
8002d4ec: 10 00 41 ac  	sw	$1, 0x10($2)
8002d4f0: 2c 00 c4 27  	addiu	$4, $fp, 0x2c
8002d4f4: 1c 00 c4 af  	sw	$4, 0x1c($fp)
8002d4f8: 00 00 07 24  	addiu	$7, $zero, 0x0
8002d4fc: 81 9a 00 0c  	jal	0x26a04 <.text+0x6a04>
8002d500: 00 00 00 00  	nop
8002d504: 1c 00 c4 8f  	lw	$4, 0x1c($fp)
8002d508: e5 85 00 0c  	jal	0x21794 <.text+0x1794>
8002d50c: 00 00 00 00  	nop
8002d510: b8 ff bd 27  	addiu	$sp, $sp, -0x48
8002d514: 44 00 bf af  	sw	$ra, 0x44($sp)
8002d518: 40 00 be af  	sw	$fp, 0x40($sp)
8002d51c: 25 f0 a0 03  	move	$fp, $sp
8002d520: 14 00 c6 af  	sw	$6, 0x14($fp)
8002d524: 38 00 c4 af  	sw	$4, 0x38($fp)
8002d528: 3c 00 c5 af  	sw	$5, 0x3c($fp)
8002d52c: 30 00 c4 af  	sw	$4, 0x30($fp)
8002d530: 34 00 c5 af  	sw	$5, 0x34($fp)
8002d534: 18 00 c4 27  	addiu	$4, $fp, 0x18
8002d538: 10 00 c4 af  	sw	$4, 0x10($fp)
8002d53c: 30 00 c5 27  	addiu	$5, $fp, 0x30
8002d540: 01 00 06 24  	addiu	$6, $zero, 0x1
8002d544: a0 aa 00 0c  	jal	0x2aa80 <.text+0xaa80>
8002d548: 00 00 00 00  	nop
8002d54c: 10 00 c4 8f  	lw	$4, 0x10($fp)
8002d550: 14 00 c5 8f  	lw	$5, 0x14($fp)
8002d554: f6 b4 00 0c  	jal	0x2d3d8 <.text+0xd3d8>
8002d558: 00 00 00 00  	nop
8002d55c: b8 ff bd 27  	addiu	$sp, $sp, -0x48
8002d560: 44 00 bf af  	sw	$ra, 0x44($sp)
8002d564: 40 00 be af  	sw	$fp, 0x40($sp)
8002d568: 25 f0 a0 03  	move	$fp, $sp
8002d56c: 38 00 c4 af  	sw	$4, 0x38($fp)
8002d570: 3c 00 c5 af  	sw	$5, 0x3c($fp)
8002d574: 30 00 c4 af  	sw	$4, 0x30($fp)
8002d578: 34 00 c5 af  	sw	$5, 0x34($fp)
8002d57c: 18 00 c4 27  	addiu	$4, $fp, 0x18
8002d580: 14 00 c4 af  	sw	$4, 0x14($fp)
8002d584: 30 00 c5 27  	addiu	$5, $fp, 0x30
8002d588: 01 00 06 24  	addiu	$6, $zero, 0x1
8002d58c: a0 aa 00 0c  	jal	0x2aa80 <.text+0xaa80>
8002d590: 00 00 00 00  	nop
8002d594: 14 00 c4 8f  	lw	$4, 0x14($fp)
8002d598: 03 80 01 3c  	lui	$1, 0x8003
8002d59c: c4 1f 26 24  	addiu	$6, $1, 0x1fc4
8002d5a0: 00 00 05 24  	addiu	$5, $zero, 0x0
8002d5a4: 0f b5 00 0c  	jal	0x2d43c <.text+0xd43c>
8002d5a8: 00 00 00 00  	nop
8002d5ac: 80 ff bd 27  	addiu	$sp, $sp, -0x80
8002d5b0: 7c 00 bf af  	sw	$ra, 0x7c($sp)
8002d5b4: 78 00 be af  	sw	$fp, 0x78($sp)
8002d5b8: 25 f0 a0 03  	move	$fp, $sp
8002d5bc: 1c 00 c6 af  	sw	$6, 0x1c($fp)
8002d5c0: 20 00 c4 af  	sw	$4, 0x20($fp)
8002d5c4: 24 00 c5 af  	sw	$5, 0x24($fp)
8002d5c8: 74 b5 00 08  	j	0x2d5d0 <.text+0xd5d0>
8002d5cc: 00 00 00 00  	nop
8002d5d0: 24 00 c2 27  	addiu	$2, $fp, 0x24
8002d5d4: 64 00 c2 af  	sw	$2, 0x64($fp)
8002d5d8: 70 00 c2 af  	sw	$2, 0x70($fp)
8002d5dc: 02 80 01 3c  	lui	$1, 0x8002
8002d5e0: 74 77 21 24  	addiu	$1, $1, 0x7774
8002d5e4: 74 00 c1 af  	sw	$1, 0x74($fp)
8002d5e8: 68 00 c2 af  	sw	$2, 0x68($fp)
8002d5ec: 6c 00 c1 af  	sw	$1, 0x6c($fp)
8002d5f0: 68 00 c4 8f  	lw	$4, 0x68($fp)
8002d5f4: 6c 00 c3 8f  	lw	$3, 0x6c($fp)
8002d5f8: 20 00 c2 27  	addiu	$2, $fp, 0x20
8002d5fc: 50 00 c2 af  	sw	$2, 0x50($fp)
8002d600: 5c 00 c2 af  	sw	$2, 0x5c($fp)
8002d604: 60 00 c1 af  	sw	$1, 0x60($fp)
8002d608: 54 00 c2 af  	sw	$2, 0x54($fp)
8002d60c: 58 00 c1 af  	sw	$1, 0x58($fp)
8002d610: 54 00 c2 8f  	lw	$2, 0x54($fp)
8002d614: 58 00 c1 8f  	lw	$1, 0x58($fp)
8002d618: 40 00 c4 af  	sw	$4, 0x40($fp)
8002d61c: 44 00 c3 af  	sw	$3, 0x44($fp)
8002d620: 48 00 c2 af  	sw	$2, 0x48($fp)
8002d624: 4c 00 c1 af  	sw	$1, 0x4c($fp)
8002d628: 25 08 a0 03  	move	$1, $sp
8002d62c: 02 00 06 24  	addiu	$6, $zero, 0x2
8002d630: 10 00 26 ac  	sw	$6, 0x10($1)
8002d634: 03 80 01 3c  	lui	$1, 0x8003
8002d638: e8 1f 25 24  	addiu	$5, $1, 0x1fe8
8002d63c: 28 00 c4 27  	addiu	$4, $fp, 0x28
8002d640: 18 00 c4 af  	sw	$4, 0x18($fp)
8002d644: 40 00 c7 27  	addiu	$7, $fp, 0x40
8002d648: d0 aa 00 0c  	jal	0x2ab40 <.text+0xab40>
8002d64c: 00 00 00 00  	nop
8002d650: 18 00 c4 8f  	lw	$4, 0x18($fp)
8002d654: 1c 00 c5 8f  	lw	$5, 0x1c($fp)
8002d658: f6 b4 00 0c  	jal	0x2d3d8 <.text+0xd3d8>
8002d65c: 00 00 00 00  	nop
8002d660: e0 ff bd 27  	addiu	$sp, $sp, -0x20
8002d664: 1c 00 bf af  	sw	$ra, 0x1c($sp)
8002d668: 18 00 be af  	sw	$fp, 0x18($sp)
8002d66c: 25 f0 a0 03  	move	$fp, $sp
8002d670: 14 00 c4 af  	sw	$4, 0x14($fp)
8002d674: 5d b8 00 0c  	jal	0x2e174 <.text+0xe174>
8002d678: 00 00 00 00  	nop
8002d67c: 25 20 40 00  	move	$4, $2
8002d680: 25 28 60 00  	move	$5, $3
8002d684: 02 bc 00 0c  	jal	0x2f008 <.text+0xf008>
8002d688: 00 00 00 00  	nop
8002d68c: 25 e8 c0 03  	move	$sp, $fp
8002d690: 18 00 be 8f  	lw	$fp, 0x18($sp)
8002d694: 1c 00 bf 8f  	lw	$ra, 0x1c($sp)
8002d698: 20 00 bd 27  	addiu	$sp, $sp, 0x20
8002d69c: 08 00 e0 03  	jr	$ra
8002d6a0: 00 00 00 00  	nop
8002d6a4: e0 ff bd 27  	addiu	$sp, $sp, -0x20
8002d6a8: 1c 00 bf af  	sw	$ra, 0x1c($sp)
8002d6ac: 18 00 be af  	sw	$fp, 0x18($sp)
8002d6b0: 25 f0 a0 03  	move	$fp, $sp
8002d6b4: 14 00 c4 af  	sw	$4, 0x14($fp)
8002d6b8: 29 b9 00 0c  	jal	0x2e4a4 <.text+0xe4a4>
8002d6bc: 00 00 00 00  	nop
8002d6c0: 25 e8 c0 03  	move	$sp, $fp
8002d6c4: 18 00 be 8f  	lw	$fp, 0x18($sp)
8002d6c8: 1c 00 bf 8f  	lw	$ra, 0x1c($sp)
8002d6cc: 20 00 bd 27  	addiu	$sp, $sp, 0x20
8002d6d0: 08 00 e0 03  	jr	$ra
8002d6d4: 00 00 00 00  	nop
8002d6d8: e0 ff bd 27  	addiu	$sp, $sp, -0x20
8002d6dc: 1c 00 bf af  	sw	$ra, 0x1c($sp)
8002d6e0: 18 00 be af  	sw	$fp, 0x18($sp)
8002d6e4: 25 f0 a0 03  	move	$fp, $sp
8002d6e8: 10 00 c4 af  	sw	$4, 0x10($fp)
8002d6ec: 14 00 c5 af  	sw	$5, 0x14($fp)
8002d6f0: 10 00 c4 27  	addiu	$4, $fp, 0x10
8002d6f4: c9 b5 00 0c  	jal	0x2d724 <.text+0xd724>
8002d6f8: 00 00 00 00  	nop
8002d6fc: 25 20 40 00  	move	$4, $2
8002d700: 25 28 60 00  	move	$5, $3
8002d704: f0 a5 00 0c  	jal	0x297c0 <.text+0x97c0>
8002d708: 00 00 00 00  	nop
8002d70c: 25 e8 c0 03  	move	$sp, $fp
8002d710: 18 00 be 8f  	lw	$fp, 0x18($sp)
8002d714: 1c 00 bf 8f  	lw	$ra, 0x1c($sp)
8002d718: 20 00 bd 27  	addiu	$sp, $sp, 0x20
8002d71c: 08 00 e0 03  	jr	$ra
8002d720: 00 00 00 00  	nop
8002d724: e0 ff bd 27  	addiu	$sp, $sp, -0x20
8002d728: 1c 00 bf af  	sw	$ra, 0x1c($sp)
8002d72c: 18 00 be af  	sw	$fp, 0x18($sp)
8002d730: 25 f0 a0 03  	move	$fp, $sp
8002d734: 14 00 c4 af  	sw	$4, 0x14($fp)
8002d738: 38 96 00 0c  	jal	0x258e0 <.text+0x58e0>
8002d73c: 00 00 00 00  	nop
8002d740: 25 20 40 00  	move	$4, $2
8002d744: 25 28 60 00  	move	$5, $3
8002d748: d2 9b 00 0c  	jal	0x26f48 <.text+0x6f48>
8002d74c: 00 00 00 00  	nop
8002d750: 25 e8 c0 03  	move	$sp, $fp
8002d754: 18 00 be 8f  	lw	$fp, 0x18($sp)
8002d758: 1c 00 bf 8f  	lw	$ra, 0x1c($sp)
8002d75c: 20 00 bd 27  	addiu	$sp, $sp, 0x20
8002d760: 08 00 e0 03  	jr	$ra
8002d764: 00 00 00 00  	nop
8002d768: 88 ff bd 27  	addiu	$sp, $sp, -0x78
8002d76c: 74 00 bf af  	sw	$ra, 0x74($sp)
8002d770: 70 00 be af  	sw	$fp, 0x70($sp)
8002d774: 25 f0 a0 03  	move	$fp, $sp
8002d778: 25 08 80 00  	move	$1, $4
8002d77c: 20 00 c1 af  	sw	$1, 0x20($fp)
8002d780: 3c 00 c1 af  	sw	$1, 0x3c($fp)
8002d784: 64 00 c1 af  	sw	$1, 0x64($fp)
8002d788: 04 00 22 24  	addiu	$2, $1, 0x4
8002d78c: 6c 00 c2 af  	sw	$2, 0x6c($fp)
8002d790: 04 00 24 8c  	lw	$4, 0x4($1)
8002d794: 68 00 c4 af  	sw	$4, 0x68($fp)
8002d798: 00 00 25 8c  	lw	$5, 0x0($1)
8002d79c: 75 ba 00 0c  	jal	0x2e9d4 <.text+0xe9d4>
8002d7a0: 00 00 00 00  	nop
8002d7a4: 20 00 c4 8f  	lw	$4, 0x20($fp)
8002d7a8: 60 00 c2 af  	sw	$2, 0x60($fp)
8002d7ac: 60 00 c1 8f  	lw	$1, 0x60($fp)
8002d7b0: 24 00 c1 af  	sw	$1, 0x24($fp)
8002d7b4: 40 00 c1 af  	sw	$1, 0x40($fp)
8002d7b8: 98 b5 00 0c  	jal	0x2d660 <.text+0xd660>
8002d7bc: 00 00 00 00  	nop
8002d7c0: 30 00 c2 af  	sw	$2, 0x30($fp)
8002d7c4: 30 00 c1 8f  	lw	$1, 0x30($fp)
8002d7c8: 11 00 02 3c  	lui	$2, 0x11
8002d7cc: 07 00 22 14  	bne	$1, $2, 0x8002d7ec <.text+0xd7ec>
8002d7d0: 00 00 00 00  	nop
8002d7d4: f7 b5 00 08  	j	0x2d7dc <.text+0xd7dc>
8002d7d8: 00 00 00 00  	nop
8002d7dc: 11 00 01 3c  	lui	$1, 0x11
8002d7e0: 2c 00 c1 af  	sw	$1, 0x2c($fp)
8002d7e4: 15 b6 00 08  	j	0x2d854 <.text+0xd854>
8002d7e8: 00 00 00 00  	nop
8002d7ec: 20 00 c1 8f  	lw	$1, 0x20($fp)
8002d7f0: 30 00 c2 8f  	lw	$2, 0x30($fp)
8002d7f4: 14 00 c2 af  	sw	$2, 0x14($fp)
8002d7f8: 44 00 c2 af  	sw	$2, 0x44($fp)
8002d7fc: 08 00 22 8c  	lw	$2, 0x8($1)
8002d800: 18 00 c2 af  	sw	$2, 0x18($fp)
8002d804: 48 00 c2 af  	sw	$2, 0x48($fp)
8002d808: 54 00 c1 af  	sw	$1, 0x54($fp)
8002d80c: 04 00 22 24  	addiu	$2, $1, 0x4
8002d810: 5c 00 c2 af  	sw	$2, 0x5c($fp)
8002d814: 04 00 24 8c  	lw	$4, 0x4($1)
8002d818: 58 00 c4 af  	sw	$4, 0x58($fp)
8002d81c: 00 00 25 8c  	lw	$5, 0x0($1)
8002d820: 75 ba 00 0c  	jal	0x2e9d4 <.text+0xe9d4>
8002d824: 00 00 00 00  	nop
8002d828: 24 00 c1 8f  	lw	$1, 0x24($fp)
8002d82c: 50 00 c2 af  	sw	$2, 0x50($fp)
8002d830: 50 00 c2 8f  	lw	$2, 0x50($fp)
8002d834: 4c 00 c2 af  	sw	$2, 0x4c($fp)
8002d838: 23 18 22 00  	subu	$3, $1, $2
8002d83c: 1c 00 c3 af  	sw	$3, 0x1c($fp)
8002d840: 2b 08 22 00  	sltu	$1, $1, $2
8002d844: 15 00 20 14  	bnez	$1, 0x8002d89c <.text+0xd89c>
8002d848: 00 00 00 00  	nop
8002d84c: 1d b6 00 08  	j	0x2d874 <.text+0xd874>
8002d850: 00 00 00 00  	nop
8002d854: 28 00 c2 8f  	lw	$2, 0x28($fp)
8002d858: 2c 00 c3 8f  	lw	$3, 0x2c($fp)
8002d85c: 25 e8 c0 03  	move	$sp, $fp
8002d860: 70 00 be 8f  	lw	$fp, 0x70($sp)
8002d864: 74 00 bf 8f  	lw	$ra, 0x74($sp)
8002d868: 78 00 bd 27  	addiu	$sp, $sp, 0x78
8002d86c: 08 00 e0 03  	jr	$ra
8002d870: 00 00 00 00  	nop
8002d874: 1c 00 c1 8f  	lw	$1, 0x1c($fp)
8002d878: 20 00 c2 8f  	lw	$2, 0x20($fp)
8002d87c: 08 00 42 8c  	lw	$2, 0x8($2)
8002d880: 21 08 41 00  	addu	$1, $2, $1
8002d884: 10 00 c1 af  	sw	$1, 0x10($fp)
8002d888: 2b 08 22 00  	sltu	$1, $1, $2
8002d88c: 14 00 20 14  	bnez	$1, 0x8002d8e0 <.text+0xd8e0>
8002d890: 00 00 00 00  	nop
8002d894: 2b b6 00 08  	j	0x2d8ac <.text+0xd8ac>
8002d898: 00 00 00 00  	nop
8002d89c: 03 80 01 3c  	lui	$1, 0x8003
8002d8a0: 6c 20 24 24  	addiu	$4, $1, 0x206c
8002d8a4: ce b2 00 0c  	jal	0x2cb38 <.text+0xcb38>
8002d8a8: 00 00 00 00  	nop
8002d8ac: 14 00 c1 8f  	lw	$1, 0x14($fp)
8002d8b0: 18 00 c2 8f  	lw	$2, 0x18($fp)
8002d8b4: 10 00 c3 8f  	lw	$3, 0x10($fp)
8002d8b8: 20 00 c4 8f  	lw	$4, 0x20($fp)
8002d8bc: 08 00 83 ac  	sw	$3, 0x8($4)
8002d8c0: 34 00 c2 af  	sw	$2, 0x34($fp)
8002d8c4: 38 00 c1 af  	sw	$1, 0x38($fp)
8002d8c8: 34 00 c2 8f  	lw	$2, 0x34($fp)
8002d8cc: 38 00 c1 8f  	lw	$1, 0x38($fp)
8002d8d0: 28 00 c2 af  	sw	$2, 0x28($fp)
8002d8d4: 2c 00 c1 af  	sw	$1, 0x2c($fp)
8002d8d8: 15 b6 00 08  	j	0x2d854 <.text+0xd854>
8002d8dc: 00 00 00 00  	nop
8002d8e0: 03 80 01 3c  	lui	$1, 0x8003
8002d8e4: 7c 20 24 24  	addiu	$4, $1, 0x207c
8002d8e8: be b2 00 0c  	jal	0x2caf8 <.text+0xcaf8>
8002d8ec: 00 00 00 00  	nop
8002d8f0: e0 ff bd 27  	addiu	$sp, $sp, -0x20
8002d8f4: 1c 00 bf af  	sw	$ra, 0x1c($sp)
8002d8f8: 18 00 be af  	sw	$fp, 0x18($sp)
8002d8fc: 25 f0 a0 03  	move	$fp, $sp
8002d900: 10 00 c4 af  	sw	$4, 0x10($fp)
8002d904: 14 00 c5 af  	sw	$5, 0x14($fp)
8002d908: a0 b3 00 0c  	jal	0x2ce80 <.text+0xce80>
8002d90c: 00 00 00 00  	nop
8002d910: 08 00 40 14  	bnez	$2, 0x8002d934 <.text+0xd934>
8002d914: 00 00 00 00  	nop
8002d918: 48 b6 00 08  	j	0x2d920 <.text+0xd920>
8002d91c: 00 00 00 00  	nop
8002d920: 03 80 01 3c  	lui	$1, 0x8003
8002d924: 8c 20 24 24  	addiu	$4, $1, 0x208c
8002d928: 47 00 05 24  	addiu	$5, $zero, 0x47
8002d92c: 57 b5 00 0c  	jal	0x2d55c <.text+0xd55c>
8002d930: 00 00 00 00  	nop
8002d934: 25 e8 c0 03  	move	$sp, $fp
8002d938: 18 00 be 8f  	lw	$fp, 0x18($sp)
8002d93c: 1c 00 bf 8f  	lw	$ra, 0x1c($sp)
8002d940: 20 00 bd 27  	addiu	$sp, $sp, 0x20
8002d944: 08 00 e0 03  	jr	$ra
8002d948: 00 00 00 00  	nop
8002d94c: e8 ff bd 27  	addiu	$sp, $sp, -0x18
8002d950: 14 00 bf af  	sw	$ra, 0x14($sp)
8002d954: 10 00 be af  	sw	$fp, 0x10($sp)
8002d958: 25 f0 a0 03  	move	$fp, $sp
8002d95c: b4 a9 00 0c  	jal	0x2a6d0 <.text+0xa6d0>
8002d960: 00 00 00 00  	nop
8002d964: 04 00 40 14  	bnez	$2, 0x8002d978 <.text+0xd978>
8002d968: 00 00 00 00  	nop
8002d96c: 5d b6 00 08  	j	0x2d974 <.text+0xd974>
8002d970: 00 00 00 00  	nop
8002d974: 0d 00 00 00  	break
8002d978: e5 b8 00 0c  	jal	0x2e394 <.text+0xe394>
8002d97c: 00 00 00 00  	nop
8002d980: 5d b6 00 08  	j	0x2d974 <.text+0xd974>
8002d984: 00 00 00 00  	nop
8002d988: e0 ff bd 27  	addiu	$sp, $sp, -0x20
8002d98c: 1c 00 bf af  	sw	$ra, 0x1c($sp)
8002d990: 18 00 be af  	sw	$fp, 0x18($sp)
8002d994: 25 f0 a0 03  	move	$fp, $sp
8002d998: 14 00 c4 af  	sw	$4, 0x14($fp)
8002d99c: 04 00 05 24  	addiu	$5, $zero, 0x4
8002d9a0: 23 a2 00 0c  	jal	0x2888c <.text+0x888c>
8002d9a4: 00 00 00 00  	nop
8002d9a8: 25 e8 c0 03  	move	$sp, $fp
8002d9ac: 18 00 be 8f  	lw	$fp, 0x18($sp)
8002d9b0: 1c 00 bf 8f  	lw	$ra, 0x1c($sp)
8002d9b4: 20 00 bd 27  	addiu	$sp, $sp, 0x20
8002d9b8: 08 00 e0 03  	jr	$ra
8002d9bc: 00 00 00 00  	nop
8002d9c0: c0 ff bd 27  	addiu	$sp, $sp, -0x40
8002d9c4: 3c 00 bf af  	sw	$ra, 0x3c($sp)
8002d9c8: 38 00 be af  	sw	$fp, 0x38($sp)
8002d9cc: 25 f0 a0 03  	move	$fp, $sp
8002d9d0: 1c 00 c4 af  	sw	$4, 0x1c($fp)
8002d9d4: 28 00 c4 af  	sw	$4, 0x28($fp)
8002d9d8: 04 00 81 24  	addiu	$1, $4, 0x4
8002d9dc: 30 00 c4 af  	sw	$4, 0x30($fp)
8002d9e0: 34 00 c1 af  	sw	$1, 0x34($fp)
8002d9e4: 00 00 81 8c  	lw	$1, 0x0($4)
8002d9e8: 04 00 82 8c  	lw	$2, 0x4($4)
8002d9ec: 2b 08 22 00  	sltu	$1, $1, $2
8002d9f0: 06 00 20 14  	bnez	$1, 0x8002da0c <.text+0xda0c>
8002d9f4: 00 00 00 00  	nop
8002d9f8: 80 b6 00 08  	j	0x2da00 <.text+0xda00>
8002d9fc: 00 00 00 00  	nop
8002da00: 20 00 c0 af  	sw	$zero, 0x20($fp)
8002da04: 94 b6 00 08  	j	0x2da50 <.text+0xda50>
8002da08: 00 00 00 00  	nop
8002da0c: 1c 00 c1 8f  	lw	$1, 0x1c($fp)
8002da10: 00 00 24 8c  	lw	$4, 0x0($1)
8002da14: 18 00 c4 af  	sw	$4, 0x18($fp)
8002da18: 2c 00 c4 af  	sw	$4, 0x2c($fp)
8002da1c: 01 00 05 24  	addiu	$5, $zero, 0x1
8002da20: 14 00 c5 af  	sw	$5, 0x14($fp)
8002da24: 34 a9 00 0c  	jal	0x2a4d0 <.text+0xa4d0>
8002da28: 00 00 00 00  	nop
8002da2c: 1c 00 c4 8f  	lw	$4, 0x1c($fp)
8002da30: 14 00 c1 8f  	lw	$1, 0x14($fp)
8002da34: 25 18 40 00  	move	$3, $2
8002da38: 18 00 c2 8f  	lw	$2, 0x18($fp)
8002da3c: 00 00 83 ac  	sw	$3, 0x0($4)
8002da40: 24 00 c2 af  	sw	$2, 0x24($fp)
8002da44: 20 00 c1 af  	sw	$1, 0x20($fp)
8002da48: 94 b6 00 08  	j	0x2da50 <.text+0xda50>
8002da4c: 00 00 00 00  	nop
8002da50: 20 00 c2 8f  	lw	$2, 0x20($fp)
8002da54: 24 00 c3 8f  	lw	$3, 0x24($fp)
8002da58: 25 e8 c0 03  	move	$sp, $fp
8002da5c: 38 00 be 8f  	lw	$fp, 0x38($sp)
8002da60: 3c 00 bf 8f  	lw	$ra, 0x3c($sp)
8002da64: 40 00 bd 27  	addiu	$sp, $sp, 0x40
8002da68: 08 00 e0 03  	jr	$ra
8002da6c: 00 00 00 00  	nop
8002da70: e0 ff bd 27  	addiu	$sp, $sp, -0x20
8002da74: 1c 00 bf af  	sw	$ra, 0x1c($sp)
8002da78: 18 00 be af  	sw	$fp, 0x18($sp)
8002da7c: 25 f0 a0 03  	move	$fp, $sp
8002da80: 14 00 c4 af  	sw	$4, 0x14($fp)
8002da84: 70 b6 00 0c  	jal	0x2d9c0 <.text+0xd9c0>
8002da88: 00 00 00 00  	nop
8002da8c: 25 e8 c0 03  	move	$sp, $fp
8002da90: 18 00 be 8f  	lw	$fp, 0x18($sp)
8002da94: 1c 00 bf 8f  	lw	$ra, 0x1c($sp)
8002da98: 20 00 bd 27  	addiu	$sp, $sp, 0x20
8002da9c: 08 00 e0 03  	jr	$ra
8002daa0: 00 00 00 00  	nop
8002daa4: f0 ff bd 27  	addiu	$sp, $sp, -0x10
8002daa8: 0c 00 bf af  	sw	$ra, 0xc($sp)
8002daac: 08 00 be af  	sw	$fp, 0x8($sp)
8002dab0: 25 f0 a0 03  	move	$fp, $sp
8002dab4: 25 18 a0 00  	move	$3, $5
8002dab8: 25 10 80 00  	move	$2, $4
8002dabc: 00 00 c2 af  	sw	$2, 0x0($fp)
8002dac0: 04 00 c3 af  	sw	$3, 0x4($fp)
8002dac4: 25 e8 c0 03  	move	$sp, $fp
8002dac8: 08 00 be 8f  	lw	$fp, 0x8($sp)
8002dacc: 0c 00 bf 8f  	lw	$ra, 0xc($sp)
8002dad0: 10 00 bd 27  	addiu	$sp, $sp, 0x10
8002dad4: 08 00 e0 03  	jr	$ra
8002dad8: 00 00 00 00  	nop
8002dadc: b8 ff bd 27  	addiu	$sp, $sp, -0x48
8002dae0: 44 00 bf af  	sw	$ra, 0x44($sp)
8002dae4: 40 00 be af  	sw	$fp, 0x40($sp)
8002dae8: 25 f0 a0 03  	move	$fp, $sp
8002daec: 14 00 c7 af  	sw	$7, 0x14($fp)
8002daf0: 18 00 c6 af  	sw	$6, 0x18($fp)
8002daf4: 1c 00 c5 af  	sw	$5, 0x1c($fp)
8002daf8: 20 00 c4 af  	sw	$4, 0x20($fp)
8002dafc: 24 00 c4 af  	sw	$4, 0x24($fp)
8002db00: 28 00 c5 af  	sw	$5, 0x28($fp)
8002db04: 2c 00 c6 af  	sw	$6, 0x2c($fp)
8002db08: 30 00 c7 af  	sw	$7, 0x30($fp)
8002db0c: c5 b6 00 08  	j	0x2db14 <.text+0xdb14>
8002db10: 00 00 00 00  	nop
8002db14: 14 00 c5 8f  	lw	$5, 0x14($fp)
8002db18: 18 00 c4 8f  	lw	$4, 0x18($fp)
8002db1c: b1 a5 00 0c  	jal	0x296c4 <.text+0x96c4>
8002db20: 00 00 00 00  	nop
8002db24: 20 00 c4 8f  	lw	$4, 0x20($fp)
8002db28: 1c 00 c5 8f  	lw	$5, 0x1c($fp)
8002db2c: 25 30 40 00  	move	$6, $2
8002db30: 59 a9 00 0c  	jal	0x2a564 <.text+0xa564>
8002db34: 00 00 00 00  	nop
8002db38: d0 b6 00 08  	j	0x2db40 <.text+0xdb40>
8002db3c: 00 00 00 00  	nop
8002db40: 20 00 c2 8f  	lw	$2, 0x20($fp)
8002db44: 14 00 c5 8f  	lw	$5, 0x14($fp)
8002db48: 18 00 c4 8f  	lw	$4, 0x18($fp)
8002db4c: 1c 00 c1 8f  	lw	$1, 0x1c($fp)
8002db50: 23 08 22 00  	subu	$1, $1, $2
8002db54: 10 00 c1 af  	sw	$1, 0x10($fp)
8002db58: 34 00 c1 af  	sw	$1, 0x34($fp)
8002db5c: bf a5 00 0c  	jal	0x296fc <.text+0x96fc>
8002db60: 00 00 00 00  	nop
8002db64: 20 00 c1 8f  	lw	$1, 0x20($fp)
8002db68: 10 00 c5 8f  	lw	$5, 0x10($fp)
8002db6c: 38 00 c2 af  	sw	$2, 0x38($fp)
8002db70: 3c 00 c1 af  	sw	$1, 0x3c($fp)
8002db74: 21 20 41 00  	addu	$4, $2, $1
8002db78: e7 9e 00 0c  	jal	0x27b9c <.text+0x7b9c>
8002db7c: 00 00 00 00  	nop
8002db80: 25 e8 c0 03  	move	$sp, $fp
8002db84: 40 00 be 8f  	lw	$fp, 0x40($sp)
8002db88: 44 00 bf 8f  	lw	$ra, 0x44($sp)
8002db8c: 48 00 bd 27  	addiu	$sp, $sp, 0x48
8002db90: 08 00 e0 03  	jr	$ra
8002db94: 00 00 00 00  	nop
8002db98: a8 ff bd 27  	addiu	$sp, $sp, -0x58
8002db9c: 54 00 bf af  	sw	$ra, 0x54($sp)
8002dba0: 50 00 be af  	sw	$fp, 0x50($sp)
8002dba4: 25 f0 a0 03  	move	$fp, $sp
8002dba8: 14 00 c7 af  	sw	$7, 0x14($fp)
8002dbac: 18 00 c6 af  	sw	$6, 0x18($fp)
8002dbb0: 1c 00 c5 af  	sw	$5, 0x1c($fp)
8002dbb4: 20 00 c4 af  	sw	$4, 0x20($fp)
8002dbb8: 24 00 c4 af  	sw	$4, 0x24($fp)
8002dbbc: 28 00 c5 af  	sw	$5, 0x28($fp)
8002dbc0: 2c 00 c6 af  	sw	$6, 0x2c($fp)
8002dbc4: 30 00 c7 af  	sw	$7, 0x30($fp)
8002dbc8: f4 b6 00 08  	j	0x2dbd0 <.text+0xdbd0>
8002dbcc: 00 00 00 00  	nop
8002dbd0: 14 00 c5 8f  	lw	$5, 0x14($fp)
8002dbd4: 18 00 c4 8f  	lw	$4, 0x18($fp)
8002dbd8: 40 00 c4 af  	sw	$4, 0x40($fp)
8002dbdc: 44 00 c5 af  	sw	$5, 0x44($fp)
8002dbe0: 65 9e 00 0c  	jal	0x27994 <.text+0x7994>
8002dbe4: 00 00 00 00  	nop
8002dbe8: 20 00 c4 8f  	lw	$4, 0x20($fp)
8002dbec: 1c 00 c5 8f  	lw	$5, 0x1c($fp)
8002dbf0: 25 30 40 00  	move	$6, $2
8002dbf4: 79 a9 00 0c  	jal	0x2a5e4 <.text+0xa5e4>
8002dbf8: 00 00 00 00  	nop
8002dbfc: 01 b7 00 08  	j	0x2dc04 <.text+0xdc04>
8002dc00: 00 00 00 00  	nop
8002dc04: 18 00 c1 8f  	lw	$1, 0x18($fp)
8002dc08: 20 00 c2 8f  	lw	$2, 0x20($fp)
8002dc0c: 14 00 c3 8f  	lw	$3, 0x14($fp)
8002dc10: 1c 00 c4 8f  	lw	$4, 0x1c($fp)
8002dc14: 23 28 82 00  	subu	$5, $4, $2
8002dc18: 34 00 c5 af  	sw	$5, 0x34($fp)
8002dc1c: 48 00 c1 af  	sw	$1, 0x48($fp)
8002dc20: 4c 00 c3 af  	sw	$3, 0x4c($fp)
8002dc24: 38 00 c1 af  	sw	$1, 0x38($fp)
8002dc28: 3c 00 c2 af  	sw	$2, 0x3c($fp)
8002dc2c: 21 20 22 00  	addu	$4, $1, $2
8002dc30: 14 9f 00 0c  	jal	0x27c50 <.text+0x7c50>
8002dc34: 00 00 00 00  	nop
8002dc38: 25 e8 c0 03  	move	$sp, $fp
8002dc3c: 50 00 be 8f  	lw	$fp, 0x50($sp)
8002dc40: 54 00 bf 8f  	lw	$ra, 0x54($sp)
8002dc44: 58 00 bd 27  	addiu	$sp, $sp, 0x58
8002dc48: 08 00 e0 03  	jr	$ra
8002dc4c: 00 00 00 00  	nop
8002dc50: c0 ff bd 27  	addiu	$sp, $sp, -0x40
8002dc54: 3c 00 bf af  	sw	$ra, 0x3c($sp)
8002dc58: 38 00 be af  	sw	$fp, 0x38($sp)
8002dc5c: 25 f0 a0 03  	move	$fp, $sp
8002dc60: 14 00 c7 af  	sw	$7, 0x14($fp)
8002dc64: 18 00 c6 af  	sw	$6, 0x18($fp)
8002dc68: 1c 00 c5 af  	sw	$5, 0x1c($fp)
8002dc6c: 20 00 c4 af  	sw	$4, 0x20($fp)
8002dc70: 50 00 c1 8f  	lw	$1, 0x50($fp)
8002dc74: 24 00 c1 af  	sw	$1, 0x24($fp)
8002dc78: 28 00 c4 af  	sw	$4, 0x28($fp)
8002dc7c: 2c 00 c5 af  	sw	$5, 0x2c($fp)
8002dc80: 30 00 c6 af  	sw	$6, 0x30($fp)
8002dc84: 34 00 c7 af  	sw	$7, 0x34($fp)
8002dc88: 2b 08 a4 00  	sltu	$1, $5, $4
8002dc8c: 0a 00 20 14  	bnez	$1, 0x8002dcb8 <.text+0xdcb8>
8002dc90: 00 00 00 00  	nop
8002dc94: 27 b7 00 08  	j	0x2dc9c <.text+0xdc9c>
8002dc98: 00 00 00 00  	nop
8002dc9c: 14 00 c1 8f  	lw	$1, 0x14($fp)
8002dca0: 1c 00 c2 8f  	lw	$2, 0x1c($fp)
8002dca4: 2b 08 22 00  	sltu	$1, $1, $2
8002dca8: 14 00 20 14  	bnez	$1, 0x8002dcfc <.text+0xdcfc>
8002dcac: 00 00 00 00  	nop
8002dcb0: 33 b7 00 08  	j	0x2dccc <.text+0xdccc>
8002dcb4: 00 00 00 00  	nop
8002dcb8: 24 00 c6 8f  	lw	$6, 0x24($fp)
8002dcbc: 1c 00 c5 8f  	lw	$5, 0x1c($fp)
8002dcc0: 20 00 c4 8f  	lw	$4, 0x20($fp)
8002dcc4: 35 a8 00 0c  	jal	0x2a0d4 <.text+0xa0d4>
8002dcc8: 00 00 00 00  	nop
8002dccc: 14 00 c7 8f  	lw	$7, 0x14($fp)
8002dcd0: 18 00 c6 8f  	lw	$6, 0x18($fp)
8002dcd4: 1c 00 c5 8f  	lw	$5, 0x1c($fp)
8002dcd8: 20 00 c4 8f  	lw	$4, 0x20($fp)
8002dcdc: e6 b6 00 0c  	jal	0x2db98 <.text+0xdb98>
8002dce0: 00 00 00 00  	nop
8002dce4: 25 e8 c0 03  	move	$sp, $fp
8002dce8: 38 00 be 8f  	lw	$fp, 0x38($sp)
8002dcec: 3c 00 bf 8f  	lw	$ra, 0x3c($sp)
8002dcf0: 40 00 bd 27  	addiu	$sp, $sp, 0x40
8002dcf4: 08 00 e0 03  	jr	$ra
8002dcf8: 00 00 00 00  	nop
8002dcfc: 24 00 c6 8f  	lw	$6, 0x24($fp)
8002dd00: 14 00 c5 8f  	lw	$5, 0x14($fp)
8002dd04: 1c 00 c4 8f  	lw	$4, 0x1c($fp)
8002dd08: fe a7 00 0c  	jal	0x29ff8 <.text+0x9ff8>
8002dd0c: 00 00 00 00  	nop
8002dd10: c8 ff bd 27  	addiu	$sp, $sp, -0x38
8002dd14: 34 00 bf af  	sw	$ra, 0x34($sp)
8002dd18: 30 00 be af  	sw	$fp, 0x30($sp)
8002dd1c: 25 f0 a0 03  	move	$fp, $sp
8002dd20: 25 08 e0 00  	move	$1, $7
8002dd24: 25 38 c0 00  	move	$7, $6
8002dd28: 25 30 a0 00  	move	$6, $5
8002dd2c: 24 00 c4 af  	sw	$4, 0x24($fp)
8002dd30: 28 00 c6 af  	sw	$6, 0x28($fp)
8002dd34: 2c 00 c7 af  	sw	$7, 0x2c($fp)
8002dd38: 1c 00 c0 af  	sw	$zero, 0x1c($fp)
8002dd3c: 20 00 c4 af  	sw	$4, 0x20($fp)
8002dd40: 1c 00 c4 8f  	lw	$4, 0x1c($fp)
8002dd44: 20 00 c5 8f  	lw	$5, 0x20($fp)
8002dd48: 25 10 a0 03  	move	$2, $sp
8002dd4c: 10 00 41 ac  	sw	$1, 0x10($2)
8002dd50: 14 b7 00 0c  	jal	0x2dc50 <.text+0xdc50>
8002dd54: 00 00 00 00  	nop
8002dd58: 25 e8 c0 03  	move	$sp, $fp
8002dd5c: 30 00 be 8f  	lw	$fp, 0x30($sp)
8002dd60: 34 00 bf 8f  	lw	$ra, 0x34($sp)
8002dd64: 38 00 bd 27  	addiu	$sp, $sp, 0x38
8002dd68: 08 00 e0 03  	jr	$ra
8002dd6c: 00 00 00 00  	nop
8002dd70: c8 ff bd 27  	addiu	$sp, $sp, -0x38
8002dd74: 34 00 bf af  	sw	$ra, 0x34($sp)
8002dd78: 30 00 be af  	sw	$fp, 0x30($sp)
8002dd7c: 25 f0 a0 03  	move	$fp, $sp
8002dd80: 18 00 c6 af  	sw	$6, 0x18($fp)
8002dd84: 25 08 a0 00  	move	$1, $5
8002dd88: 18 00 c5 8f  	lw	$5, 0x18($fp)
8002dd8c: 14 00 c1 af  	sw	$1, 0x14($fp)
8002dd90: 25 08 80 00  	move	$1, $4
8002dd94: 14 00 c4 8f  	lw	$4, 0x14($fp)
8002dd98: 10 00 c1 af  	sw	$1, 0x10($fp)
8002dd9c: 24 00 c1 af  	sw	$1, 0x24($fp)
8002dda0: 28 00 c4 af  	sw	$4, 0x28($fp)
8002dda4: 2c 00 c5 af  	sw	$5, 0x2c($fp)
8002dda8: b1 a5 00 0c  	jal	0x296c4 <.text+0x96c4>
8002ddac: 00 00 00 00  	nop
8002ddb0: 10 00 c4 8f  	lw	$4, 0x10($fp)
8002ddb4: 14 00 c6 8f  	lw	$6, 0x14($fp)
8002ddb8: 18 00 c7 8f  	lw	$7, 0x18($fp)
8002ddbc: 1c 00 c4 af  	sw	$4, 0x1c($fp)
8002ddc0: 20 00 c2 af  	sw	$2, 0x20($fp)
8002ddc4: 1c 00 c4 8f  	lw	$4, 0x1c($fp)
8002ddc8: 20 00 c5 8f  	lw	$5, 0x20($fp)
8002ddcc: b7 b6 00 0c  	jal	0x2dadc <.text+0xdadc>
8002ddd0: 00 00 00 00  	nop
8002ddd4: 25 e8 c0 03  	move	$sp, $fp
8002ddd8: 30 00 be 8f  	lw	$fp, 0x30($sp)
8002dddc: 34 00 bf 8f  	lw	$ra, 0x34($sp)
8002dde0: 38 00 bd 27  	addiu	$sp, $sp, 0x38
8002dde4: 08 00 e0 03  	jr	$ra
8002dde8: 00 00 00 00  	nop
8002ddec: c8 ff bd 27  	addiu	$sp, $sp, -0x38
8002ddf0: 34 00 bf af  	sw	$ra, 0x34($sp)
8002ddf4: 30 00 be af  	sw	$fp, 0x30($sp)
8002ddf8: 25 f0 a0 03  	move	$fp, $sp
8002ddfc: 14 00 c7 af  	sw	$7, 0x14($fp)
8002de00: 18 00 c6 af  	sw	$6, 0x18($fp)
8002de04: 1c 00 c5 af  	sw	$5, 0x1c($fp)
8002de08: 20 00 c4 af  	sw	$4, 0x20($fp)
8002de0c: 24 00 c4 af  	sw	$4, 0x24($fp)
8002de10: 28 00 c5 af  	sw	$5, 0x28($fp)
8002de14: 2c 00 c6 af  	sw	$6, 0x2c($fp)
8002de18: 2b 08 c4 00  	sltu	$1, $6, $4
8002de1c: 0e 00 20 14  	bnez	$1, 0x8002de58 <.text+0xde58>
8002de20: 00 00 00 00  	nop
8002de24: 8b b7 00 08  	j	0x2de2c <.text+0xde2c>
8002de28: 00 00 00 00  	nop
8002de2c: 18 00 c6 8f  	lw	$6, 0x18($fp)
8002de30: 1c 00 c5 8f  	lw	$5, 0x1c($fp)
8002de34: 20 00 c4 8f  	lw	$4, 0x20($fp)
8002de38: 5c b7 00 0c  	jal	0x2dd70 <.text+0xdd70>
8002de3c: 00 00 00 00  	nop
8002de40: 25 e8 c0 03  	move	$sp, $fp
8002de44: 30 00 be 8f  	lw	$fp, 0x30($sp)
8002de48: 34 00 bf 8f  	lw	$ra, 0x34($sp)
8002de4c: 38 00 bd 27  	addiu	$sp, $sp, 0x38
8002de50: 08 00 e0 03  	jr	$ra
8002de54: 00 00 00 00  	nop
8002de58: 14 00 c6 8f  	lw	$6, 0x14($fp)
8002de5c: 18 00 c5 8f  	lw	$5, 0x18($fp)
8002de60: 20 00 c4 8f  	lw	$4, 0x20($fp)
8002de64: c7 a7 00 0c  	jal	0x29f1c <.text+0x9f1c>
8002de68: 00 00 00 00  	nop
8002de6c: e8 ff bd 27  	addiu	$sp, $sp, -0x18
8002de70: 14 00 bf af  	sw	$ra, 0x14($sp)
8002de74: 10 00 be af  	sw	$fp, 0x10($sp)
8002de78: 25 f0 a0 03  	move	$fp, $sp
8002de7c: 25 18 a0 00  	move	$3, $5
8002de80: 25 10 80 00  	move	$2, $4
8002de84: 08 00 c2 af  	sw	$2, 0x8($fp)
8002de88: 0c 00 c3 af  	sw	$3, 0xc($fp)
8002de8c: 25 e8 c0 03  	move	$sp, $fp
8002de90: 10 00 be 8f  	lw	$fp, 0x10($sp)
8002de94: 14 00 bf 8f  	lw	$ra, 0x14($sp)
8002de98: 18 00 bd 27  	addiu	$sp, $sp, 0x18
8002de9c: 08 00 e0 03  	jr	$ra
8002dea0: 00 00 00 00  	nop
8002dea4: a8 ff bd 27  	addiu	$sp, $sp, -0x58
8002dea8: 54 00 bf af  	sw	$ra, 0x54($sp)
8002deac: 50 00 be af  	sw	$fp, 0x50($sp)
8002deb0: 25 f0 a0 03  	move	$fp, $sp
8002deb4: 18 00 c7 af  	sw	$7, 0x18($fp)
8002deb8: 1c 00 c6 af  	sw	$6, 0x1c($fp)
8002debc: 20 00 c5 af  	sw	$5, 0x20($fp)
8002dec0: 24 00 c4 af  	sw	$4, 0x24($fp)
8002dec4: 28 00 c4 af  	sw	$4, 0x28($fp)
8002dec8: 2c 00 c5 af  	sw	$5, 0x2c($fp)
8002decc: 30 00 c6 af  	sw	$6, 0x30($fp)
8002ded0: 34 00 c7 af  	sw	$7, 0x34($fp)
8002ded4: 38 00 c6 af  	sw	$6, 0x38($fp)
8002ded8: 3c 00 c7 af  	sw	$7, 0x3c($fp)
8002dedc: b9 b7 00 08  	j	0x2dee4 <.text+0xdee4>
8002dee0: 00 00 00 00  	nop
8002dee4: 18 00 c5 8f  	lw	$5, 0x18($fp)
8002dee8: 1c 00 c4 8f  	lw	$4, 0x1c($fp)
8002deec: 2e b4 00 0c  	jal	0x2d0b8 <.text+0xd0b8>
8002def0: 00 00 00 00  	nop
8002def4: 24 00 c4 8f  	lw	$4, 0x24($fp)
8002def8: 20 00 c5 8f  	lw	$5, 0x20($fp)
8002defc: 25 30 40 00  	move	$6, $2
8002df00: 6a 99 00 0c  	jal	0x265a8 <.text+0x65a8>
8002df04: 00 00 00 00  	nop
8002df08: c4 b7 00 08  	j	0x2df10 <.text+0xdf10>
8002df0c: 00 00 00 00  	nop
8002df10: 18 00 c5 8f  	lw	$5, 0x18($fp)
8002df14: 1c 00 c4 8f  	lw	$4, 0x1c($fp)
8002df18: 49 b4 00 0c  	jal	0x2d124 <.text+0xd124>
8002df1c: 00 00 00 00  	nop
8002df20: 20 00 c1 8f  	lw	$1, 0x20($fp)
8002df24: 25 18 40 00  	move	$3, $2
8002df28: 24 00 c2 8f  	lw	$2, 0x24($fp)
8002df2c: 48 00 c3 af  	sw	$3, 0x48($fp)
8002df30: 4c 00 c2 af  	sw	$2, 0x4c($fp)
8002df34: 21 18 62 00  	addu	$3, $3, $2
8002df38: 10 00 c3 af  	sw	$3, 0x10($fp)
8002df3c: 40 00 c3 af  	sw	$3, 0x40($fp)
8002df40: 23 18 22 00  	subu	$3, $1, $2
8002df44: 14 00 c3 af  	sw	$3, 0x14($fp)
8002df48: 2b 08 22 00  	sltu	$1, $1, $2
8002df4c: 0e 00 20 14  	bnez	$1, 0x8002df88 <.text+0xdf88>
8002df50: 00 00 00 00  	nop
8002df54: d7 b7 00 08  	j	0x2df5c <.text+0xdf5c>
8002df58: 00 00 00 00  	nop
8002df5c: 14 00 c5 8f  	lw	$5, 0x14($fp)
8002df60: 10 00 c4 8f  	lw	$4, 0x10($fp)
8002df64: 44 00 c5 af  	sw	$5, 0x44($fp)
8002df68: 05 9f 00 0c  	jal	0x27c14 <.text+0x7c14>
8002df6c: 00 00 00 00  	nop
8002df70: 25 e8 c0 03  	move	$sp, $fp
8002df74: 50 00 be 8f  	lw	$fp, 0x50($sp)
8002df78: 54 00 bf 8f  	lw	$ra, 0x54($sp)
8002df7c: 58 00 bd 27  	addiu	$sp, $sp, 0x58
8002df80: 08 00 e0 03  	jr	$ra
8002df84: 00 00 00 00  	nop
8002df88: 03 80 01 3c  	lui	$1, 0x8003
8002df8c: 4c 21 24 24  	addiu	$4, $1, 0x214c
8002df90: ce b2 00 0c  	jal	0x2cb38 <.text+0xcb38>
8002df94: 00 00 00 00  	nop
8002df98: c8 ff bd 27  	addiu	$sp, $sp, -0x38
8002df9c: 34 00 bf af  	sw	$ra, 0x34($sp)
8002dfa0: 30 00 be af  	sw	$fp, 0x30($sp)
8002dfa4: 25 f0 a0 03  	move	$fp, $sp
8002dfa8: 10 00 c6 af  	sw	$6, 0x10($fp)
8002dfac: 25 08 a0 00  	move	$1, $5
8002dfb0: 10 00 c5 8f  	lw	$5, 0x10($fp)
8002dfb4: 14 00 c1 af  	sw	$1, 0x14($fp)
8002dfb8: 25 30 80 00  	move	$6, $4
8002dfbc: 14 00 c4 8f  	lw	$4, 0x14($fp)
8002dfc0: 18 00 c6 af  	sw	$6, 0x18($fp)
8002dfc4: 24 00 c6 af  	sw	$6, 0x24($fp)
8002dfc8: 28 00 c4 af  	sw	$4, 0x28($fp)
8002dfcc: 2c 00 c5 af  	sw	$5, 0x2c($fp)
8002dfd0: 0d b2 00 0c  	jal	0x2c834 <.text+0xc834>
8002dfd4: 00 00 00 00  	nop
8002dfd8: 06 00 40 14  	bnez	$2, 0x8002dff4 <.text+0xdff4>
8002dfdc: 00 00 00 00  	nop
8002dfe0: fa b7 00 08  	j	0x2dfe8 <.text+0xdfe8>
8002dfe4: 00 00 00 00  	nop
8002dfe8: 1c 00 c0 af  	sw	$zero, 0x1c($fp)
8002dfec: 06 b8 00 08  	j	0x2e018 <.text+0xe018>
8002dff0: 00 00 00 00  	nop
8002dff4: 10 00 c6 8f  	lw	$6, 0x10($fp)
8002dff8: 14 00 c5 8f  	lw	$5, 0x14($fp)
8002dffc: 18 00 c4 8f  	lw	$4, 0x18($fp)
8002e000: 0e b8 00 0c  	jal	0x2e038 <.text+0xe038>
8002e004: 00 00 00 00  	nop
8002e008: 1c 00 c2 af  	sw	$2, 0x1c($fp)
8002e00c: 20 00 c3 af  	sw	$3, 0x20($fp)
8002e010: 06 b8 00 08  	j	0x2e018 <.text+0xe018>
8002e014: 00 00 00 00  	nop
8002e018: 1c 00 c2 8f  	lw	$2, 0x1c($fp)
8002e01c: 20 00 c3 8f  	lw	$3, 0x20($fp)
8002e020: 25 e8 c0 03  	move	$sp, $fp
8002e024: 30 00 be 8f  	lw	$fp, 0x30($sp)
8002e028: 34 00 bf 8f  	lw	$ra, 0x34($sp)
8002e02c: 38 00 bd 27  	addiu	$sp, $sp, 0x38
8002e030: 08 00 e0 03  	jr	$ra
8002e034: 00 00 00 00  	nop
8002e038: d0 ff bd 27  	addiu	$sp, $sp, -0x30
8002e03c: 2c 00 bf af  	sw	$ra, 0x2c($sp)
8002e040: 28 00 be af  	sw	$fp, 0x28($sp)
8002e044: 25 f0 a0 03  	move	$fp, $sp
8002e048: 25 38 c0 00  	move	$7, $6
8002e04c: 25 30 a0 00  	move	$6, $5
8002e050: 1c 00 c4 af  	sw	$4, 0x1c($fp)
8002e054: 20 00 c6 af  	sw	$6, 0x20($fp)
8002e058: 24 00 c7 af  	sw	$7, 0x24($fp)
8002e05c: 14 00 c0 af  	sw	$zero, 0x14($fp)
8002e060: 18 00 c4 af  	sw	$4, 0x18($fp)
8002e064: 14 00 c4 8f  	lw	$4, 0x14($fp)
8002e068: 18 00 c5 8f  	lw	$5, 0x18($fp)
8002e06c: a9 b7 00 0c  	jal	0x2dea4 <.text+0xdea4>
8002e070: 00 00 00 00  	nop
8002e074: 25 e8 c0 03  	move	$sp, $fp
8002e078: 28 00 be 8f  	lw	$fp, 0x28($sp)
8002e07c: 2c 00 bf 8f  	lw	$ra, 0x2c($sp)
8002e080: 30 00 bd 27  	addiu	$sp, $sp, 0x30
8002e084: 08 00 e0 03  	jr	$ra
8002e088: 00 00 00 00  	nop
8002e08c: d8 ff bd 27  	addiu	$sp, $sp, -0x28
8002e090: 24 00 bf af  	sw	$ra, 0x24($sp)
8002e094: 20 00 be af  	sw	$fp, 0x20($sp)
8002e098: 25 f0 a0 03  	move	$fp, $sp
8002e09c: 10 00 c5 af  	sw	$5, 0x10($fp)
8002e0a0: 25 08 80 00  	move	$1, $4
8002e0a4: 14 00 c1 af  	sw	$1, 0x14($fp)
8002e0a8: 1b 00 c4 a3  	sb	$4, 0x1b($fp)
8002e0ac: 1c 00 c5 af  	sw	$5, 0x1c($fp)
8002e0b0: 08 00 a1 2c  	sltiu	$1, $5, 0x8
8002e0b4: 0f 00 20 10  	beqz	$1, 0x8002e0f4 <.text+0xe0f4>
8002e0b8: 00 00 00 00  	nop
8002e0bc: 31 b8 00 08  	j	0x2e0c4 <.text+0xe0c4>
8002e0c0: 00 00 00 00  	nop
8002e0c4: 14 00 c1 8f  	lw	$1, 0x14($fp)
8002e0c8: 10 00 c2 8f  	lw	$2, 0x10($fp)
8002e0cc: 07 00 43 30  	andi	$3, $2, 0x7
8002e0d0: 7f 00 02 24  	addiu	$2, $zero, 0x7f
8002e0d4: 06 10 62 00  	srlv	$2, $2, $3
8002e0d8: 24 10 22 00  	and	$2, $1, $2
8002e0dc: 25 e8 c0 03  	move	$sp, $fp
8002e0e0: 20 00 be 8f  	lw	$fp, 0x20($sp)
8002e0e4: 24 00 bf 8f  	lw	$ra, 0x24($sp)
8002e0e8: 28 00 bd 27  	addiu	$sp, $sp, 0x28
8002e0ec: 08 00 e0 03  	jr	$ra
8002e0f0: 00 00 00 00  	nop
8002e0f4: 03 80 01 3c  	lui	$1, 0x8003
8002e0f8: d8 21 24 24  	addiu	$4, $1, 0x21d8
8002e0fc: fe b2 00 0c  	jal	0x2cbf8 <.text+0xcbf8>
8002e100: 00 00 00 00  	nop
8002e104: f0 ff bd 27  	addiu	$sp, $sp, -0x10
8002e108: 0c 00 bf af  	sw	$ra, 0xc($sp)
8002e10c: 08 00 be af  	sw	$fp, 0x8($sp)
8002e110: 25 f0 a0 03  	move	$fp, $sp
8002e114: 00 00 c4 af  	sw	$4, 0x0($fp)
8002e118: 07 00 c5 a3  	sb	$5, 0x7($fp)
8002e11c: 80 09 04 00  	sll	$1, $4, 0x6
8002e120: 3f 00 a2 30  	andi	$2, $5, 0x3f
8002e124: 25 10 22 00  	or	$2, $1, $2
8002e128: 25 e8 c0 03  	move	$sp, $fp
8002e12c: 08 00 be 8f  	lw	$fp, 0x8($sp)
8002e130: 0c 00 bf 8f  	lw	$ra, 0xc($sp)
8002e134: 10 00 bd 27  	addiu	$sp, $sp, 0x10
8002e138: 08 00 e0 03  	jr	$ra
8002e13c: 00 00 00 00  	nop
8002e140: f0 ff bd 27  	addiu	$sp, $sp, -0x10
8002e144: 0c 00 bf af  	sw	$ra, 0xc($sp)
8002e148: 08 00 be af  	sw	$fp, 0x8($sp)
8002e14c: 25 f0 a0 03  	move	$fp, $sp
8002e150: 20 0c 04 7c  	seb	$1, $4
8002e154: 07 00 c4 a3  	sb	$4, 0x7($fp)
8002e158: c0 ff 22 28  	slti	$2, $1, -0x40
8002e15c: 25 e8 c0 03  	move	$sp, $fp
8002e160: 08 00 be 8f  	lw	$fp, 0x8($sp)
8002e164: 0c 00 bf 8f  	lw	$ra, 0xc($sp)
8002e168: 10 00 bd 27  	addiu	$sp, $sp, 0x10
8002e16c: 08 00 e0 03  	jr	$ra
8002e170: 00 00 00 00  	nop
8002e174: 98 ff bd 27  	addiu	$sp, $sp, -0x68
8002e178: 64 00 bf af  	sw	$ra, 0x64($sp)
8002e17c: 60 00 be af  	sw	$fp, 0x60($sp)
8002e180: 25 f0 a0 03  	move	$fp, $sp
8002e184: 2c 00 c4 af  	sw	$4, 0x2c($fp)
8002e188: 44 00 c4 af  	sw	$4, 0x44($fp)
8002e18c: c7 96 00 0c  	jal	0x25b1c <.text+0x5b1c>
8002e190: 00 00 00 00  	nop
8002e194: 25 20 40 00  	move	$4, $2
8002e198: 4a bc 00 0c  	jal	0x2f128 <.text+0xf128>
8002e19c: 00 00 00 00  	nop
8002e1a0: 3c 00 c2 af  	sw	$2, 0x3c($fp)
8002e1a4: 3c 00 c1 8f  	lw	$1, 0x3c($fp)
8002e1a8: 0c 00 20 10  	beqz	$1, 0x8002e1dc <.text+0xe1dc>
8002e1ac: 00 00 00 00  	nop
8002e1b0: 6e b8 00 08  	j	0x2e1b8 <.text+0xe1b8>
8002e1b4: 00 00 00 00  	nop
8002e1b8: 3c 00 c1 8f  	lw	$1, 0x3c($fp)
8002e1bc: 48 00 c1 af  	sw	$1, 0x48($fp)
8002e1c0: 00 00 21 80  	lb	$1, 0x0($1)
8002e1c4: 28 00 c1 af  	sw	$1, 0x28($fp)
8002e1c8: 4f 00 c1 a3  	sb	$1, 0x4f($fp)
8002e1cc: 29 00 21 04  	bgez	$1, 0x8002e274 <.text+0xe274>
8002e1d0: 00 00 00 00  	nop
8002e1d4: 7d b8 00 08  	j	0x2e1f4 <.text+0xe1f4>
8002e1d8: 00 00 00 00  	nop
8002e1dc: a2 bc 00 0c  	jal	0x2f288 <.text+0xf288>
8002e1e0: 00 00 00 00  	nop
8002e1e4: 34 00 c2 af  	sw	$2, 0x34($fp)
8002e1e8: 38 00 c3 af  	sw	$3, 0x38($fp)
8002e1ec: dd b8 00 08  	j	0x2e374 <.text+0xe374>
8002e1f0: 00 00 00 00  	nop
8002e1f4: 28 00 c4 8f  	lw	$4, 0x28($fp)
8002e1f8: 02 00 05 24  	addiu	$5, $zero, 0x2
8002e1fc: 23 b8 00 0c  	jal	0x2e08c <.text+0xe08c>
8002e200: 00 00 00 00  	nop
8002e204: 28 00 c1 8f  	lw	$1, 0x28($fp)
8002e208: 2c 00 c4 8f  	lw	$4, 0x2c($fp)
8002e20c: 1c 00 c2 af  	sw	$2, 0x1c($fp)
8002e210: ff 00 21 30  	andi	$1, $1, 0xff
8002e214: 24 00 c1 af  	sw	$1, 0x24($fp)
8002e218: 25 08 40 00  	move	$1, $2
8002e21c: 18 00 c1 af  	sw	$1, 0x18($fp)
8002e220: 50 00 c2 af  	sw	$2, 0x50($fp)
8002e224: c7 96 00 0c  	jal	0x25b1c <.text+0x5b1c>
8002e228: 00 00 00 00  	nop
8002e22c: 25 20 40 00  	move	$4, $2
8002e230: 03 80 01 3c  	lui	$1, 0x8003
8002e234: e8 21 25 24  	addiu	$5, $1, 0x21e8
8002e238: ee bb 00 0c  	jal	0x2efb8 <.text+0xefb8>
8002e23c: 00 00 00 00  	nop
8002e240: 1c 00 c4 8f  	lw	$4, 0x1c($fp)
8002e244: 00 00 45 90  	lbu	$5, 0x0($2)
8002e248: 20 00 c5 af  	sw	$5, 0x20($fp)
8002e24c: 56 00 c5 a3  	sb	$5, 0x56($fp)
8002e250: 41 b8 00 0c  	jal	0x2e104 <.text+0xe104>
8002e254: 00 00 00 00  	nop
8002e258: 24 00 c1 8f  	lw	$1, 0x24($fp)
8002e25c: 40 00 c2 af  	sw	$2, 0x40($fp)
8002e260: e0 00 21 2c  	sltiu	$1, $1, 0xe0
8002e264: 10 00 20 10  	beqz	$1, 0x8002e2a8 <.text+0xe2a8>
8002e268: 00 00 00 00  	nop
8002e26c: a4 b8 00 08  	j	0x2e290 <.text+0xe290>
8002e270: 00 00 00 00  	nop
8002e274: 28 00 c1 8f  	lw	$1, 0x28($fp)
8002e278: ff 00 21 30  	andi	$1, $1, 0xff
8002e27c: 38 00 c1 af  	sw	$1, 0x38($fp)
8002e280: 01 00 01 24  	addiu	$1, $zero, 0x1
8002e284: 34 00 c1 af  	sw	$1, 0x34($fp)
8002e288: dd b8 00 08  	j	0x2e374 <.text+0xe374>
8002e28c: 00 00 00 00  	nop
8002e290: 40 00 c1 8f  	lw	$1, 0x40($fp)
8002e294: 38 00 c1 af  	sw	$1, 0x38($fp)
8002e298: 01 00 01 24  	addiu	$1, $zero, 0x1
8002e29c: 34 00 c1 af  	sw	$1, 0x34($fp)
8002e2a0: dd b8 00 08  	j	0x2e374 <.text+0xe374>
8002e2a4: 00 00 00 00  	nop
8002e2a8: 2c 00 c4 8f  	lw	$4, 0x2c($fp)
8002e2ac: c7 96 00 0c  	jal	0x25b1c <.text+0x5b1c>
8002e2b0: 00 00 00 00  	nop
8002e2b4: 25 20 40 00  	move	$4, $2
8002e2b8: 03 80 01 3c  	lui	$1, 0x8003
8002e2bc: f8 21 25 24  	addiu	$5, $1, 0x21f8
8002e2c0: ee bb 00 0c  	jal	0x2efb8 <.text+0xefb8>
8002e2c4: 00 00 00 00  	nop
8002e2c8: 20 00 c1 8f  	lw	$1, 0x20($fp)
8002e2cc: 00 00 45 90  	lbu	$5, 0x0($2)
8002e2d0: 57 00 c5 a3  	sb	$5, 0x57($fp)
8002e2d4: 3f 00 24 30  	andi	$4, $1, 0x3f
8002e2d8: 41 b8 00 0c  	jal	0x2e104 <.text+0xe104>
8002e2dc: 00 00 00 00  	nop
8002e2e0: 28 00 c1 8f  	lw	$1, 0x28($fp)
8002e2e4: 25 18 40 00  	move	$3, $2
8002e2e8: 18 00 c2 8f  	lw	$2, 0x18($fp)
8002e2ec: 25 20 60 00  	move	$4, $3
8002e2f0: 14 00 c4 af  	sw	$4, 0x14($fp)
8002e2f4: 58 00 c3 af  	sw	$3, 0x58($fp)
8002e2f8: 00 13 02 00  	sll	$2, $2, 0xc
8002e2fc: 25 10 43 00  	or	$2, $2, $3
8002e300: 40 00 c2 af  	sw	$2, 0x40($fp)
8002e304: ff 00 21 30  	andi	$1, $1, 0xff
8002e308: f0 00 21 2c  	sltiu	$1, $1, 0xf0
8002e30c: e0 ff 20 14  	bnez	$1, 0x8002e290 <.text+0xe290>
8002e310: 00 00 00 00  	nop
8002e314: c7 b8 00 08  	j	0x2e31c <.text+0xe31c>
8002e318: 00 00 00 00  	nop
8002e31c: 2c 00 c4 8f  	lw	$4, 0x2c($fp)
8002e320: c7 96 00 0c  	jal	0x25b1c <.text+0x5b1c>
8002e324: 00 00 00 00  	nop
8002e328: 25 20 40 00  	move	$4, $2
8002e32c: 03 80 01 3c  	lui	$1, 0x8003
8002e330: 08 22 25 24  	addiu	$5, $1, 0x2208
8002e334: ee bb 00 0c  	jal	0x2efb8 <.text+0xefb8>
8002e338: 00 00 00 00  	nop
8002e33c: 18 00 c1 8f  	lw	$1, 0x18($fp)
8002e340: 14 00 c4 8f  	lw	$4, 0x14($fp)
8002e344: 00 00 45 90  	lbu	$5, 0x0($2)
8002e348: 5f 00 c5 a3  	sb	$5, 0x5f($fp)
8002e34c: 07 00 21 30  	andi	$1, $1, 0x7
8002e350: 80 0c 01 00  	sll	$1, $1, 0x12
8002e354: 10 00 c1 af  	sw	$1, 0x10($fp)
8002e358: 41 b8 00 0c  	jal	0x2e104 <.text+0xe104>
8002e35c: 00 00 00 00  	nop
8002e360: 10 00 c1 8f  	lw	$1, 0x10($fp)
8002e364: 25 08 22 00  	or	$1, $1, $2
8002e368: 40 00 c1 af  	sw	$1, 0x40($fp)
8002e36c: a4 b8 00 08  	j	0x2e290 <.text+0xe290>
8002e370: 00 00 00 00  	nop
8002e374: 34 00 c2 8f  	lw	$2, 0x34($fp)
8002e378: 38 00 c3 8f  	lw	$3, 0x38($fp)
8002e37c: 25 e8 c0 03  	move	$sp, $fp
8002e380: 60 00 be 8f  	lw	$fp, 0x60($sp)
8002e384: 64 00 bf 8f  	lw	$ra, 0x64($sp)
8002e388: 68 00 bd 27  	addiu	$sp, $sp, 0x68
8002e38c: 08 00 e0 03  	jr	$ra
8002e390: 00 00 00 00  	nop
8002e394: e8 ff bd 27  	addiu	$sp, $sp, -0x18
8002e398: 14 00 bf af  	sw	$ra, 0x14($sp)
8002e39c: 10 00 be af  	sw	$fp, 0x10($sp)
8002e3a0: 25 f0 a0 03  	move	$fp, $sp
8002e3a4: eb b8 00 08  	j	0x2e3ac <.text+0xe3ac>
8002e3a8: 00 00 00 00  	nop
8002e3ac: 03 80 01 3c  	lui	$1, 0x8003
8002e3b0: 18 22 24 24  	addiu	$4, $1, 0x2218
8002e3b4: 52 00 05 24  	addiu	$5, $zero, 0x52
8002e3b8: 57 b5 00 0c  	jal	0x2d55c <.text+0xd55c>
8002e3bc: 00 00 00 00  	nop
8002e3c0: e0 ff bd 27  	addiu	$sp, $sp, -0x20
8002e3c4: 1c 00 bf af  	sw	$ra, 0x1c($sp)
8002e3c8: 18 00 be af  	sw	$fp, 0x18($sp)
8002e3cc: 25 f0 a0 03  	move	$fp, $sp
8002e3d0: 10 00 c4 af  	sw	$4, 0x10($fp)
8002e3d4: 14 00 c4 af  	sw	$4, 0x14($fp)
8002e3d8: b4 a9 00 0c  	jal	0x2a6d0 <.text+0xa6d0>
8002e3dc: 00 00 00 00  	nop
8002e3e0: 0a 00 40 14  	bnez	$2, 0x8002e40c <.text+0xe40c>
8002e3e4: 00 00 00 00  	nop
8002e3e8: fc b8 00 08  	j	0x2e3f0 <.text+0xe3f0>
8002e3ec: 00 00 00 00  	nop
8002e3f0: 10 00 c2 8f  	lw	$2, 0x10($fp)
8002e3f4: 25 e8 c0 03  	move	$sp, $fp
8002e3f8: 18 00 be 8f  	lw	$fp, 0x18($sp)
8002e3fc: 1c 00 bf 8f  	lw	$ra, 0x1c($sp)
8002e400: 20 00 bd 27  	addiu	$sp, $sp, 0x20
8002e404: 08 00 e0 03  	jr	$ra
8002e408: 00 00 00 00  	nop
8002e40c: 10 00 c4 8f  	lw	$4, 0x10($fp)
8002e410: fb b9 00 0c  	jal	0x2e7ec <.text+0xe7ec>
8002e414: 00 00 00 00  	nop
8002e418: fc b8 00 08  	j	0x2e3f0 <.text+0xe3f0>
8002e41c: 00 00 00 00  	nop
8002e420: e0 ff bd 27  	addiu	$sp, $sp, -0x20
8002e424: 1c 00 bf af  	sw	$ra, 0x1c($sp)
8002e428: 18 00 be af  	sw	$fp, 0x18($sp)
8002e42c: 25 f0 a0 03  	move	$fp, $sp
8002e430: 04 00 c4 af  	sw	$4, 0x4($fp)
8002e434: 0c 00 c4 af  	sw	$4, 0xc($fp)
8002e438: 00 d8 81 38  	xori	$1, $4, 0xd800
8002e43c: 10 00 c1 af  	sw	$1, 0x10($fp)
8002e440: 00 08 02 24  	addiu	$2, $zero, 0x800
8002e444: 14 00 c2 af  	sw	$2, 0x14($fp)
8002e448: 00 f8 22 24  	addiu	$2, $1, -0x800
8002e44c: 10 00 01 3c  	lui	$1, 0x10
8002e450: ff f7 21 34  	ori	$1, $1, 0xf7ff
8002e454: 2b 08 22 00  	sltu	$1, $1, $2
8002e458: 07 00 20 14  	bnez	$1, 0x8002e478 <.text+0xe478>
8002e45c: 00 00 00 00  	nop
8002e460: 1a b9 00 08  	j	0x2e468 <.text+0xe468>
8002e464: 00 00 00 00  	nop
8002e468: 04 00 c1 8f  	lw	$1, 0x4($fp)
8002e46c: 08 00 c1 af  	sw	$1, 0x8($fp)
8002e470: 22 b9 00 08  	j	0x2e488 <.text+0xe488>
8002e474: 00 00 00 00  	nop
8002e478: 11 00 01 3c  	lui	$1, 0x11
8002e47c: 08 00 c1 af  	sw	$1, 0x8($fp)
8002e480: 22 b9 00 08  	j	0x2e488 <.text+0xe488>
8002e484: 00 00 00 00  	nop
8002e488: 08 00 c2 8f  	lw	$2, 0x8($fp)
8002e48c: 25 e8 c0 03  	move	$sp, $fp
8002e490: 18 00 be 8f  	lw	$fp, 0x18($sp)
8002e494: 1c 00 bf 8f  	lw	$ra, 0x1c($sp)
8002e498: 20 00 bd 27  	addiu	$sp, $sp, 0x20
8002e49c: 08 00 e0 03  	jr	$ra
8002e4a0: 00 00 00 00  	nop
8002e4a4: e0 ff bd 27  	addiu	$sp, $sp, -0x20
8002e4a8: 1c 00 bf af  	sw	$ra, 0x1c($sp)
8002e4ac: 18 00 be af  	sw	$fp, 0x18($sp)
8002e4b0: 25 f0 a0 03  	move	$fp, $sp
8002e4b4: 14 00 c4 af  	sw	$4, 0x14($fp)
8002e4b8: f0 b8 00 0c  	jal	0x2e3c0 <.text+0xe3c0>
8002e4bc: 00 00 00 00  	nop
8002e4c0: 25 e8 c0 03  	move	$sp, $fp
8002e4c4: 18 00 be 8f  	lw	$fp, 0x18($sp)
8002e4c8: 1c 00 bf 8f  	lw	$ra, 0x1c($sp)
8002e4cc: 20 00 bd 27  	addiu	$sp, $sp, 0x20
8002e4d0: 08 00 e0 03  	jr	$ra
8002e4d4: 00 00 00 00  	nop
8002e4d8: e0 ff bd 27  	addiu	$sp, $sp, -0x20
8002e4dc: 1c 00 bf af  	sw	$ra, 0x1c($sp)
8002e4e0: 18 00 be af  	sw	$fp, 0x18($sp)
8002e4e4: 25 f0 a0 03  	move	$fp, $sp
8002e4e8: 0c 00 c4 af  	sw	$4, 0xc($fp)
8002e4ec: 10 00 c5 af  	sw	$5, 0x10($fp)
8002e4f0: 04 00 c4 af  	sw	$4, 0x4($fp)
8002e4f4: 08 00 c5 af  	sw	$5, 0x8($fp)
8002e4f8: 04 00 c2 8f  	lw	$2, 0x4($fp)
8002e4fc: 08 00 c3 8f  	lw	$3, 0x8($fp)
8002e500: 25 e8 c0 03  	move	$sp, $fp
8002e504: 18 00 be 8f  	lw	$fp, 0x18($sp)
8002e508: 1c 00 bf 8f  	lw	$ra, 0x1c($sp)
8002e50c: 20 00 bd 27  	addiu	$sp, $sp, 0x20
8002e510: 08 00 e0 03  	jr	$ra
8002e514: 00 00 00 00  	nop
8002e518: d8 ff bd 27  	addiu	$sp, $sp, -0x28
8002e51c: 24 00 bf af  	sw	$ra, 0x24($sp)
8002e520: 20 00 be af  	sw	$fp, 0x20($sp)
8002e524: 25 f0 a0 03  	move	$fp, $sp
8002e528: 14 00 c5 af  	sw	$5, 0x14($fp)
8002e52c: 10 00 c4 af  	sw	$4, 0x10($fp)
8002e530: 18 00 c4 af  	sw	$4, 0x18($fp)
8002e534: 1c 00 c5 af  	sw	$5, 0x1c($fp)
8002e538: 5e b9 00 0c  	jal	0x2e578 <.text+0xe578>
8002e53c: 00 00 00 00  	nop
8002e540: 10 00 c4 8f  	lw	$4, 0x10($fp)
8002e544: 14 00 c5 8f  	lw	$5, 0x14($fp)
8002e548: 04 95 00 0c  	jal	0x25410 <.text+0x5410>
8002e54c: 00 00 00 00  	nop
8002e550: 25 20 40 00  	move	$4, $2
8002e554: 25 28 60 00  	move	$5, $3
8002e558: 03 99 00 0c  	jal	0x2640c <.text+0x640c>
8002e55c: 00 00 00 00  	nop
8002e560: 25 e8 c0 03  	move	$sp, $fp
8002e564: 20 00 be 8f  	lw	$fp, 0x20($sp)
8002e568: 24 00 bf 8f  	lw	$ra, 0x24($sp)
8002e56c: 28 00 bd 27  	addiu	$sp, $sp, 0x28
8002e570: 08 00 e0 03  	jr	$ra
8002e574: 00 00 00 00  	nop
8002e578: f0 ff bd 27  	addiu	$sp, $sp, -0x10
8002e57c: 0c 00 bf af  	sw	$ra, 0xc($sp)
8002e580: 08 00 be af  	sw	$fp, 0x8($sp)
8002e584: 25 f0 a0 03  	move	$fp, $sp
8002e588: 25 e8 c0 03  	move	$sp, $fp
8002e58c: 08 00 be 8f  	lw	$fp, 0x8($sp)
8002e590: 0c 00 bf 8f  	lw	$ra, 0xc($sp)
8002e594: 10 00 bd 27  	addiu	$sp, $sp, 0x10
8002e598: 08 00 e0 03  	jr	$ra
8002e59c: 00 00 00 00  	nop
8002e5a0: d8 ff bd 27  	addiu	$sp, $sp, -0x28
8002e5a4: 24 00 bf af  	sw	$ra, 0x24($sp)
8002e5a8: 20 00 be af  	sw	$fp, 0x20($sp)
8002e5ac: 25 f0 a0 03  	move	$fp, $sp
8002e5b0: 14 00 c5 af  	sw	$5, 0x14($fp)
8002e5b4: 1c 00 c4 af  	sw	$4, 0x1c($fp)
8002e5b8: 14 00 c1 27  	addiu	$1, $fp, 0x14
8002e5bc: 18 00 c1 af  	sw	$1, 0x18($fp)
8002e5c0: 18 00 c5 8f  	lw	$5, 0x18($fp)
8002e5c4: b5 a7 00 0c  	jal	0x29ed4 <.text+0x9ed4>
8002e5c8: 00 00 00 00  	nop
8002e5cc: 25 e8 c0 03  	move	$sp, $fp
8002e5d0: 20 00 be 8f  	lw	$fp, 0x20($sp)
8002e5d4: 24 00 bf 8f  	lw	$ra, 0x24($sp)
8002e5d8: 28 00 bd 27  	addiu	$sp, $sp, 0x28
8002e5dc: 08 00 e0 03  	jr	$ra
8002e5e0: 00 00 00 00  	nop
8002e5e4: a0 ff bd 27  	addiu	$sp, $sp, -0x60
8002e5e8: 5c 00 bf af  	sw	$ra, 0x5c($sp)
8002e5ec: 58 00 be af  	sw	$fp, 0x58($sp)
8002e5f0: 25 f0 a0 03  	move	$fp, $sp
8002e5f4: 18 00 c4 af  	sw	$4, 0x18($fp)
8002e5f8: 22 00 c5 a3  	sb	$5, 0x22($fp)
8002e5fc: 54 00 c4 af  	sw	$4, 0x54($fp)
8002e600: 22 00 c1 93  	lbu	$1, 0x22($fp)
8002e604: 1c 00 c1 af  	sw	$1, 0x1c($fp)
8002e608: 1c 00 c1 8f  	lw	$1, 0x1c($fp)
8002e60c: 80 08 01 00  	sll	$1, $1, 0x2
8002e610: 03 80 02 3c  	lui	$2, 0x8003
8002e614: 21 08 22 00  	addu	$1, $1, $2
8002e618: 6c 22 21 8c  	lw	$1, 0x226c($1)
8002e61c: 08 00 20 00  	jr	$1
8002e620: 00 00 00 00  	nop
8002e624: 0d 00 00 00  	break
8002e628: 18 00 c1 8f  	lw	$1, 0x18($fp)
8002e62c: 00 00 21 80  	lb	$1, 0x0($1)
8002e630: 23 00 c1 a3  	sb	$1, 0x23($fp)
8002e634: b3 b9 00 08  	j	0x2e6cc <.text+0xe6cc>
8002e638: 00 00 00 00  	nop
8002e63c: 03 80 01 3c  	lui	$1, 0x8003
8002e640: bc 22 25 24  	addiu	$5, $1, 0x22bc
8002e644: 24 00 c4 27  	addiu	$4, $fp, 0x24
8002e648: 14 00 c4 af  	sw	$4, 0x14($fp)
8002e64c: 01 00 06 24  	addiu	$6, $zero, 0x1
8002e650: a0 aa 00 0c  	jal	0x2aa80 <.text+0xaa80>
8002e654: 00 00 00 00  	nop
8002e658: 14 00 c4 8f  	lw	$4, 0x14($fp)
8002e65c: 03 80 01 3c  	lui	$1, 0x8003
8002e660: 3c 23 25 24  	addiu	$5, $1, 0x233c
8002e664: f6 b4 00 0c  	jal	0x2d3d8 <.text+0xd3d8>
8002e668: 00 00 00 00  	nop
8002e66c: 18 00 c1 8f  	lw	$1, 0x18($fp)
8002e670: 00 00 21 80  	lb	$1, 0x0($1)
8002e674: 0f 00 00 00  	sync
8002e678: 23 00 c1 a3  	sb	$1, 0x23($fp)
8002e67c: b3 b9 00 08  	j	0x2e6cc <.text+0xe6cc>
8002e680: 00 00 00 00  	nop
8002e684: 03 80 01 3c  	lui	$1, 0x8003
8002e688: 80 23 25 24  	addiu	$5, $1, 0x2380
8002e68c: 3c 00 c4 27  	addiu	$4, $fp, 0x3c
8002e690: 10 00 c4 af  	sw	$4, 0x10($fp)
8002e694: 01 00 06 24  	addiu	$6, $zero, 0x1
8002e698: a0 aa 00 0c  	jal	0x2aa80 <.text+0xaa80>
8002e69c: 00 00 00 00  	nop
8002e6a0: 10 00 c4 8f  	lw	$4, 0x10($fp)
8002e6a4: 03 80 01 3c  	lui	$1, 0x8003
8002e6a8: 88 23 25 24  	addiu	$5, $1, 0x2388
8002e6ac: f6 b4 00 0c  	jal	0x2d3d8 <.text+0xd3d8>
8002e6b0: 00 00 00 00  	nop
8002e6b4: 18 00 c1 8f  	lw	$1, 0x18($fp)
8002e6b8: 00 00 21 80  	lb	$1, 0x0($1)
8002e6bc: 0f 00 00 00  	sync
8002e6c0: 23 00 c1 a3  	sb	$1, 0x23($fp)
8002e6c4: b3 b9 00 08  	j	0x2e6cc <.text+0xe6cc>
8002e6c8: 00 00 00 00  	nop
8002e6cc: 23 00 c2 93  	lbu	$2, 0x23($fp)
8002e6d0: 25 e8 c0 03  	move	$sp, $fp
8002e6d4: 58 00 be 8f  	lw	$fp, 0x58($sp)
8002e6d8: 5c 00 bf 8f  	lw	$ra, 0x5c($sp)
8002e6dc: 60 00 bd 27  	addiu	$sp, $sp, 0x60
8002e6e0: 08 00 e0 03  	jr	$ra
8002e6e4: 00 00 00 00  	nop
8002e6e8: 98 ff bd 27  	addiu	$sp, $sp, -0x68
8002e6ec: 64 00 bf af  	sw	$ra, 0x64($sp)
8002e6f0: 60 00 be af  	sw	$fp, 0x60($sp)
8002e6f4: 25 f0 a0 03  	move	$fp, $sp
8002e6f8: 1c 00 c4 af  	sw	$4, 0x1c($fp)
8002e6fc: 27 00 c5 a3  	sb	$5, 0x27($fp)
8002e700: 5c 00 c4 af  	sw	$4, 0x5c($fp)
8002e704: 27 00 c1 93  	lbu	$1, 0x27($fp)
8002e708: 20 00 c1 af  	sw	$1, 0x20($fp)
8002e70c: 20 00 c1 8f  	lw	$1, 0x20($fp)
8002e710: 80 08 01 00  	sll	$1, $1, 0x2
8002e714: 03 80 02 3c  	lui	$2, 0x8003
8002e718: 21 08 22 00  	addu	$1, $1, $2
8002e71c: 80 22 21 8c  	lw	$1, 0x2280($1)
8002e720: 08 00 20 00  	jr	$1
8002e724: 00 00 00 00  	nop
8002e728: 0d 00 00 00  	break
8002e72c: 1c 00 c1 8f  	lw	$1, 0x1c($fp)
8002e730: 00 00 21 8c  	lw	$1, 0x0($1)
8002e734: 28 00 c1 af  	sw	$1, 0x28($fp)
8002e738: f4 b9 00 08  	j	0x2e7d0 <.text+0xe7d0>
8002e73c: 00 00 00 00  	nop
8002e740: 03 80 01 3c  	lui	$1, 0x8003
8002e744: bc 22 25 24  	addiu	$5, $1, 0x22bc
8002e748: 2c 00 c4 27  	addiu	$4, $fp, 0x2c
8002e74c: 18 00 c4 af  	sw	$4, 0x18($fp)
8002e750: 01 00 06 24  	addiu	$6, $zero, 0x1
8002e754: a0 aa 00 0c  	jal	0x2aa80 <.text+0xaa80>
8002e758: 00 00 00 00  	nop
8002e75c: 18 00 c4 8f  	lw	$4, 0x18($fp)
8002e760: 03 80 01 3c  	lui	$1, 0x8003
8002e764: 3c 23 25 24  	addiu	$5, $1, 0x233c
8002e768: f6 b4 00 0c  	jal	0x2d3d8 <.text+0xd3d8>
8002e76c: 00 00 00 00  	nop
8002e770: 1c 00 c1 8f  	lw	$1, 0x1c($fp)
8002e774: 00 00 21 8c  	lw	$1, 0x0($1)
8002e778: 0f 00 00 00  	sync
8002e77c: 28 00 c1 af  	sw	$1, 0x28($fp)
8002e780: f4 b9 00 08  	j	0x2e7d0 <.text+0xe7d0>
8002e784: 00 00 00 00  	nop
8002e788: 03 80 01 3c  	lui	$1, 0x8003
8002e78c: 80 23 25 24  	addiu	$5, $1, 0x2380
8002e790: 44 00 c4 27  	addiu	$4, $fp, 0x44
8002e794: 14 00 c4 af  	sw	$4, 0x14($fp)
8002e798: 01 00 06 24  	addiu	$6, $zero, 0x1
8002e79c: a0 aa 00 0c  	jal	0x2aa80 <.text+0xaa80>
8002e7a0: 00 00 00 00  	nop
8002e7a4: 14 00 c4 8f  	lw	$4, 0x14($fp)
8002e7a8: 03 80 01 3c  	lui	$1, 0x8003
8002e7ac: 88 23 25 24  	addiu	$5, $1, 0x2388
8002e7b0: f6 b4 00 0c  	jal	0x2d3d8 <.text+0xd3d8>
8002e7b4: 00 00 00 00  	nop
8002e7b8: 1c 00 c1 8f  	lw	$1, 0x1c($fp)
8002e7bc: 00 00 21 8c  	lw	$1, 0x0($1)
8002e7c0: 0f 00 00 00  	sync
8002e7c4: 28 00 c1 af  	sw	$1, 0x28($fp)
8002e7c8: f4 b9 00 08  	j	0x2e7d0 <.text+0xe7d0>
8002e7cc: 00 00 00 00  	nop
8002e7d0: 28 00 c2 8f  	lw	$2, 0x28($fp)
8002e7d4: 25 e8 c0 03  	move	$sp, $fp
8002e7d8: 60 00 be 8f  	lw	$fp, 0x60($sp)
8002e7dc: 64 00 bf 8f  	lw	$ra, 0x64($sp)
8002e7e0: 68 00 bd 27  	addiu	$sp, $sp, 0x68
8002e7e4: 08 00 e0 03  	jr	$ra
8002e7e8: 00 00 00 00  	nop
8002e7ec: e0 ff bd 27  	addiu	$sp, $sp, -0x20
8002e7f0: 1c 00 bf af  	sw	$ra, 0x1c($sp)
8002e7f4: 18 00 be af  	sw	$fp, 0x18($sp)
8002e7f8: 25 f0 a0 03  	move	$fp, $sp
8002e7fc: 14 00 c4 af  	sw	$4, 0x14($fp)
8002e800: 08 b9 00 0c  	jal	0x2e420 <.text+0xe420>
8002e804: 00 00 00 00  	nop
8002e808: 10 00 c2 af  	sw	$2, 0x10($fp)
8002e80c: 10 00 c4 27  	addiu	$4, $fp, 0x10
8002e810: 46 bd 00 0c  	jal	0x2f518 <.text+0xf518>
8002e814: 00 00 00 00  	nop
8002e818: 08 00 40 14  	bnez	$2, 0x8002e83c <.text+0xe83c>
8002e81c: 00 00 00 00  	nop
8002e820: 0a ba 00 08  	j	0x2e828 <.text+0xe828>
8002e824: 00 00 00 00  	nop
8002e828: 03 80 01 3c  	lui	$1, 0x8003
8002e82c: 98 23 24 24  	addiu	$4, $1, 0x2398
8002e830: 39 00 05 24  	addiu	$5, $zero, 0x39
8002e834: 57 b5 00 0c  	jal	0x2d55c <.text+0xd55c>
8002e838: 00 00 00 00  	nop
8002e83c: 25 e8 c0 03  	move	$sp, $fp
8002e840: 18 00 be 8f  	lw	$fp, 0x18($sp)
8002e844: 1c 00 bf 8f  	lw	$ra, 0x1c($sp)
8002e848: 20 00 bd 27  	addiu	$sp, $sp, 0x20
8002e84c: 08 00 e0 03  	jr	$ra
8002e850: 00 00 00 00  	nop
8002e854: e0 ff bd 27  	addiu	$sp, $sp, -0x20
8002e858: 1c 00 bf af  	sw	$ra, 0x1c($sp)
8002e85c: 18 00 be af  	sw	$fp, 0x18($sp)
8002e860: 25 f0 a0 03  	move	$fp, $sp
8002e864: 08 00 c4 af  	sw	$4, 0x8($fp)
8002e868: 0c 00 c5 af  	sw	$5, 0xc($fp)
8002e86c: 10 00 c4 af  	sw	$4, 0x10($fp)
8002e870: 14 00 c5 af  	sw	$5, 0x14($fp)
8002e874: 04 00 c4 af  	sw	$4, 0x4($fp)
8002e878: 04 00 c2 8f  	lw	$2, 0x4($fp)
8002e87c: 25 e8 c0 03  	move	$sp, $fp
8002e880: 18 00 be 8f  	lw	$fp, 0x18($sp)
8002e884: 1c 00 bf 8f  	lw	$ra, 0x1c($sp)
8002e888: 20 00 bd 27  	addiu	$sp, $sp, 0x20
8002e88c: 08 00 e0 03  	jr	$ra
8002e890: 00 00 00 00  	nop
8002e894: e0 ff bd 27  	addiu	$sp, $sp, -0x20
8002e898: 1c 00 bf af  	sw	$ra, 0x1c($sp)
8002e89c: 18 00 be af  	sw	$fp, 0x18($sp)
8002e8a0: 25 f0 a0 03  	move	$fp, $sp
8002e8a4: 08 00 c4 af  	sw	$4, 0x8($fp)
8002e8a8: 0c 00 c5 af  	sw	$5, 0xc($fp)
8002e8ac: 10 00 c4 af  	sw	$4, 0x10($fp)
8002e8b0: 14 00 c5 af  	sw	$5, 0x14($fp)
8002e8b4: 04 00 c4 af  	sw	$4, 0x4($fp)
8002e8b8: 04 00 c2 8f  	lw	$2, 0x4($fp)
8002e8bc: 25 e8 c0 03  	move	$sp, $fp
8002e8c0: 18 00 be 8f  	lw	$fp, 0x18($sp)
8002e8c4: 1c 00 bf 8f  	lw	$ra, 0x1c($sp)
8002e8c8: 20 00 bd 27  	addiu	$sp, $sp, 0x20
8002e8cc: 08 00 e0 03  	jr	$ra
8002e8d0: 00 00 00 00  	nop
8002e8d4: e0 ff bd 27  	addiu	$sp, $sp, -0x20
8002e8d8: 1c 00 bf af  	sw	$ra, 0x1c($sp)
8002e8dc: 18 00 be af  	sw	$fp, 0x18($sp)
8002e8e0: 25 f0 a0 03  	move	$fp, $sp
8002e8e4: 08 00 c4 af  	sw	$4, 0x8($fp)
8002e8e8: 0c 00 c5 af  	sw	$5, 0xc($fp)
8002e8ec: 10 00 c4 af  	sw	$4, 0x10($fp)
8002e8f0: 14 00 c5 af  	sw	$5, 0x14($fp)
8002e8f4: 04 00 c4 af  	sw	$4, 0x4($fp)
8002e8f8: 04 00 c2 8f  	lw	$2, 0x4($fp)
8002e8fc: 25 e8 c0 03  	move	$sp, $fp
8002e900: 18 00 be 8f  	lw	$fp, 0x18($sp)
8002e904: 1c 00 bf 8f  	lw	$ra, 0x1c($sp)
8002e908: 20 00 bd 27  	addiu	$sp, $sp, 0x20
8002e90c: 08 00 e0 03  	jr	$ra
8002e910: 00 00 00 00  	nop
8002e914: e0 ff bd 27  	addiu	$sp, $sp, -0x20
8002e918: 1c 00 bf af  	sw	$ra, 0x1c($sp)
8002e91c: 18 00 be af  	sw	$fp, 0x18($sp)
8002e920: 25 f0 a0 03  	move	$fp, $sp
8002e924: 08 00 c4 af  	sw	$4, 0x8($fp)
8002e928: 0c 00 c5 af  	sw	$5, 0xc($fp)
8002e92c: 10 00 c4 af  	sw	$4, 0x10($fp)
8002e930: 14 00 c5 af  	sw	$5, 0x14($fp)
8002e934: 04 00 c4 af  	sw	$4, 0x4($fp)
8002e938: 04 00 c2 8f  	lw	$2, 0x4($fp)
8002e93c: 25 e8 c0 03  	move	$sp, $fp
8002e940: 18 00 be 8f  	lw	$fp, 0x18($sp)
8002e944: 1c 00 bf 8f  	lw	$ra, 0x1c($sp)
8002e948: 20 00 bd 27  	addiu	$sp, $sp, 0x20
8002e94c: 08 00 e0 03  	jr	$ra
8002e950: 00 00 00 00  	nop
8002e954: e0 ff bd 27  	addiu	$sp, $sp, -0x20
8002e958: 1c 00 bf af  	sw	$ra, 0x1c($sp)
8002e95c: 18 00 be af  	sw	$fp, 0x18($sp)
8002e960: 25 f0 a0 03  	move	$fp, $sp
8002e964: 08 00 c4 af  	sw	$4, 0x8($fp)
8002e968: 0c 00 c5 af  	sw	$5, 0xc($fp)
8002e96c: 10 00 c4 af  	sw	$4, 0x10($fp)
8002e970: 14 00 c5 af  	sw	$5, 0x14($fp)
8002e974: 04 00 c4 af  	sw	$4, 0x4($fp)
8002e978: 04 00 c2 8f  	lw	$2, 0x4($fp)
8002e97c: 25 e8 c0 03  	move	$sp, $fp
8002e980: 18 00 be 8f  	lw	$fp, 0x18($sp)
8002e984: 1c 00 bf 8f  	lw	$ra, 0x1c($sp)
8002e988: 20 00 bd 27  	addiu	$sp, $sp, 0x20
8002e98c: 08 00 e0 03  	jr	$ra
8002e990: 00 00 00 00  	nop
8002e994: e0 ff bd 27  	addiu	$sp, $sp, -0x20
8002e998: 1c 00 bf af  	sw	$ra, 0x1c($sp)
8002e99c: 18 00 be af  	sw	$fp, 0x18($sp)
8002e9a0: 25 f0 a0 03  	move	$fp, $sp
8002e9a4: 08 00 c4 af  	sw	$4, 0x8($fp)
8002e9a8: 0c 00 c5 af  	sw	$5, 0xc($fp)
8002e9ac: 10 00 c4 af  	sw	$4, 0x10($fp)
8002e9b0: 14 00 c5 af  	sw	$5, 0x14($fp)
8002e9b4: 04 00 c4 af  	sw	$4, 0x4($fp)
8002e9b8: 04 00 c2 8f  	lw	$2, 0x4($fp)
8002e9bc: 25 e8 c0 03  	move	$sp, $fp
8002e9c0: 18 00 be 8f  	lw	$fp, 0x18($sp)
8002e9c4: 1c 00 bf 8f  	lw	$ra, 0x1c($sp)
8002e9c8: 20 00 bd 27  	addiu	$sp, $sp, 0x20
8002e9cc: 08 00 e0 03  	jr	$ra
8002e9d0: 00 00 00 00  	nop
8002e9d4: e0 ff bd 27  	addiu	$sp, $sp, -0x20
8002e9d8: 1c 00 bf af  	sw	$ra, 0x1c($sp)
8002e9dc: 18 00 be af  	sw	$fp, 0x18($sp)
8002e9e0: 25 f0 a0 03  	move	$fp, $sp
8002e9e4: 10 00 c4 af  	sw	$4, 0x10($fp)
8002e9e8: 14 00 c5 af  	sw	$5, 0x14($fp)
8002e9ec: 6f b3 00 0c  	jal	0x2cdbc <.text+0xcdbc>
8002e9f0: 00 00 00 00  	nop
8002e9f4: 25 e8 c0 03  	move	$sp, $fp
8002e9f8: 18 00 be 8f  	lw	$fp, 0x18($sp)
8002e9fc: 1c 00 bf 8f  	lw	$ra, 0x1c($sp)
8002ea00: 20 00 bd 27  	addiu	$sp, $sp, 0x20
8002ea04: 08 00 e0 03  	jr	$ra
8002ea08: 00 00 00 00  	nop
8002ea0c: e8 ff bd 27  	addiu	$sp, $sp, -0x18
8002ea10: 14 00 bf af  	sw	$ra, 0x14($sp)
8002ea14: 10 00 be af  	sw	$fp, 0x10($sp)
8002ea18: 25 f0 a0 03  	move	$fp, $sp
8002ea1c: 00 00 c4 af  	sw	$4, 0x0($fp)
8002ea20: 04 00 c5 af  	sw	$5, 0x4($fp)
8002ea24: 00 00 81 8c  	lw	$1, 0x0($4)
8002ea28: 0c 00 c1 af  	sw	$1, 0xc($fp)
8002ea2c: 00 00 a2 8c  	lw	$2, 0x0($5)
8002ea30: 08 00 c2 af  	sw	$2, 0x8($fp)
8002ea34: 26 08 22 00  	xor	$1, $1, $2
8002ea38: 01 00 22 2c  	sltiu	$2, $1, 0x1
8002ea3c: 25 e8 c0 03  	move	$sp, $fp
8002ea40: 10 00 be 8f  	lw	$fp, 0x10($sp)
8002ea44: 14 00 bf 8f  	lw	$ra, 0x14($sp)
8002ea48: 18 00 bd 27  	addiu	$sp, $sp, 0x18
8002ea4c: 08 00 e0 03  	jr	$ra
8002ea50: 00 00 00 00  	nop
8002ea54: e8 ff bd 27  	addiu	$sp, $sp, -0x18
8002ea58: 14 00 bf af  	sw	$ra, 0x14($sp)
8002ea5c: 10 00 be af  	sw	$fp, 0x10($sp)
8002ea60: 25 f0 a0 03  	move	$fp, $sp
8002ea64: 00 00 c4 af  	sw	$4, 0x0($fp)
8002ea68: 04 00 c5 af  	sw	$5, 0x4($fp)
8002ea6c: 00 00 81 8c  	lw	$1, 0x0($4)
8002ea70: 0c 00 c1 af  	sw	$1, 0xc($fp)
8002ea74: 00 00 a2 8c  	lw	$2, 0x0($5)
8002ea78: 08 00 c2 af  	sw	$2, 0x8($fp)
8002ea7c: 26 08 22 00  	xor	$1, $1, $2
8002ea80: 01 00 22 2c  	sltiu	$2, $1, 0x1
8002ea84: 25 e8 c0 03  	move	$sp, $fp
8002ea88: 10 00 be 8f  	lw	$fp, 0x10($sp)
8002ea8c: 14 00 bf 8f  	lw	$ra, 0x14($sp)
8002ea90: 18 00 bd 27  	addiu	$sp, $sp, 0x18
8002ea94: 08 00 e0 03  	jr	$ra
8002ea98: 00 00 00 00  	nop
8002ea9c: e8 ff bd 27  	addiu	$sp, $sp, -0x18
8002eaa0: 14 00 bf af  	sw	$ra, 0x14($sp)
8002eaa4: 10 00 be af  	sw	$fp, 0x10($sp)
8002eaa8: 25 f0 a0 03  	move	$fp, $sp
8002eaac: 00 00 c4 af  	sw	$4, 0x0($fp)
8002eab0: 04 00 c5 af  	sw	$5, 0x4($fp)
8002eab4: 00 00 81 8c  	lw	$1, 0x0($4)
8002eab8: 0c 00 c1 af  	sw	$1, 0xc($fp)
8002eabc: 00 00 a2 8c  	lw	$2, 0x0($5)
8002eac0: 08 00 c2 af  	sw	$2, 0x8($fp)
8002eac4: 26 08 22 00  	xor	$1, $1, $2
8002eac8: 01 00 22 2c  	sltiu	$2, $1, 0x1
8002eacc: 25 e8 c0 03  	move	$sp, $fp
8002ead0: 10 00 be 8f  	lw	$fp, 0x10($sp)
8002ead4: 14 00 bf 8f  	lw	$ra, 0x14($sp)
8002ead8: 18 00 bd 27  	addiu	$sp, $sp, 0x18
8002eadc: 08 00 e0 03  	jr	$ra
8002eae0: 00 00 00 00  	nop
8002eae4: e8 ff bd 27  	addiu	$sp, $sp, -0x18
8002eae8: 14 00 bf af  	sw	$ra, 0x14($sp)
8002eaec: 10 00 be af  	sw	$fp, 0x10($sp)
8002eaf0: 25 f0 a0 03  	move	$fp, $sp
8002eaf4: 00 00 c4 af  	sw	$4, 0x0($fp)
8002eaf8: 04 00 c5 af  	sw	$5, 0x4($fp)
8002eafc: 00 00 81 8c  	lw	$1, 0x0($4)
8002eb00: 0c 00 c1 af  	sw	$1, 0xc($fp)
8002eb04: 00 00 a2 8c  	lw	$2, 0x0($5)
8002eb08: 08 00 c2 af  	sw	$2, 0x8($fp)
8002eb0c: 26 08 22 00  	xor	$1, $1, $2
8002eb10: 01 00 22 2c  	sltiu	$2, $1, 0x1
8002eb14: 25 e8 c0 03  	move	$sp, $fp
8002eb18: 10 00 be 8f  	lw	$fp, 0x10($sp)
8002eb1c: 14 00 bf 8f  	lw	$ra, 0x14($sp)
8002eb20: 18 00 bd 27  	addiu	$sp, $sp, 0x18
8002eb24: 08 00 e0 03  	jr	$ra
8002eb28: 00 00 00 00  	nop
8002eb2c: e8 ff bd 27  	addiu	$sp, $sp, -0x18
8002eb30: 14 00 bf af  	sw	$ra, 0x14($sp)
8002eb34: 10 00 be af  	sw	$fp, 0x10($sp)
8002eb38: 25 f0 a0 03  	move	$fp, $sp
8002eb3c: 00 00 c4 af  	sw	$4, 0x0($fp)
8002eb40: 04 00 c5 af  	sw	$5, 0x4($fp)
8002eb44: 00 00 81 8c  	lw	$1, 0x0($4)
8002eb48: 0c 00 c1 af  	sw	$1, 0xc($fp)
8002eb4c: 00 00 a2 8c  	lw	$2, 0x0($5)
8002eb50: 08 00 c2 af  	sw	$2, 0x8($fp)
8002eb54: 26 08 22 00  	xor	$1, $1, $2
8002eb58: 01 00 22 2c  	sltiu	$2, $1, 0x1
8002eb5c: 25 e8 c0 03  	move	$sp, $fp
8002eb60: 10 00 be 8f  	lw	$fp, 0x10($sp)
8002eb64: 14 00 bf 8f  	lw	$ra, 0x14($sp)
8002eb68: 18 00 bd 27  	addiu	$sp, $sp, 0x18
8002eb6c: 08 00 e0 03  	jr	$ra
8002eb70: 00 00 00 00  	nop
8002eb74: e8 ff bd 27  	addiu	$sp, $sp, -0x18
8002eb78: 14 00 bf af  	sw	$ra, 0x14($sp)
8002eb7c: 10 00 be af  	sw	$fp, 0x10($sp)
8002eb80: 25 f0 a0 03  	move	$fp, $sp
8002eb84: 00 00 c4 af  	sw	$4, 0x0($fp)
8002eb88: 04 00 c5 af  	sw	$5, 0x4($fp)
8002eb8c: 00 00 81 8c  	lw	$1, 0x0($4)
8002eb90: 0c 00 c1 af  	sw	$1, 0xc($fp)
8002eb94: 00 00 a2 8c  	lw	$2, 0x0($5)
8002eb98: 08 00 c2 af  	sw	$2, 0x8($fp)
8002eb9c: 26 08 22 00  	xor	$1, $1, $2
8002eba0: 01 00 22 2c  	sltiu	$2, $1, 0x1
8002eba4: 25 e8 c0 03  	move	$sp, $fp
8002eba8: 10 00 be 8f  	lw	$fp, 0x10($sp)
8002ebac: 14 00 bf 8f  	lw	$ra, 0x14($sp)
8002ebb0: 18 00 bd 27  	addiu	$sp, $sp, 0x18
8002ebb4: 08 00 e0 03  	jr	$ra
8002ebb8: 00 00 00 00  	nop
8002ebbc: e8 ff bd 27  	addiu	$sp, $sp, -0x18
8002ebc0: 14 00 bf af  	sw	$ra, 0x14($sp)
8002ebc4: 10 00 be af  	sw	$fp, 0x10($sp)
8002ebc8: 25 f0 a0 03  	move	$fp, $sp
8002ebcc: 08 00 c4 af  	sw	$4, 0x8($fp)
8002ebd0: 0c 00 c5 af  	sw	$5, 0xc($fp)
8002ebd4: 00 00 c4 af  	sw	$4, 0x0($fp)
8002ebd8: 04 00 c5 af  	sw	$5, 0x4($fp)
8002ebdc: 00 00 c2 8f  	lw	$2, 0x0($fp)
8002ebe0: 04 00 c3 8f  	lw	$3, 0x4($fp)
8002ebe4: 25 e8 c0 03  	move	$sp, $fp
8002ebe8: 10 00 be 8f  	lw	$fp, 0x10($sp)
8002ebec: 14 00 bf 8f  	lw	$ra, 0x14($sp)
8002ebf0: 18 00 bd 27  	addiu	$sp, $sp, 0x18
8002ebf4: 08 00 e0 03  	jr	$ra
8002ebf8: 00 00 00 00  	nop
8002ebfc: e8 ff bd 27  	addiu	$sp, $sp, -0x18
8002ec00: 14 00 bf af  	sw	$ra, 0x14($sp)
8002ec04: 10 00 be af  	sw	$fp, 0x10($sp)
8002ec08: 25 f0 a0 03  	move	$fp, $sp
8002ec0c: 08 00 c4 af  	sw	$4, 0x8($fp)
8002ec10: 0c 00 c5 af  	sw	$5, 0xc($fp)
8002ec14: 00 00 c4 af  	sw	$4, 0x0($fp)
8002ec18: 04 00 c5 af  	sw	$5, 0x4($fp)
8002ec1c: 00 00 c2 8f  	lw	$2, 0x0($fp)
8002ec20: 04 00 c3 8f  	lw	$3, 0x4($fp)
8002ec24: 25 e8 c0 03  	move	$sp, $fp
8002ec28: 10 00 be 8f  	lw	$fp, 0x10($sp)
8002ec2c: 14 00 bf 8f  	lw	$ra, 0x14($sp)
8002ec30: 18 00 bd 27  	addiu	$sp, $sp, 0x18
8002ec34: 08 00 e0 03  	jr	$ra
8002ec38: 00 00 00 00  	nop
8002ec3c: e8 ff bd 27  	addiu	$sp, $sp, -0x18
8002ec40: 14 00 bf af  	sw	$ra, 0x14($sp)
8002ec44: 10 00 be af  	sw	$fp, 0x10($sp)
8002ec48: 25 f0 a0 03  	move	$fp, $sp
8002ec4c: 08 00 c4 af  	sw	$4, 0x8($fp)
8002ec50: 0c 00 c5 af  	sw	$5, 0xc($fp)
8002ec54: 00 00 c4 af  	sw	$4, 0x0($fp)
8002ec58: 04 00 c5 af  	sw	$5, 0x4($fp)
8002ec5c: 00 00 c2 8f  	lw	$2, 0x0($fp)
8002ec60: 04 00 c3 8f  	lw	$3, 0x4($fp)
8002ec64: 25 e8 c0 03  	move	$sp, $fp
8002ec68: 10 00 be 8f  	lw	$fp, 0x10($sp)
8002ec6c: 14 00 bf 8f  	lw	$ra, 0x14($sp)
8002ec70: 18 00 bd 27  	addiu	$sp, $sp, 0x18
8002ec74: 08 00 e0 03  	jr	$ra
8002ec78: 00 00 00 00  	nop
8002ec7c: e8 ff bd 27  	addiu	$sp, $sp, -0x18
8002ec80: 14 00 bf af  	sw	$ra, 0x14($sp)
8002ec84: 10 00 be af  	sw	$fp, 0x10($sp)
8002ec88: 25 f0 a0 03  	move	$fp, $sp
8002ec8c: 08 00 c4 af  	sw	$4, 0x8($fp)
8002ec90: 0c 00 c5 af  	sw	$5, 0xc($fp)
8002ec94: 00 00 c4 af  	sw	$4, 0x0($fp)
8002ec98: 04 00 c5 af  	sw	$5, 0x4($fp)
8002ec9c: 00 00 c2 8f  	lw	$2, 0x0($fp)
8002eca0: 04 00 c3 8f  	lw	$3, 0x4($fp)
8002eca4: 25 e8 c0 03  	move	$sp, $fp
8002eca8: 10 00 be 8f  	lw	$fp, 0x10($sp)
8002ecac: 14 00 bf 8f  	lw	$ra, 0x14($sp)
8002ecb0: 18 00 bd 27  	addiu	$sp, $sp, 0x18
8002ecb4: 08 00 e0 03  	jr	$ra
8002ecb8: 00 00 00 00  	nop
8002ecbc: e8 ff bd 27  	addiu	$sp, $sp, -0x18
8002ecc0: 14 00 bf af  	sw	$ra, 0x14($sp)
8002ecc4: 10 00 be af  	sw	$fp, 0x10($sp)
8002ecc8: 25 f0 a0 03  	move	$fp, $sp
8002eccc: 08 00 c4 af  	sw	$4, 0x8($fp)
8002ecd0: 0c 00 c5 af  	sw	$5, 0xc($fp)
8002ecd4: 00 00 c4 af  	sw	$4, 0x0($fp)
8002ecd8: 04 00 c5 af  	sw	$5, 0x4($fp)
8002ecdc: 00 00 c2 8f  	lw	$2, 0x0($fp)
8002ece0: 04 00 c3 8f  	lw	$3, 0x4($fp)
8002ece4: 25 e8 c0 03  	move	$sp, $fp
8002ece8: 10 00 be 8f  	lw	$fp, 0x10($sp)
8002ecec: 14 00 bf 8f  	lw	$ra, 0x14($sp)
8002ecf0: 18 00 bd 27  	addiu	$sp, $sp, 0x18
8002ecf4: 08 00 e0 03  	jr	$ra
8002ecf8: 00 00 00 00  	nop
8002ecfc: e8 ff bd 27  	addiu	$sp, $sp, -0x18
8002ed00: 14 00 bf af  	sw	$ra, 0x14($sp)
8002ed04: 10 00 be af  	sw	$fp, 0x10($sp)
8002ed08: 25 f0 a0 03  	move	$fp, $sp
8002ed0c: 08 00 c4 af  	sw	$4, 0x8($fp)
8002ed10: 0c 00 c5 af  	sw	$5, 0xc($fp)
8002ed14: 00 00 c4 af  	sw	$4, 0x0($fp)
8002ed18: 04 00 c5 af  	sw	$5, 0x4($fp)
8002ed1c: 00 00 c2 8f  	lw	$2, 0x0($fp)
8002ed20: 04 00 c3 8f  	lw	$3, 0x4($fp)
8002ed24: 25 e8 c0 03  	move	$sp, $fp
8002ed28: 10 00 be 8f  	lw	$fp, 0x10($sp)
8002ed2c: 14 00 bf 8f  	lw	$ra, 0x14($sp)
8002ed30: 18 00 bd 27  	addiu	$sp, $sp, 0x18
8002ed34: 08 00 e0 03  	jr	$ra
8002ed38: 00 00 00 00  	nop
8002ed3c: f0 ff bd 27  	addiu	$sp, $sp, -0x10
8002ed40: 0c 00 bf af  	sw	$ra, 0xc($sp)
8002ed44: 08 00 be af  	sw	$fp, 0x8($sp)
8002ed48: 25 f0 a0 03  	move	$fp, $sp
8002ed4c: 04 00 c4 af  	sw	$4, 0x4($fp)
8002ed50: 04 00 81 8c  	lw	$1, 0x4($4)
8002ed54: 11 00 02 3c  	lui	$2, 0x11
8002ed58: 07 00 22 10  	beq	$1, $2, 0x8002ed78 <.text+0xed78>
8002ed5c: 00 00 00 00  	nop
8002ed60: 5a bb 00 08  	j	0x2ed68 <.text+0xed68>
8002ed64: 00 00 00 00  	nop
8002ed68: 01 00 01 24  	addiu	$1, $zero, 0x1
8002ed6c: 03 00 c1 a3  	sb	$1, 0x3($fp)
8002ed70: 62 bb 00 08  	j	0x2ed88 <.text+0xed88>
8002ed74: 00 00 00 00  	nop
8002ed78: 00 00 01 24  	addiu	$1, $zero, 0x0
8002ed7c: 03 00 c0 a3  	sb	$zero, 0x3($fp)
8002ed80: 62 bb 00 08  	j	0x2ed88 <.text+0xed88>
8002ed84: 00 00 00 00  	nop
8002ed88: 03 00 c1 93  	lbu	$1, 0x3($fp)
8002ed8c: 01 00 22 30  	andi	$2, $1, 0x1
8002ed90: 25 e8 c0 03  	move	$sp, $fp
8002ed94: 08 00 be 8f  	lw	$fp, 0x8($sp)
8002ed98: 0c 00 bf 8f  	lw	$ra, 0xc($sp)
8002ed9c: 10 00 bd 27  	addiu	$sp, $sp, 0x10
8002eda0: 08 00 e0 03  	jr	$ra
8002eda4: 00 00 00 00  	nop
8002eda8: f0 ff bd 27  	addiu	$sp, $sp, -0x10
8002edac: 0c 00 bf af  	sw	$ra, 0xc($sp)
8002edb0: 08 00 be af  	sw	$fp, 0x8($sp)
8002edb4: 25 f0 a0 03  	move	$fp, $sp
8002edb8: 04 00 c4 af  	sw	$4, 0x4($fp)
8002edbc: 00 00 81 8c  	lw	$1, 0x0($4)
8002edc0: 07 00 20 10  	beqz	$1, 0x8002ede0 <.text+0xede0>
8002edc4: 00 00 00 00  	nop
8002edc8: 74 bb 00 08  	j	0x2edd0 <.text+0xedd0>
8002edcc: 00 00 00 00  	nop
8002edd0: 01 00 01 24  	addiu	$1, $zero, 0x1
8002edd4: 03 00 c1 a3  	sb	$1, 0x3($fp)
8002edd8: 7c bb 00 08  	j	0x2edf0 <.text+0xedf0>
8002eddc: 00 00 00 00  	nop
8002ede0: 00 00 01 24  	addiu	$1, $zero, 0x0
8002ede4: 03 00 c0 a3  	sb	$zero, 0x3($fp)
8002ede8: 7c bb 00 08  	j	0x2edf0 <.text+0xedf0>
8002edec: 00 00 00 00  	nop
8002edf0: 03 00 c1 93  	lbu	$1, 0x3($fp)
8002edf4: 01 00 22 30  	andi	$2, $1, 0x1
8002edf8: 25 e8 c0 03  	move	$sp, $fp
8002edfc: 08 00 be 8f  	lw	$fp, 0x8($sp)
8002ee00: 0c 00 bf 8f  	lw	$ra, 0xc($sp)
8002ee04: 10 00 bd 27  	addiu	$sp, $sp, 0x10
8002ee08: 08 00 e0 03  	jr	$ra
8002ee0c: 00 00 00 00  	nop
8002ee10: f0 ff bd 27  	addiu	$sp, $sp, -0x10
8002ee14: 0c 00 bf af  	sw	$ra, 0xc($sp)
8002ee18: 08 00 be af  	sw	$fp, 0x8($sp)
8002ee1c: 25 f0 a0 03  	move	$fp, $sp
8002ee20: 04 00 c4 af  	sw	$4, 0x4($fp)
8002ee24: 00 00 81 8c  	lw	$1, 0x0($4)
8002ee28: 01 00 02 24  	addiu	$2, $zero, 0x1
8002ee2c: 07 00 22 14  	bne	$1, $2, 0x8002ee4c <.text+0xee4c>
8002ee30: 00 00 00 00  	nop
8002ee34: 8f bb 00 08  	j	0x2ee3c <.text+0xee3c>
8002ee38: 00 00 00 00  	nop
8002ee3c: 01 00 01 24  	addiu	$1, $zero, 0x1
8002ee40: 03 00 c1 a3  	sb	$1, 0x3($fp)
8002ee44: 97 bb 00 08  	j	0x2ee5c <.text+0xee5c>
8002ee48: 00 00 00 00  	nop
8002ee4c: 00 00 01 24  	addiu	$1, $zero, 0x0
8002ee50: 03 00 c0 a3  	sb	$zero, 0x3($fp)
8002ee54: 97 bb 00 08  	j	0x2ee5c <.text+0xee5c>
8002ee58: 00 00 00 00  	nop
8002ee5c: 03 00 c1 93  	lbu	$1, 0x3($fp)
8002ee60: 01 00 22 30  	andi	$2, $1, 0x1
8002ee64: 25 e8 c0 03  	move	$sp, $fp
8002ee68: 08 00 be 8f  	lw	$fp, 0x8($sp)
8002ee6c: 0c 00 bf 8f  	lw	$ra, 0xc($sp)
8002ee70: 10 00 bd 27  	addiu	$sp, $sp, 0x10
8002ee74: 08 00 e0 03  	jr	$ra
8002ee78: 00 00 00 00  	nop
8002ee7c: e0 ff bd 27  	addiu	$sp, $sp, -0x20
8002ee80: 1c 00 bf af  	sw	$ra, 0x1c($sp)
8002ee84: 18 00 be af  	sw	$fp, 0x18($sp)
8002ee88: 25 f0 a0 03  	move	$fp, $sp
8002ee8c: 14 00 c4 af  	sw	$4, 0x14($fp)
8002ee90: 84 bb 00 0c  	jal	0x2ee10 <.text+0xee10>
8002ee94: 00 00 00 00  	nop
8002ee98: 01 00 42 38  	xori	$2, $2, 0x1
8002ee9c: 25 e8 c0 03  	move	$sp, $fp
8002eea0: 18 00 be 8f  	lw	$fp, 0x18($sp)
8002eea4: 1c 00 bf 8f  	lw	$ra, 0x1c($sp)
8002eea8: 20 00 bd 27  	addiu	$sp, $sp, 0x20
8002eeac: 08 00 e0 03  	jr	$ra
8002eeb0: 00 00 00 00  	nop
8002eeb4: e0 ff bd 27  	addiu	$sp, $sp, -0x20
8002eeb8: 1c 00 bf af  	sw	$ra, 0x1c($sp)
8002eebc: 18 00 be af  	sw	$fp, 0x18($sp)
8002eec0: 25 f0 a0 03  	move	$fp, $sp
8002eec4: 14 00 c4 af  	sw	$4, 0x14($fp)
8002eec8: 4f bb 00 0c  	jal	0x2ed3c <.text+0xed3c>
8002eecc: 00 00 00 00  	nop
8002eed0: 01 00 42 38  	xori	$2, $2, 0x1
8002eed4: 25 e8 c0 03  	move	$sp, $fp
8002eed8: 18 00 be 8f  	lw	$fp, 0x18($sp)
8002eedc: 1c 00 bf 8f  	lw	$ra, 0x1c($sp)
8002eee0: 20 00 bd 27  	addiu	$sp, $sp, 0x20
8002eee4: 08 00 e0 03  	jr	$ra
8002eee8: 00 00 00 00  	nop
8002eeec: c8 ff bd 27  	addiu	$sp, $sp, -0x38
8002eef0: 34 00 bf af  	sw	$ra, 0x34($sp)
8002eef4: 30 00 be af  	sw	$fp, 0x30($sp)
8002eef8: 25 f0 a0 03  	move	$fp, $sp
8002eefc: 04 00 c7 af  	sw	$7, 0x4($fp)
8002ef00: 08 00 c6 af  	sw	$6, 0x8($fp)
8002ef04: 0c 00 c4 af  	sw	$4, 0xc($fp)
8002ef08: 10 00 c5 af  	sw	$5, 0x10($fp)
8002ef0c: 20 00 c6 af  	sw	$6, 0x20($fp)
8002ef10: 24 00 c7 af  	sw	$7, 0x24($fp)
8002ef14: 00 00 01 24  	addiu	$1, $zero, 0x0
8002ef18: 1f 00 c0 a3  	sb	$zero, 0x1f($fp)
8002ef1c: 01 00 01 24  	addiu	$1, $zero, 0x1
8002ef20: 1f 00 c1 a3  	sb	$1, 0x1f($fp)
8002ef24: 0c 00 c1 8f  	lw	$1, 0xc($fp)
8002ef28: 0b 00 20 14  	bnez	$1, 0x8002ef58 <.text+0xef58>
8002ef2c: 00 00 00 00  	nop
8002ef30: ce bb 00 08  	j	0x2ef38 <.text+0xef38>
8002ef34: 00 00 00 00  	nop
8002ef38: 04 00 c1 8f  	lw	$1, 0x4($fp)
8002ef3c: 08 00 c2 8f  	lw	$2, 0x8($fp)
8002ef40: 00 00 03 24  	addiu	$3, $zero, 0x0
8002ef44: 1f 00 c0 a3  	sb	$zero, 0x1f($fp)
8002ef48: 14 00 c2 af  	sw	$2, 0x14($fp)
8002ef4c: 18 00 c1 af  	sw	$1, 0x18($fp)
8002ef50: de bb 00 08  	j	0x2ef78 <.text+0xef78>
8002ef54: 00 00 00 00  	nop
8002ef58: 0c 00 c2 8f  	lw	$2, 0xc($fp)
8002ef5c: 10 00 c1 8f  	lw	$1, 0x10($fp)
8002ef60: 28 00 c2 af  	sw	$2, 0x28($fp)
8002ef64: 2c 00 c1 af  	sw	$1, 0x2c($fp)
8002ef68: 14 00 c2 af  	sw	$2, 0x14($fp)
8002ef6c: 18 00 c1 af  	sw	$1, 0x18($fp)
8002ef70: de bb 00 08  	j	0x2ef78 <.text+0xef78>
8002ef74: 00 00 00 00  	nop
8002ef78: 1f 00 c1 93  	lbu	$1, 0x1f($fp)
8002ef7c: 01 00 21 30  	andi	$1, $1, 0x1
8002ef80: 0b 00 20 14  	bnez	$1, 0x8002efb0 <.text+0xefb0>
8002ef84: 00 00 00 00  	nop
8002ef88: e4 bb 00 08  	j	0x2ef90 <.text+0xef90>
8002ef8c: 00 00 00 00  	nop
8002ef90: 14 00 c2 8f  	lw	$2, 0x14($fp)
8002ef94: 18 00 c3 8f  	lw	$3, 0x18($fp)
8002ef98: 25 e8 c0 03  	move	$sp, $fp
8002ef9c: 30 00 be 8f  	lw	$fp, 0x30($sp)
8002efa0: 34 00 bf 8f  	lw	$ra, 0x34($sp)
8002efa4: 38 00 bd 27  	addiu	$sp, $sp, 0x38
8002efa8: 08 00 e0 03  	jr	$ra
8002efac: 00 00 00 00  	nop
8002efb0: e4 bb 00 08  	j	0x2ef90 <.text+0xef90>
8002efb4: 00 00 00 00  	nop
8002efb8: e0 ff bd 27  	addiu	$sp, $sp, -0x20
8002efbc: 1c 00 bf af  	sw	$ra, 0x1c($sp)
8002efc0: 18 00 be af  	sw	$fp, 0x18($sp)
8002efc4: 25 f0 a0 03  	move	$fp, $sp
8002efc8: 10 00 c4 af  	sw	$4, 0x10($fp)
8002efcc: 10 00 c1 8f  	lw	$1, 0x10($fp)
8002efd0: 05 00 20 14  	bnez	$1, 0x8002efe8 <.text+0xefe8>
8002efd4: 00 00 00 00  	nop
8002efd8: f8 bb 00 08  	j	0x2efe0 <.text+0xefe0>
8002efdc: 00 00 00 00  	nop
8002efe0: 53 b6 00 0c  	jal	0x2d94c <.text+0xd94c>
8002efe4: 00 00 00 00  	nop
8002efe8: 10 00 c2 8f  	lw	$2, 0x10($fp)
8002efec: 14 00 c2 af  	sw	$2, 0x14($fp)
8002eff0: 25 e8 c0 03  	move	$sp, $fp
8002eff4: 18 00 be 8f  	lw	$fp, 0x18($sp)
8002eff8: 1c 00 bf 8f  	lw	$ra, 0x1c($sp)
8002effc: 20 00 bd 27  	addiu	$sp, $sp, 0x20
8002f000: 08 00 e0 03  	jr	$ra
8002f004: 00 00 00 00  	nop
8002f008: d0 ff bd 27  	addiu	$sp, $sp, -0x30
8002f00c: 2c 00 bf af  	sw	$ra, 0x2c($sp)
8002f010: 28 00 be af  	sw	$fp, 0x28($sp)
8002f014: 25 f0 a0 03  	move	$fp, $sp
8002f018: 10 00 c4 af  	sw	$4, 0x10($fp)
8002f01c: 14 00 c5 af  	sw	$5, 0x14($fp)
8002f020: 00 00 01 24  	addiu	$1, $zero, 0x0
8002f024: 22 00 c0 a3  	sb	$zero, 0x22($fp)
8002f028: 01 00 01 24  	addiu	$1, $zero, 0x1
8002f02c: 22 00 c1 a3  	sb	$1, 0x22($fp)
8002f030: 10 00 c1 8f  	lw	$1, 0x10($fp)
8002f034: 07 00 20 14  	bnez	$1, 0x8002f054 <.text+0xf054>
8002f038: 00 00 00 00  	nop
8002f03c: 11 bc 00 08  	j	0x2f044 <.text+0xf044>
8002f040: 00 00 00 00  	nop
8002f044: 11 00 01 3c  	lui	$1, 0x11
8002f048: 18 00 c1 af  	sw	$1, 0x18($fp)
8002f04c: 20 bc 00 08  	j	0x2f080 <.text+0xf080>
8002f050: 00 00 00 00  	nop
8002f054: 14 00 c1 8f  	lw	$1, 0x14($fp)
8002f058: 24 00 c1 af  	sw	$1, 0x24($fp)
8002f05c: 00 00 02 24  	addiu	$2, $zero, 0x0
8002f060: 22 00 c0 a3  	sb	$zero, 0x22($fp)
8002f064: 1c 00 c1 af  	sw	$1, 0x1c($fp)
8002f068: 1c 00 c4 8f  	lw	$4, 0x1c($fp)
8002f06c: a9 b5 00 0c  	jal	0x2d6a4 <.text+0xd6a4>
8002f070: 00 00 00 00  	nop
8002f074: 18 00 c2 af  	sw	$2, 0x18($fp)
8002f078: 20 bc 00 08  	j	0x2f080 <.text+0xf080>
8002f07c: 00 00 00 00  	nop
8002f080: 22 00 c1 93  	lbu	$1, 0x22($fp)
8002f084: 01 00 21 30  	andi	$1, $1, 0x1
8002f088: 0a 00 20 14  	bnez	$1, 0x8002f0b4 <.text+0xf0b4>
8002f08c: 00 00 00 00  	nop
8002f090: 26 bc 00 08  	j	0x2f098 <.text+0xf098>
8002f094: 00 00 00 00  	nop
8002f098: 18 00 c2 8f  	lw	$2, 0x18($fp)
8002f09c: 25 e8 c0 03  	move	$sp, $fp
8002f0a0: 28 00 be 8f  	lw	$fp, 0x28($sp)
8002f0a4: 2c 00 bf 8f  	lw	$ra, 0x2c($sp)
8002f0a8: 30 00 bd 27  	addiu	$sp, $sp, 0x30
8002f0ac: 08 00 e0 03  	jr	$ra
8002f0b0: 00 00 00 00  	nop
8002f0b4: 26 bc 00 08  	j	0x2f098 <.text+0xf098>
8002f0b8: 00 00 00 00  	nop
8002f0bc: f0 ff bd 27  	addiu	$sp, $sp, -0x10
8002f0c0: 0c 00 bf af  	sw	$ra, 0xc($sp)
8002f0c4: 08 00 be af  	sw	$fp, 0x8($sp)
8002f0c8: 25 f0 a0 03  	move	$fp, $sp
8002f0cc: 05 00 c4 a3  	sb	$4, 0x5($fp)
8002f0d0: 05 00 c1 93  	lbu	$1, 0x5($fp)
8002f0d4: 01 00 21 30  	andi	$1, $1, 0x1
8002f0d8: 07 00 20 14  	bnez	$1, 0x8002f0f8 <.text+0xf0f8>
8002f0dc: 00 00 00 00  	nop
8002f0e0: 3a bc 00 08  	j	0x2f0e8 <.text+0xf0e8>
8002f0e4: 00 00 00 00  	nop
8002f0e8: 01 00 01 24  	addiu	$1, $zero, 0x1
8002f0ec: 06 00 c1 a3  	sb	$1, 0x6($fp)
8002f0f0: 42 bc 00 08  	j	0x2f108 <.text+0xf108>
8002f0f4: 00 00 00 00  	nop
8002f0f8: 00 00 01 24  	addiu	$1, $zero, 0x0
8002f0fc: 06 00 c0 a3  	sb	$zero, 0x6($fp)
8002f100: 42 bc 00 08  	j	0x2f108 <.text+0xf108>
8002f104: 00 00 00 00  	nop
8002f108: 06 00 c1 93  	lbu	$1, 0x6($fp)
8002f10c: 01 00 22 30  	andi	$2, $1, 0x1
8002f110: 25 e8 c0 03  	move	$sp, $fp
8002f114: 08 00 be 8f  	lw	$fp, 0x8($sp)
8002f118: 0c 00 bf 8f  	lw	$ra, 0xc($sp)
8002f11c: 10 00 bd 27  	addiu	$sp, $sp, 0x10
8002f120: 08 00 e0 03  	jr	$ra
8002f124: 00 00 00 00  	nop
8002f128: e8 ff bd 27  	addiu	$sp, $sp, -0x18
8002f12c: 14 00 bf af  	sw	$ra, 0x14($sp)
8002f130: 10 00 be af  	sw	$fp, 0x10($sp)
8002f134: 25 f0 a0 03  	move	$fp, $sp
8002f138: 04 00 c4 af  	sw	$4, 0x4($fp)
8002f13c: 04 00 c1 8f  	lw	$1, 0x4($fp)
8002f140: 06 00 20 14  	bnez	$1, 0x8002f15c <.text+0xf15c>
8002f144: 00 00 00 00  	nop
8002f148: 54 bc 00 08  	j	0x2f150 <.text+0xf150>
8002f14c: 00 00 00 00  	nop
8002f150: 08 00 c0 af  	sw	$zero, 0x8($fp)
8002f154: 5c bc 00 08  	j	0x2f170 <.text+0xf170>
8002f158: 00 00 00 00  	nop
8002f15c: 04 00 c1 8f  	lw	$1, 0x4($fp)
8002f160: 0c 00 c1 af  	sw	$1, 0xc($fp)
8002f164: 08 00 c1 af  	sw	$1, 0x8($fp)
8002f168: 5c bc 00 08  	j	0x2f170 <.text+0xf170>
8002f16c: 00 00 00 00  	nop
8002f170: 08 00 c2 8f  	lw	$2, 0x8($fp)
8002f174: 25 e8 c0 03  	move	$sp, $fp
8002f178: 10 00 be 8f  	lw	$fp, 0x10($sp)
8002f17c: 14 00 bf 8f  	lw	$ra, 0x14($sp)
8002f180: 18 00 bd 27  	addiu	$sp, $sp, 0x18
8002f184: 08 00 e0 03  	jr	$ra
8002f188: 00 00 00 00  	nop
8002f18c: e8 ff bd 27  	addiu	$sp, $sp, -0x18
8002f190: 14 00 bf af  	sw	$ra, 0x14($sp)
8002f194: 10 00 be af  	sw	$fp, 0x10($sp)
8002f198: 25 f0 a0 03  	move	$fp, $sp
8002f19c: 04 00 c4 af  	sw	$4, 0x4($fp)
8002f1a0: 04 00 c1 8f  	lw	$1, 0x4($fp)
8002f1a4: 06 00 20 14  	bnez	$1, 0x8002f1c0 <.text+0xf1c0>
8002f1a8: 00 00 00 00  	nop
8002f1ac: 6d bc 00 08  	j	0x2f1b4 <.text+0xf1b4>
8002f1b0: 00 00 00 00  	nop
8002f1b4: 08 00 c0 af  	sw	$zero, 0x8($fp)
8002f1b8: 75 bc 00 08  	j	0x2f1d4 <.text+0xf1d4>
8002f1bc: 00 00 00 00  	nop
8002f1c0: 04 00 c1 8f  	lw	$1, 0x4($fp)
8002f1c4: 0c 00 c1 af  	sw	$1, 0xc($fp)
8002f1c8: 08 00 c1 af  	sw	$1, 0x8($fp)
8002f1cc: 75 bc 00 08  	j	0x2f1d4 <.text+0xf1d4>
8002f1d0: 00 00 00 00  	nop
8002f1d4: 08 00 c2 8f  	lw	$2, 0x8($fp)
8002f1d8: 25 e8 c0 03  	move	$sp, $fp
8002f1dc: 10 00 be 8f  	lw	$fp, 0x10($sp)
8002f1e0: 14 00 bf 8f  	lw	$ra, 0x14($sp)
8002f1e4: 18 00 bd 27  	addiu	$sp, $sp, 0x18
8002f1e8: 08 00 e0 03  	jr	$ra
8002f1ec: 00 00 00 00  	nop
8002f1f0: e8 ff bd 27  	addiu	$sp, $sp, -0x18
8002f1f4: 14 00 bf af  	sw	$ra, 0x14($sp)
8002f1f8: 10 00 be af  	sw	$fp, 0x10($sp)
8002f1fc: 25 f0 a0 03  	move	$fp, $sp
8002f200: 04 00 c4 af  	sw	$4, 0x4($fp)
8002f204: 04 00 c1 8f  	lw	$1, 0x4($fp)
8002f208: 06 00 20 14  	bnez	$1, 0x8002f224 <.text+0xf224>
8002f20c: 00 00 00 00  	nop
8002f210: 86 bc 00 08  	j	0x2f218 <.text+0xf218>
8002f214: 00 00 00 00  	nop
8002f218: 08 00 c0 af  	sw	$zero, 0x8($fp)
8002f21c: 8e bc 00 08  	j	0x2f238 <.text+0xf238>
8002f220: 00 00 00 00  	nop
8002f224: 04 00 c1 8f  	lw	$1, 0x4($fp)
8002f228: 0c 00 c1 af  	sw	$1, 0xc($fp)
8002f22c: 08 00 c1 af  	sw	$1, 0x8($fp)
8002f230: 8e bc 00 08  	j	0x2f238 <.text+0xf238>
8002f234: 00 00 00 00  	nop
8002f238: 08 00 c2 8f  	lw	$2, 0x8($fp)
8002f23c: 25 e8 c0 03  	move	$sp, $fp
8002f240: 10 00 be 8f  	lw	$fp, 0x10($sp)
8002f244: 14 00 bf 8f  	lw	$ra, 0x14($sp)
8002f248: 18 00 bd 27  	addiu	$sp, $sp, 0x18
8002f24c: 08 00 e0 03  	jr	$ra
8002f250: 00 00 00 00  	nop
8002f254: e8 ff bd 27  	addiu	$sp, $sp, -0x18
8002f258: 14 00 bf af  	sw	$ra, 0x14($sp)
8002f25c: 10 00 be af  	sw	$fp, 0x10($sp)
8002f260: 25 f0 a0 03  	move	$fp, $sp
8002f264: 08 00 c0 af  	sw	$zero, 0x8($fp)
8002f268: 04 00 c2 8f  	lw	$2, 0x4($fp)
8002f26c: 08 00 c3 8f  	lw	$3, 0x8($fp)
8002f270: 25 e8 c0 03  	move	$sp, $fp
8002f274: 10 00 be 8f  	lw	$fp, 0x10($sp)
8002f278: 14 00 bf 8f  	lw	$ra, 0x14($sp)
8002f27c: 18 00 bd 27  	addiu	$sp, $sp, 0x18
8002f280: 08 00 e0 03  	jr	$ra
8002f284: 00 00 00 00  	nop
8002f288: e8 ff bd 27  	addiu	$sp, $sp, -0x18
8002f28c: 14 00 bf af  	sw	$ra, 0x14($sp)
8002f290: 10 00 be af  	sw	$fp, 0x10($sp)
8002f294: 25 f0 a0 03  	move	$fp, $sp
8002f298: 04 00 c0 af  	sw	$zero, 0x4($fp)
8002f29c: 04 00 c2 8f  	lw	$2, 0x4($fp)
8002f2a0: 08 00 c3 8f  	lw	$3, 0x8($fp)
8002f2a4: 25 e8 c0 03  	move	$sp, $fp
8002f2a8: 10 00 be 8f  	lw	$fp, 0x10($sp)
8002f2ac: 14 00 bf 8f  	lw	$ra, 0x14($sp)
8002f2b0: 18 00 bd 27  	addiu	$sp, $sp, 0x18
8002f2b4: 08 00 e0 03  	jr	$ra
8002f2b8: 00 00 00 00  	nop
8002f2bc: e8 ff bd 27  	addiu	$sp, $sp, -0x18
8002f2c0: 14 00 bf af  	sw	$ra, 0x14($sp)
8002f2c4: 10 00 be af  	sw	$fp, 0x10($sp)
8002f2c8: 25 f0 a0 03  	move	$fp, $sp
8002f2cc: 08 00 c0 af  	sw	$zero, 0x8($fp)
8002f2d0: 04 00 c2 8f  	lw	$2, 0x4($fp)
8002f2d4: 08 00 c3 8f  	lw	$3, 0x8($fp)
8002f2d8: 25 e8 c0 03  	move	$sp, $fp
8002f2dc: 10 00 be 8f  	lw	$fp, 0x10($sp)
8002f2e0: 14 00 bf 8f  	lw	$ra, 0x14($sp)
8002f2e4: 18 00 bd 27  	addiu	$sp, $sp, 0x18
8002f2e8: 08 00 e0 03  	jr	$ra
8002f2ec: 00 00 00 00  	nop
8002f2f0: e8 ff bd 27  	addiu	$sp, $sp, -0x18
8002f2f4: 14 00 bf af  	sw	$ra, 0x14($sp)
8002f2f8: 10 00 be af  	sw	$fp, 0x10($sp)
8002f2fc: 25 f0 a0 03  	move	$fp, $sp
8002f300: 11 00 01 3c  	lui	$1, 0x11
8002f304: 08 00 c1 af  	sw	$1, 0x8($fp)
8002f308: 04 00 c2 8f  	lw	$2, 0x4($fp)
8002f30c: 08 00 c3 8f  	lw	$3, 0x8($fp)
8002f310: 25 e8 c0 03  	move	$sp, $fp
8002f314: 10 00 be 8f  	lw	$fp, 0x10($sp)
8002f318: 14 00 bf 8f  	lw	$ra, 0x14($sp)
8002f31c: 18 00 bd 27  	addiu	$sp, $sp, 0x18
8002f320: 08 00 e0 03  	jr	$ra
8002f324: 00 00 00 00  	nop
8002f328: c0 ff bd 27  	addiu	$sp, $sp, -0x40
8002f32c: 3c 00 bf af  	sw	$ra, 0x3c($sp)
8002f330: 38 00 be af  	sw	$fp, 0x38($sp)
8002f334: 25 f0 a0 03  	move	$fp, $sp
8002f338: 18 00 c7 af  	sw	$7, 0x18($fp)
8002f33c: 14 00 c6 af  	sw	$6, 0x14($fp)
8002f340: 25 08 a0 00  	move	$1, $5
8002f344: 18 00 c5 8f  	lw	$5, 0x18($fp)
8002f348: 1c 00 c1 af  	sw	$1, 0x1c($fp)
8002f34c: 20 00 c4 af  	sw	$4, 0x20($fp)
8002f350: 50 00 c2 8f  	lw	$2, 0x50($fp)
8002f354: 24 00 c2 af  	sw	$2, 0x24($fp)
8002f358: 28 00 c4 af  	sw	$4, 0x28($fp)
8002f35c: 2c 00 c1 af  	sw	$1, 0x2c($fp)
8002f360: 30 00 c6 af  	sw	$6, 0x30($fp)
8002f364: 34 00 c5 af  	sw	$5, 0x34($fp)
8002f368: d2 a9 00 0c  	jal	0x2a748 <.text+0xa748>
8002f36c: 00 00 00 00  	nop
8002f370: 08 00 40 14  	bnez	$2, 0x8002f394 <.text+0xf394>
8002f374: 00 00 00 00  	nop
8002f378: e0 bc 00 08  	j	0x2f380 <.text+0xf380>
8002f37c: 00 00 00 00  	nop
8002f380: 03 80 01 3c  	lui	$1, 0x8003
8002f384: d1 23 24 24  	addiu	$4, $1, 0x23d1
8002f388: a6 00 05 24  	addiu	$5, $zero, 0xa6
8002f38c: 57 b5 00 0c  	jal	0x2d55c <.text+0xd55c>
8002f390: 00 00 00 00  	nop
8002f394: 18 00 c5 8f  	lw	$5, 0x18($fp)
8002f398: 1c 00 c4 8f  	lw	$4, 0x1c($fp)
8002f39c: d2 a9 00 0c  	jal	0x2a748 <.text+0xa748>
8002f3a0: 00 00 00 00  	nop
8002f3a4: f6 ff 40 10  	beqz	$2, 0x8002f380 <.text+0xf380>
8002f3a8: 00 00 00 00  	nop
8002f3ac: ed bc 00 08  	j	0x2f3b4 <.text+0xf3b4>
8002f3b0: 00 00 00 00  	nop
8002f3b4: 24 00 c7 8f  	lw	$7, 0x24($fp)
8002f3b8: 14 00 c6 8f  	lw	$6, 0x14($fp)
8002f3bc: 1c 00 c5 8f  	lw	$5, 0x1c($fp)
8002f3c0: 20 00 c4 8f  	lw	$4, 0x20($fp)
8002f3c4: 1f aa 00 0c  	jal	0x2a87c <.text+0xa87c>
8002f3c8: 00 00 00 00  	nop
8002f3cc: ec ff 40 10  	beqz	$2, 0x8002f380 <.text+0xf380>
8002f3d0: 00 00 00 00  	nop
8002f3d4: f7 bc 00 08  	j	0x2f3dc <.text+0xf3dc>
8002f3d8: 00 00 00 00  	nop
8002f3dc: 25 e8 c0 03  	move	$sp, $fp
8002f3e0: 38 00 be 8f  	lw	$fp, 0x38($sp)
8002f3e4: 3c 00 bf 8f  	lw	$ra, 0x3c($sp)
8002f3e8: 40 00 bd 27  	addiu	$sp, $sp, 0x40
8002f3ec: 08 00 e0 03  	jr	$ra
8002f3f0: 00 00 00 00  	nop
8002f3f4: f0 ff bd 27  	addiu	$sp, $sp, -0x10
8002f3f8: 0c 00 bf af  	sw	$ra, 0xc($sp)
8002f3fc: 08 00 be af  	sw	$fp, 0x8($sp)
8002f400: 25 f0 a0 03  	move	$fp, $sp
8002f404: 04 00 c4 af  	sw	$4, 0x4($fp)
8002f408: 04 00 c2 8f  	lw	$2, 0x4($fp)
8002f40c: 25 e8 c0 03  	move	$sp, $fp
8002f410: 08 00 be 8f  	lw	$fp, 0x8($sp)
8002f414: 0c 00 bf 8f  	lw	$ra, 0xc($sp)
8002f418: 10 00 bd 27  	addiu	$sp, $sp, 0x10
8002f41c: 08 00 e0 03  	jr	$ra
8002f420: 00 00 00 00  	nop
8002f424: 60 ff bd 27  	addiu	$sp, $sp, -0xa0
8002f428: 9c 00 bf af  	sw	$ra, 0x9c($sp)
8002f42c: 98 00 be af  	sw	$fp, 0x98($sp)
8002f430: 25 f0 a0 03  	move	$fp, $sp
8002f434: 1c 00 c5 af  	sw	$5, 0x1c($fp)
8002f438: 25 10 80 00  	move	$2, $4
8002f43c: 54 00 c2 af  	sw	$2, 0x54($fp)
8002f440: 58 00 c5 af  	sw	$5, 0x58($fp)
8002f444: 5c 00 c2 af  	sw	$2, 0x5c($fp)
8002f448: 68 00 c2 af  	sw	$2, 0x68($fp)
8002f44c: 03 80 01 3c  	lui	$1, 0x8003
8002f450: 00 cd 21 24  	addiu	$1, $1, -0x3300
8002f454: 6c 00 c1 af  	sw	$1, 0x6c($fp)
8002f458: 60 00 c2 af  	sw	$2, 0x60($fp)
8002f45c: 64 00 c1 af  	sw	$1, 0x64($fp)
8002f460: 60 00 c6 8f  	lw	$6, 0x60($fp)
8002f464: 64 00 c5 8f  	lw	$5, 0x64($fp)
8002f468: 08 00 43 24  	addiu	$3, $2, 0x8
8002f46c: 84 00 c3 af  	sw	$3, 0x84($fp)
8002f470: 90 00 c3 af  	sw	$3, 0x90($fp)
8002f474: 02 80 01 3c  	lui	$1, 0x8002
8002f478: c0 76 21 24  	addiu	$1, $1, 0x76c0
8002f47c: 94 00 c1 af  	sw	$1, 0x94($fp)
8002f480: 88 00 c3 af  	sw	$3, 0x88($fp)
8002f484: 8c 00 c1 af  	sw	$1, 0x8c($fp)
8002f488: 88 00 c4 8f  	lw	$4, 0x88($fp)
8002f48c: 8c 00 c3 8f  	lw	$3, 0x8c($fp)
8002f490: 0c 00 42 24  	addiu	$2, $2, 0xc
8002f494: 70 00 c2 af  	sw	$2, 0x70($fp)
8002f498: 7c 00 c2 af  	sw	$2, 0x7c($fp)
8002f49c: 80 00 c1 af  	sw	$1, 0x80($fp)
8002f4a0: 74 00 c2 af  	sw	$2, 0x74($fp)
8002f4a4: 78 00 c1 af  	sw	$1, 0x78($fp)
8002f4a8: 74 00 c2 8f  	lw	$2, 0x74($fp)
8002f4ac: 78 00 c1 8f  	lw	$1, 0x78($fp)
8002f4b0: 3c 00 c6 af  	sw	$6, 0x3c($fp)
8002f4b4: 40 00 c5 af  	sw	$5, 0x40($fp)
8002f4b8: 44 00 c4 af  	sw	$4, 0x44($fp)
8002f4bc: 48 00 c3 af  	sw	$3, 0x48($fp)
8002f4c0: 4c 00 c2 af  	sw	$2, 0x4c($fp)
8002f4c4: 50 00 c1 af  	sw	$1, 0x50($fp)
8002f4c8: 25 08 a0 03  	move	$1, $sp
8002f4cc: 03 00 06 24  	addiu	$6, $zero, 0x3
8002f4d0: 10 00 26 ac  	sw	$6, 0x10($1)
8002f4d4: 03 80 01 3c  	lui	$1, 0x8003
8002f4d8: 78 24 25 24  	addiu	$5, $1, 0x2478
8002f4dc: 24 00 c4 27  	addiu	$4, $fp, 0x24
8002f4e0: 20 00 c4 af  	sw	$4, 0x20($fp)
8002f4e4: 3c 00 c7 27  	addiu	$7, $fp, 0x3c
8002f4e8: d0 aa 00 0c  	jal	0x2ab40 <.text+0xab40>
8002f4ec: 00 00 00 00  	nop
8002f4f0: 1c 00 c4 8f  	lw	$4, 0x1c($fp)
8002f4f4: 20 00 c5 8f  	lw	$5, 0x20($fp)
8002f4f8: 47 b1 00 0c  	jal	0x2c51c <.text+0xc51c>
8002f4fc: 00 00 00 00  	nop
8002f500: 25 e8 c0 03  	move	$sp, $fp
8002f504: 98 00 be 8f  	lw	$fp, 0x98($sp)
8002f508: 9c 00 bf 8f  	lw	$ra, 0x9c($sp)
8002f50c: a0 00 bd 27  	addiu	$sp, $sp, 0xa0
8002f510: 08 00 e0 03  	jr	$ra
8002f514: 00 00 00 00  	nop
8002f518: f0 ff bd 27  	addiu	$sp, $sp, -0x10
8002f51c: 0c 00 bf af  	sw	$ra, 0xc($sp)
8002f520: 08 00 be af  	sw	$fp, 0x8($sp)
8002f524: 25 f0 a0 03  	move	$fp, $sp
8002f528: 04 00 c4 af  	sw	$4, 0x4($fp)
8002f52c: 00 00 81 8c  	lw	$1, 0x0($4)
8002f530: 11 00 02 3c  	lui	$2, 0x11
8002f534: 07 00 22 10  	beq	$1, $2, 0x8002f554 <.text+0xf554>
8002f538: 00 00 00 00  	nop
8002f53c: 51 bd 00 08  	j	0x2f544 <.text+0xf544>
8002f540: 00 00 00 00  	nop
8002f544: 01 00 01 24  	addiu	$1, $zero, 0x1
8002f548: 03 00 c1 a3  	sb	$1, 0x3($fp)
8002f54c: 59 bd 00 08  	j	0x2f564 <.text+0xf564>
8002f550: 00 00 00 00  	nop
8002f554: 00 00 01 24  	addiu	$1, $zero, 0x0
8002f558: 03 00 c0 a3  	sb	$zero, 0x3($fp)
8002f55c: 59 bd 00 08  	j	0x2f564 <.text+0xf564>
8002f560: 00 00 00 00  	nop
8002f564: 03 00 c1 93  	lbu	$1, 0x3($fp)
8002f568: 01 00 22 30  	andi	$2, $1, 0x1
8002f56c: 25 e8 c0 03  	move	$sp, $fp
8002f570: 08 00 be 8f  	lw	$fp, 0x8($sp)
8002f574: 0c 00 bf 8f  	lw	$ra, 0xc($sp)
8002f578: 10 00 bd 27  	addiu	$sp, $sp, 0x10
8002f57c: 08 00 e0 03  	jr	$ra
8002f580: 00 00 00 00  	nop
8002f584: f0 ff bd 27  	addiu	$sp, $sp, -0x10
8002f588: 0c 00 bf af  	sw	$ra, 0xc($sp)
8002f58c: 08 00 be af  	sw	$fp, 0x8($sp)
8002f590: 25 f0 a0 03  	move	$fp, $sp
8002f594: 00 00 c4 af  	sw	$4, 0x0($fp)
8002f598: 00 00 c1 8f  	lw	$1, 0x0($fp)
8002f59c: 07 00 20 14  	bnez	$1, 0x8002f5bc <.text+0xf5bc>
8002f5a0: 00 00 00 00  	nop
8002f5a4: 6b bd 00 08  	j	0x2f5ac <.text+0xf5ac>
8002f5a8: 00 00 00 00  	nop
8002f5ac: 01 00 01 24  	addiu	$1, $zero, 0x1
8002f5b0: 06 00 c1 a3  	sb	$1, 0x6($fp)
8002f5b4: 73 bd 00 08  	j	0x2f5cc <.text+0xf5cc>
8002f5b8: 00 00 00 00  	nop
8002f5bc: 00 00 01 24  	addiu	$1, $zero, 0x0
8002f5c0: 06 00 c0 a3  	sb	$zero, 0x6($fp)
8002f5c4: 73 bd 00 08  	j	0x2f5cc <.text+0xf5cc>
8002f5c8: 00 00 00 00  	nop
8002f5cc: 00 00 c1 8f  	lw	$1, 0x0($fp)
8002f5d0: 0b 00 20 14  	bnez	$1, 0x8002f600 <.text+0xf600>
8002f5d4: 00 00 00 00  	nop
8002f5d8: 78 bd 00 08  	j	0x2f5e0 <.text+0xf5e0>
8002f5dc: 00 00 00 00  	nop
8002f5e0: 06 00 c1 93  	lbu	$1, 0x6($fp)
8002f5e4: 01 00 22 30  	andi	$2, $1, 0x1
8002f5e8: 25 e8 c0 03  	move	$sp, $fp
8002f5ec: 08 00 be 8f  	lw	$fp, 0x8($sp)
8002f5f0: 0c 00 bf 8f  	lw	$ra, 0xc($sp)
8002f5f4: 10 00 bd 27  	addiu	$sp, $sp, 0x10
8002f5f8: 08 00 e0 03  	jr	$ra
8002f5fc: 00 00 00 00  	nop
8002f600: 78 bd 00 08  	j	0x2f5e0 <.text+0xf5e0>
8002f604: 00 00 00 00  	nop
8002f608: 78 ff bd 27  	addiu	$sp, $sp, -0x88
8002f60c: 84 00 bf af  	sw	$ra, 0x84($sp)
8002f610: 80 00 be af  	sw	$fp, 0x80($sp)
8002f614: 25 f0 a0 03  	move	$fp, $sp
8002f618: 98 00 c1 8f  	lw	$1, 0x98($fp)
8002f61c: 1c 00 c1 af  	sw	$1, 0x1c($fp)
8002f620: 20 00 c4 af  	sw	$4, 0x20($fp)
8002f624: 24 00 c5 af  	sw	$5, 0x24($fp)
8002f628: 28 00 c6 af  	sw	$6, 0x28($fp)
8002f62c: 2c 00 c7 af  	sw	$7, 0x2c($fp)
8002f630: 20 00 c2 27  	addiu	$2, $fp, 0x20
8002f634: 58 00 c2 af  	sw	$2, 0x58($fp)
8002f638: 64 00 c2 af  	sw	$2, 0x64($fp)
8002f63c: 03 80 01 3c  	lui	$1, 0x8003
8002f640: 00 cd 21 24  	addiu	$1, $1, -0x3300
8002f644: 68 00 c1 af  	sw	$1, 0x68($fp)
8002f648: 5c 00 c2 af  	sw	$2, 0x5c($fp)
8002f64c: 60 00 c1 af  	sw	$1, 0x60($fp)
8002f650: 5c 00 c4 8f  	lw	$4, 0x5c($fp)
8002f654: 60 00 c3 8f  	lw	$3, 0x60($fp)
8002f658: 28 00 c2 27  	addiu	$2, $fp, 0x28
8002f65c: 6c 00 c2 af  	sw	$2, 0x6c($fp)
8002f660: 78 00 c2 af  	sw	$2, 0x78($fp)
8002f664: 03 80 01 3c  	lui	$1, 0x8003
8002f668: b8 cc 21 24  	addiu	$1, $1, -0x3348
8002f66c: 7c 00 c1 af  	sw	$1, 0x7c($fp)
8002f670: 70 00 c2 af  	sw	$2, 0x70($fp)
8002f674: 74 00 c1 af  	sw	$1, 0x74($fp)
8002f678: 70 00 c2 8f  	lw	$2, 0x70($fp)
8002f67c: 74 00 c1 8f  	lw	$1, 0x74($fp)
8002f680: 48 00 c4 af  	sw	$4, 0x48($fp)
8002f684: 4c 00 c3 af  	sw	$3, 0x4c($fp)
8002f688: 50 00 c2 af  	sw	$2, 0x50($fp)
8002f68c: 54 00 c1 af  	sw	$1, 0x54($fp)
8002f690: 25 08 a0 03  	move	$1, $sp
8002f694: 02 00 06 24  	addiu	$6, $zero, 0x2
8002f698: 10 00 26 ac  	sw	$6, 0x10($1)
8002f69c: 03 80 01 3c  	lui	$1, 0x8003
8002f6a0: 94 24 25 24  	addiu	$5, $1, 0x2494
8002f6a4: 30 00 c4 27  	addiu	$4, $fp, 0x30
8002f6a8: 18 00 c4 af  	sw	$4, 0x18($fp)
8002f6ac: 48 00 c7 27  	addiu	$7, $fp, 0x48
8002f6b0: d0 aa 00 0c  	jal	0x2ab40 <.text+0xab40>
8002f6b4: 00 00 00 00  	nop
8002f6b8: 18 00 c4 8f  	lw	$4, 0x18($fp)
8002f6bc: 1c 00 c5 8f  	lw	$5, 0x1c($fp)
8002f6c0: f6 b4 00 0c  	jal	0x2d3d8 <.text+0xd3d8>
8002f6c4: 00 00 00 00  	nop
8002f6c8: f0 ff bd 27  	addiu	$sp, $sp, -0x10
8002f6cc: 0c 00 bf af  	sw	$ra, 0xc($sp)
8002f6d0: 08 00 be af  	sw	$fp, 0x8($sp)
8002f6d4: 25 f0 a0 03  	move	$fp, $sp
8002f6d8: 04 00 c4 a3  	sb	$4, 0x4($fp)
8002f6dc: 04 00 c1 93  	lbu	$1, 0x4($fp)
8002f6e0: 01 00 21 30  	andi	$1, $1, 0x1
8002f6e4: 07 00 20 14  	bnez	$1, 0x8002f704 <.text+0xf704>
8002f6e8: 00 00 00 00  	nop
8002f6ec: bd bd 00 08  	j	0x2f6f4 <.text+0xf6f4>
8002f6f0: 00 00 00 00  	nop
8002f6f4: 00 00 01 24  	addiu	$1, $zero, 0x0
8002f6f8: 05 00 c0 a3  	sb	$zero, 0x5($fp)
8002f6fc: c5 bd 00 08  	j	0x2f714 <.text+0xf714>
8002f700: 00 00 00 00  	nop
8002f704: 01 00 01 24  	addiu	$1, $zero, 0x1
8002f708: 05 00 c1 a3  	sb	$1, 0x5($fp)
8002f70c: c5 bd 00 08  	j	0x2f714 <.text+0xf714>
8002f710: 00 00 00 00  	nop
8002f714: 05 00 c1 93  	lbu	$1, 0x5($fp)
8002f718: 01 00 22 30  	andi	$2, $1, 0x1
8002f71c: 25 e8 c0 03  	move	$sp, $fp
8002f720: 08 00 be 8f  	lw	$fp, 0x8($sp)
8002f724: 0c 00 bf 8f  	lw	$ra, 0xc($sp)
8002f728: 10 00 bd 27  	addiu	$sp, $sp, 0x10
8002f72c: 08 00 e0 03  	jr	$ra
8002f730: 00 00 00 00  	nop
8002f734: d8 ff bd 27  	addiu	$sp, $sp, -0x28
8002f738: 24 00 bf af  	sw	$ra, 0x24($sp)
8002f73c: 20 00 be af  	sw	$fp, 0x20($sp)
8002f740: 25 f0 a0 03  	move	$fp, $sp
8002f744: 04 00 c4 af  	sw	$4, 0x4($fp)
8002f748: 08 00 c5 af  	sw	$5, 0x8($fp)
8002f74c: 04 00 c1 8f  	lw	$1, 0x4($fp)
8002f750: 11 00 02 3c  	lui	$2, 0x11
8002f754: 0b 00 22 10  	beq	$1, $2, 0x8002f784 <.text+0xf784>
8002f758: 00 00 00 00  	nop
8002f75c: d9 bd 00 08  	j	0x2f764 <.text+0xf764>
8002f760: 00 00 00 00  	nop
8002f764: 04 00 c2 8f  	lw	$2, 0x4($fp)
8002f768: 08 00 c1 8f  	lw	$1, 0x8($fp)
8002f76c: 18 00 c2 af  	sw	$2, 0x18($fp)
8002f770: 1c 00 c1 af  	sw	$1, 0x1c($fp)
8002f774: 0c 00 c2 af  	sw	$2, 0xc($fp)
8002f778: 10 00 c1 af  	sw	$1, 0x10($fp)
8002f77c: e5 bd 00 08  	j	0x2f794 <.text+0xf794>
8002f780: 00 00 00 00  	nop
8002f784: 11 00 01 3c  	lui	$1, 0x11
8002f788: 0c 00 c1 af  	sw	$1, 0xc($fp)
8002f78c: e5 bd 00 08  	j	0x2f794 <.text+0xf794>
8002f790: 00 00 00 00  	nop
8002f794: 0c 00 c2 8f  	lw	$2, 0xc($fp)
8002f798: 10 00 c3 8f  	lw	$3, 0x10($fp)
8002f79c: 25 e8 c0 03  	move	$sp, $fp
8002f7a0: 20 00 be 8f  	lw	$fp, 0x20($sp)
8002f7a4: 24 00 bf 8f  	lw	$ra, 0x24($sp)
8002f7a8: 28 00 bd 27  	addiu	$sp, $sp, 0x28
8002f7ac: 08 00 e0 03  	jr	$ra
8002f7b0: 00 00 00 00  	nop
8002f7b4: e8 ff bd 27  	addiu	$sp, $sp, -0x18
8002f7b8: 14 00 bf af  	sw	$ra, 0x14($sp)
8002f7bc: 10 00 be af  	sw	$fp, 0x10($sp)
8002f7c0: 25 f0 a0 03  	move	$fp, $sp
8002f7c4: 11 00 01 3c  	lui	$1, 0x11
8002f7c8: 04 00 c1 af  	sw	$1, 0x4($fp)
8002f7cc: 04 00 c2 8f  	lw	$2, 0x4($fp)
8002f7d0: 08 00 c3 8f  	lw	$3, 0x8($fp)
8002f7d4: 25 e8 c0 03  	move	$sp, $fp
8002f7d8: 10 00 be 8f  	lw	$fp, 0x10($sp)
8002f7dc: 14 00 bf 8f  	lw	$ra, 0x14($sp)
8002f7e0: 18 00 bd 27  	addiu	$sp, $sp, 0x18
8002f7e4: 08 00 e0 03  	jr	$ra
8002f7e8: 00 00 00 00  	nop
8002f7ec: f0 ff bd 27  	addiu	$sp, $sp, -0x10
8002f7f0: 0c 00 bf af  	sw	$ra, 0xc($sp)
8002f7f4: 08 00 be af  	sw	$fp, 0x8($sp)
8002f7f8: 25 f0 a0 03  	move	$fp, $sp
8002f7fc: 01 00 01 24  	addiu	$1, $zero, 0x1
8002f800: 05 00 c1 a3  	sb	$1, 0x5($fp)
8002f804: 05 00 c1 93  	lbu	$1, 0x5($fp)
8002f808: 01 00 22 30  	andi	$2, $1, 0x1
8002f80c: 25 e8 c0 03  	move	$sp, $fp
8002f810: 08 00 be 8f  	lw	$fp, 0x8($sp)
8002f814: 0c 00 bf 8f  	lw	$ra, 0xc($sp)
8002f818: 10 00 bd 27  	addiu	$sp, $sp, 0x10
8002f81c: 08 00 e0 03  	jr	$ra
8002f820: 00 00 00 00  	nop
8002f824: e0 ff bd 27  	addiu	$sp, $sp, -0x20
8002f828: 1c 00 bf af  	sw	$ra, 0x1c($sp)
8002f82c: 18 00 be af  	sw	$fp, 0x18($sp)
8002f830: 25 f0 a0 03  	move	$fp, $sp
8002f834: 10 00 c4 af  	sw	$4, 0x10($fp)
8002f838: 14 00 c5 af  	sw	$5, 0x14($fp)
8002f83c: 00 00 06 24  	addiu	$6, $zero, 0x0
8002f840: ec 98 00 0c  	jal	0x263b0 <.text+0x63b0>
8002f844: 00 00 00 00  	nop
8002f848: 25 e8 c0 03  	move	$sp, $fp
8002f84c: 18 00 be 8f  	lw	$fp, 0x18($sp)
8002f850: 1c 00 bf 8f  	lw	$ra, 0x1c($sp)
8002f854: 20 00 bd 27  	addiu	$sp, $sp, 0x20
8002f858: 08 00 e0 03  	jr	$ra
8002f85c: 00 00 00 00  	nop
8002f860: d8 ff bd 27  	addiu	$sp, $sp, -0x28
8002f864: 24 00 bf af  	sw	$ra, 0x24($sp)
8002f868: 20 00 be af  	sw	$fp, 0x20($sp)
8002f86c: 25 f0 a0 03  	move	$fp, $sp
8002f870: 14 00 c4 af  	sw	$4, 0x14($fp)
8002f874: 18 00 c5 af  	sw	$5, 0x18($fp)
8002f878: 1c 00 c6 af  	sw	$6, 0x1c($fp)
8002f87c: 21 08 a6 00  	addu	$1, $5, $6
8002f880: 10 00 c1 af  	sw	$1, 0x10($fp)
8002f884: 2b 08 25 00  	sltu	$1, $1, $5
8002f888: 0a 00 20 14  	bnez	$1, 0x8002f8b4 <.text+0xf8b4>
8002f88c: 00 00 00 00  	nop
8002f890: 26 be 00 08  	j	0x2f898 <.text+0xf898>
8002f894: 00 00 00 00  	nop
8002f898: 10 00 c2 8f  	lw	$2, 0x10($fp)
8002f89c: 25 e8 c0 03  	move	$sp, $fp
8002f8a0: 20 00 be 8f  	lw	$fp, 0x20($sp)
8002f8a4: 24 00 bf 8f  	lw	$ra, 0x24($sp)
8002f8a8: 28 00 bd 27  	addiu	$sp, $sp, 0x28
8002f8ac: 08 00 e0 03  	jr	$ra
8002f8b0: 00 00 00 00  	nop
8002f8b4: 03 80 01 3c  	lui	$1, 0x8003
8002f8b8: 24 25 24 24  	addiu	$4, $1, 0x2524
8002f8bc: be b2 00 0c  	jal	0x2caf8 <.text+0xcaf8>
8002f8c0: 00 00 00 00  	nop
8002f8c4: d8 ff bd 27  	addiu	$sp, $sp, -0x28
8002f8c8: 24 00 bf af  	sw	$ra, 0x24($sp)
8002f8cc: 20 00 be af  	sw	$fp, 0x20($sp)
8002f8d0: 25 f0 a0 03  	move	$fp, $sp
8002f8d4: 14 00 c4 af  	sw	$4, 0x14($fp)
8002f8d8: 18 00 c5 af  	sw	$5, 0x18($fp)
8002f8dc: 1c 00 c6 af  	sw	$6, 0x1c($fp)
8002f8e0: 40 be 00 0c  	jal	0x2f900 <.text+0xf900>
8002f8e4: 00 00 00 00  	nop
8002f8e8: 25 e8 c0 03  	move	$sp, $fp
8002f8ec: 20 00 be 8f  	lw	$fp, 0x20($sp)
8002f8f0: 24 00 bf 8f  	lw	$ra, 0x24($sp)
8002f8f4: 28 00 bd 27  	addiu	$sp, $sp, 0x28
8002f8f8: 08 00 e0 03  	jr	$ra
8002f8fc: 00 00 00 00  	nop
8002f900: 18 ff bd 27  	addiu	$sp, $sp, -0xe8
8002f904: e4 00 bf af  	sw	$ra, 0xe4($sp)
8002f908: e0 00 be af  	sw	$fp, 0xe0($sp)
8002f90c: 25 f0 a0 03  	move	$fp, $sp
8002f910: 30 00 c4 af  	sw	$4, 0x30($fp)
8002f914: 38 00 c4 af  	sw	$4, 0x38($fp)
8002f918: 3c 00 c5 af  	sw	$5, 0x3c($fp)
8002f91c: 40 00 c6 af  	sw	$6, 0x40($fp)
8002f920: 25 08 a0 00  	move	$1, $5
8002f924: 34 00 c1 af  	sw	$1, 0x34($fp)
8002f928: 44 00 c4 af  	sw	$4, 0x44($fp)
8002f92c: 48 00 c6 af  	sw	$6, 0x48($fp)
8002f930: 4e 00 c5 a3  	sb	$5, 0x4e($fp)
8002f934: 48 00 c2 8f  	lw	$2, 0x48($fp)
8002f938: 0f 00 01 24  	addiu	$1, $zero, 0xf
8002f93c: 2b 08 22 00  	sltu	$1, $1, $2
8002f940: 4f 00 c1 a3  	sb	$1, 0x4f($fp)
8002f944: 4f 00 c1 93  	lbu	$1, 0x4f($fp)
8002f948: 01 00 21 30  	andi	$1, $1, 0x1
8002f94c: a7 00 20 10  	beqz	$1, 0x8002fbec <.text+0xfbec>
8002f950: 00 00 00 00  	nop
8002f954: 57 be 00 08  	j	0x2f95c <.text+0xf95c>
8002f958: 00 00 00 00  	nop
8002f95c: 34 00 c1 8f  	lw	$1, 0x34($fp)
8002f960: 44 00 c2 8f  	lw	$2, 0x44($fp)
8002f964: 58 00 c2 af  	sw	$2, 0x58($fp)
8002f968: 5c 00 c0 af  	sw	$zero, 0x5c($fp)
8002f96c: 60 00 c2 af  	sw	$2, 0x60($fp)
8002f970: 00 00 03 24  	addiu	$3, $zero, 0x0
8002f974: 23 10 02 00  	negu	$2, $2
8002f978: 03 00 42 30  	andi	$2, $2, 0x3
8002f97c: 28 00 c2 af  	sw	$2, 0x28($fp)
8002f980: 50 00 c2 af  	sw	$2, 0x50($fp)
8002f984: 44 00 c3 8f  	lw	$3, 0x44($fp)
8002f988: 74 00 c3 af  	sw	$3, 0x74($fp)
8002f98c: 7b 00 c1 a3  	sb	$1, 0x7b($fp)
8002f990: 7c 00 c2 af  	sw	$2, 0x7c($fp)
8002f994: 74 00 c1 8f  	lw	$1, 0x74($fp)
8002f998: 8c 00 c1 af  	sw	$1, 0x8c($fp)
8002f99c: 90 00 c2 af  	sw	$2, 0x90($fp)
8002f9a0: 21 08 22 00  	addu	$1, $1, $2
8002f9a4: 2c 00 c1 af  	sw	$1, 0x2c($fp)
8002f9a8: 80 00 c1 af  	sw	$1, 0x80($fp)
8002f9ac: 6d be 00 08  	j	0x2f9b4 <.text+0xf9b4>
8002f9b0: 00 00 00 00  	nop
8002f9b4: 2c 00 c2 8f  	lw	$2, 0x2c($fp)
8002f9b8: 74 00 c1 8f  	lw	$1, 0x74($fp)
8002f9bc: 2b 08 22 00  	sltu	$1, $1, $2
8002f9c0: 0e 00 20 10  	beqz	$1, 0x8002f9fc <.text+0xf9fc>
8002f9c4: 00 00 00 00  	nop
8002f9c8: 74 be 00 08  	j	0x2f9d0 <.text+0xf9d0>
8002f9cc: 00 00 00 00  	nop
8002f9d0: 34 00 c1 8f  	lw	$1, 0x34($fp)
8002f9d4: 74 00 c2 8f  	lw	$2, 0x74($fp)
8002f9d8: 00 00 41 a0  	sb	$1, 0x0($2)
8002f9dc: 74 00 c1 8f  	lw	$1, 0x74($fp)
8002f9e0: 84 00 c1 af  	sw	$1, 0x84($fp)
8002f9e4: 01 00 02 24  	addiu	$2, $zero, 0x1
8002f9e8: 88 00 c2 af  	sw	$2, 0x88($fp)
8002f9ec: 01 00 21 24  	addiu	$1, $1, 0x1
8002f9f0: 74 00 c1 af  	sw	$1, 0x74($fp)
8002f9f4: 6d be 00 08  	j	0x2f9b4 <.text+0xf9b4>
8002f9f8: 00 00 00 00  	nop
8002f9fc: 28 00 c2 8f  	lw	$2, 0x28($fp)
8002fa00: 44 00 c1 8f  	lw	$1, 0x44($fp)
8002fa04: 6c 00 c1 af  	sw	$1, 0x6c($fp)
8002fa08: 70 00 c2 af  	sw	$2, 0x70($fp)
8002fa0c: 21 08 22 00  	addu	$1, $1, $2
8002fa10: 44 00 c1 af  	sw	$1, 0x44($fp)
8002fa14: 48 00 c1 8f  	lw	$1, 0x48($fp)
8002fa18: 23 18 22 00  	subu	$3, $1, $2
8002fa1c: 24 00 c3 af  	sw	$3, 0x24($fp)
8002fa20: 2b 08 22 00  	sltu	$1, $1, $2
8002fa24: 6b 00 20 14  	bnez	$1, 0x8002fbd4 <.text+0xfbd4>
8002fa28: 00 00 00 00  	nop
8002fa2c: 8d be 00 08  	j	0x2fa34 <.text+0xfa34>
8002fa30: 00 00 00 00  	nop
8002fa34: 34 00 c1 8f  	lw	$1, 0x34($fp)
8002fa38: 24 00 c2 8f  	lw	$2, 0x24($fp)
8002fa3c: 48 00 c2 af  	sw	$2, 0x48($fp)
8002fa40: 48 00 c2 8f  	lw	$2, 0x48($fp)
8002fa44: fc ff 03 24  	addiu	$3, $zero, -0x4
8002fa48: 24 10 43 00  	and	$2, $2, $3
8002fa4c: 1c 00 c2 af  	sw	$2, 0x1c($fp)
8002fa50: 54 00 c2 af  	sw	$2, 0x54($fp)
8002fa54: 44 00 c3 8f  	lw	$3, 0x44($fp)
8002fa58: 20 00 c3 af  	sw	$3, 0x20($fp)
8002fa5c: c0 00 c3 af  	sw	$3, 0xc0($fp)
8002fa60: c7 00 c1 a3  	sb	$1, 0xc7($fp)
8002fa64: c8 00 c2 af  	sw	$2, 0xc8($fp)
8002fa68: ff 00 21 30  	andi	$1, $1, 0xff
8002fa6c: b4 00 c1 af  	sw	$1, 0xb4($fp)
8002fa70: 08 00 01 24  	addiu	$1, $zero, 0x8
8002fa74: b8 00 c1 af  	sw	$1, 0xb8($fp)
8002fa78: a0 be 00 08  	j	0x2fa80 <.text+0xfa80>
8002fa7c: 00 00 00 00  	nop
8002fa80: b8 00 c1 8f  	lw	$1, 0xb8($fp)
8002fa84: 18 00 c1 af  	sw	$1, 0x18($fp)
8002fa88: 00 00 01 24  	addiu	$1, $zero, 0x0
8002fa8c: 09 00 00 14  	bnez	$zero, 0x8002fab4 <.text+0xfab4>
8002fa90: 00 00 00 00  	nop
8002fa94: a7 be 00 08  	j	0x2fa9c <.text+0xfa9c>
8002fa98: 00 00 00 00  	nop
8002fa9c: 18 00 c1 8f  	lw	$1, 0x18($fp)
8002faa0: 20 00 21 2c  	sltiu	$1, $1, 0x20
8002faa4: 0e 00 20 14  	bnez	$1, 0x8002fae0 <.text+0xfae0>
8002faa8: 00 00 00 00  	nop
8002faac: ae be 00 08  	j	0x2fab8 <.text+0xfab8>
8002fab0: 00 00 00 00  	nop
8002fab4: 0d 00 00 00  	break
8002fab8: 20 00 c1 8f  	lw	$1, 0x20($fp)
8002fabc: 1c 00 c2 8f  	lw	$2, 0x1c($fp)
8002fac0: bc 00 c1 af  	sw	$1, 0xbc($fp)
8002fac4: d8 00 c1 af  	sw	$1, 0xd8($fp)
8002fac8: dc 00 c2 af  	sw	$2, 0xdc($fp)
8002facc: 21 08 22 00  	addu	$1, $1, $2
8002fad0: 14 00 c1 af  	sw	$1, 0x14($fp)
8002fad4: cc 00 c1 af  	sw	$1, 0xcc($fp)
8002fad8: c1 be 00 08  	j	0x2fb04 <.text+0xfb04>
8002fadc: 00 00 00 00  	nop
8002fae0: b4 00 c1 8f  	lw	$1, 0xb4($fp)
8002fae4: 0c 00 c1 af  	sw	$1, 0xc($fp)
8002fae8: b8 00 c1 8f  	lw	$1, 0xb8($fp)
8002faec: 10 00 c1 af  	sw	$1, 0x10($fp)
8002faf0: 20 00 21 2c  	sltiu	$1, $1, 0x20
8002faf4: 15 00 20 14  	bnez	$1, 0x8002fb4c <.text+0xfb4c>
8002faf8: 00 00 00 00  	nop
8002fafc: e1 be 00 08  	j	0x2fb84 <.text+0xfb84>
8002fb00: 00 00 00 00  	nop
8002fb04: 14 00 c2 8f  	lw	$2, 0x14($fp)
8002fb08: bc 00 c1 8f  	lw	$1, 0xbc($fp)
8002fb0c: 2b 08 22 00  	sltu	$1, $1, $2
8002fb10: 22 00 20 10  	beqz	$1, 0x8002fb9c <.text+0xfb9c>
8002fb14: 00 00 00 00  	nop
8002fb18: c8 be 00 08  	j	0x2fb20 <.text+0xfb20>
8002fb1c: 00 00 00 00  	nop
8002fb20: b4 00 c1 8f  	lw	$1, 0xb4($fp)
8002fb24: bc 00 c2 8f  	lw	$2, 0xbc($fp)
8002fb28: 00 00 41 ac  	sw	$1, 0x0($2)
8002fb2c: bc 00 c1 8f  	lw	$1, 0xbc($fp)
8002fb30: d0 00 c1 af  	sw	$1, 0xd0($fp)
8002fb34: 01 00 02 24  	addiu	$2, $zero, 0x1
8002fb38: d4 00 c2 af  	sw	$2, 0xd4($fp)
8002fb3c: 04 00 21 24  	addiu	$1, $1, 0x4
8002fb40: bc 00 c1 af  	sw	$1, 0xbc($fp)
8002fb44: c1 be 00 08  	j	0x2fb04 <.text+0xfb04>
8002fb48: 00 00 00 00  	nop
8002fb4c: 0c 00 c1 8f  	lw	$1, 0xc($fp)
8002fb50: 10 00 c2 8f  	lw	$2, 0x10($fp)
8002fb54: 04 10 41 00  	sllv	$2, $1, $2
8002fb58: b4 00 c1 8f  	lw	$1, 0xb4($fp)
8002fb5c: 25 08 22 00  	or	$1, $1, $2
8002fb60: b4 00 c1 af  	sw	$1, 0xb4($fp)
8002fb64: b8 00 c2 8f  	lw	$2, 0xb8($fp)
8002fb68: 21 08 42 00  	addu	$1, $2, $2
8002fb6c: 08 00 c1 af  	sw	$1, 0x8($fp)
8002fb70: 2b 08 22 00  	sltu	$1, $1, $2
8002fb74: 08 00 20 14  	bnez	$1, 0x8002fb98 <.text+0xfb98>
8002fb78: 00 00 00 00  	nop
8002fb7c: e2 be 00 08  	j	0x2fb88 <.text+0xfb88>
8002fb80: 00 00 00 00  	nop
8002fb84: 0d 00 00 00  	break
8002fb88: 08 00 c1 8f  	lw	$1, 0x8($fp)
8002fb8c: b8 00 c1 af  	sw	$1, 0xb8($fp)
8002fb90: a0 be 00 08  	j	0x2fa80 <.text+0xfa80>
8002fb94: 00 00 00 00  	nop
8002fb98: 0d 00 00 00  	break
8002fb9c: 1c 00 c2 8f  	lw	$2, 0x1c($fp)
8002fba0: 44 00 c1 8f  	lw	$1, 0x44($fp)
8002fba4: 64 00 c1 af  	sw	$1, 0x64($fp)
8002fba8: 68 00 c2 af  	sw	$2, 0x68($fp)
8002fbac: 21 08 22 00  	addu	$1, $1, $2
8002fbb0: 44 00 c1 af  	sw	$1, 0x44($fp)
8002fbb4: 48 00 c1 8f  	lw	$1, 0x48($fp)
8002fbb8: 23 18 22 00  	subu	$3, $1, $2
8002fbbc: 04 00 c3 af  	sw	$3, 0x4($fp)
8002fbc0: 2b 08 22 00  	sltu	$1, $1, $2
8002fbc4: 08 00 20 14  	bnez	$1, 0x8002fbe8 <.text+0xfbe8>
8002fbc8: 00 00 00 00  	nop
8002fbcc: f6 be 00 08  	j	0x2fbd8 <.text+0xfbd8>
8002fbd0: 00 00 00 00  	nop
8002fbd4: 0d 00 00 00  	break
8002fbd8: 04 00 c1 8f  	lw	$1, 0x4($fp)
8002fbdc: 48 00 c1 af  	sw	$1, 0x48($fp)
8002fbe0: fb be 00 08  	j	0x2fbec <.text+0xfbec>
8002fbe4: 00 00 00 00  	nop
8002fbe8: 0d 00 00 00  	break
8002fbec: 34 00 c1 8f  	lw	$1, 0x34($fp)
8002fbf0: 44 00 c3 8f  	lw	$3, 0x44($fp)
8002fbf4: 48 00 c2 8f  	lw	$2, 0x48($fp)
8002fbf8: 94 00 c3 af  	sw	$3, 0x94($fp)
8002fbfc: 9b 00 c1 a3  	sb	$1, 0x9b($fp)
8002fc00: 9c 00 c2 af  	sw	$2, 0x9c($fp)
8002fc04: 94 00 c1 8f  	lw	$1, 0x94($fp)
8002fc08: ac 00 c1 af  	sw	$1, 0xac($fp)
8002fc0c: b0 00 c2 af  	sw	$2, 0xb0($fp)
8002fc10: 21 08 22 00  	addu	$1, $1, $2
8002fc14: 00 00 c1 af  	sw	$1, 0x0($fp)
8002fc18: a0 00 c1 af  	sw	$1, 0xa0($fp)
8002fc1c: 09 bf 00 08  	j	0x2fc24 <.text+0xfc24>
8002fc20: 00 00 00 00  	nop
8002fc24: 00 00 c2 8f  	lw	$2, 0x0($fp)
8002fc28: 94 00 c1 8f  	lw	$1, 0x94($fp)
8002fc2c: 2b 08 22 00  	sltu	$1, $1, $2
8002fc30: 0e 00 20 10  	beqz	$1, 0x8002fc6c <.text+0xfc6c>
8002fc34: 00 00 00 00  	nop
8002fc38: 10 bf 00 08  	j	0x2fc40 <.text+0xfc40>
8002fc3c: 00 00 00 00  	nop
8002fc40: 34 00 c1 8f  	lw	$1, 0x34($fp)
8002fc44: 94 00 c2 8f  	lw	$2, 0x94($fp)
8002fc48: 00 00 41 a0  	sb	$1, 0x0($2)
8002fc4c: 94 00 c1 8f  	lw	$1, 0x94($fp)
8002fc50: a4 00 c1 af  	sw	$1, 0xa4($fp)
8002fc54: 01 00 02 24  	addiu	$2, $zero, 0x1
8002fc58: a8 00 c2 af  	sw	$2, 0xa8($fp)
8002fc5c: 01 00 21 24  	addiu	$1, $1, 0x1
8002fc60: 94 00 c1 af  	sw	$1, 0x94($fp)
8002fc64: 09 bf 00 08  	j	0x2fc24 <.text+0xfc24>
8002fc68: 00 00 00 00  	nop
8002fc6c: 30 00 c2 8f  	lw	$2, 0x30($fp)
8002fc70: 25 e8 c0 03  	move	$sp, $fp
8002fc74: e0 00 be 8f  	lw	$fp, 0xe0($sp)
8002fc78: e4 00 bf 8f  	lw	$ra, 0xe4($sp)
8002fc7c: e8 00 bd 27  	addiu	$sp, $sp, 0xe8
8002fc80: 08 00 e0 03  	jr	$ra
8002fc84: 00 00 00 00  	nop
8002fc88: 01 00 17 04  	<unknown>
8002fc8c: 01 00 17 04  	<unknown>
8002fc90: 01 00 17 04  	<unknown>
8002fc94: 01 00 17 04  	<unknown>
8002fc98: 01 00 17 04  	<unknown>
8002fc9c: 01 00 17 04  	<unknown>
8002fca0: 01 00 17 04  	<unknown>
8002fca4: 01 00 17 04  	<unknown>
8002fca8: 01 00 17 04  	<unknown>
8002fcac: 01 00 17 04  	<unknown>
8002fcb0: 01 00 17 04  	<unknown>
8002fcb4: 01 00 17 04  	<unknown>
8002fcb8: 01 00 17 04  	<unknown>
8002fcbc: 01 00 17 04  	<unknown>
8002fcc0: 01 00 17 04  	<unknown>
8002fcc4: 01 00 17 04  	<unknown>
8002fcc8: 01 00 17 04  	<unknown>
8002fccc: 01 00 17 04  	<unknown>
8002fcd0: 01 00 17 04  	<unknown>
8002fcd4: 01 00 17 04  	<unknown>
8002fcd8: 01 00 17 04  	<unknown>
8002fcdc: 01 00 17 04  	<unknown>
8002fce0: 01 00 17 04  	<unknown>
8002fce4: 01 00 17 04  	<unknown>
8002fce8: 01 00 17 04  	<unknown>
8002fcec: 01 00 17 04  	<unknown>
8002fcf0: 01 00 17 04  	<unknown>
8002fcf4: 01 00 17 04  	<unknown>
8002fcf8: 01 00 17 04  	<unknown>
8002fcfc: 01 00 17 04  	<unknown>
8002fd00: 01 00 17 04  	<unknown>
8002fd04: 01 00 17 04  	<unknown>
8002fd08: 01 00 17 04  	<unknown>
8002fd0c: 01 00 17 04  	<unknown>
8002fd10: 01 00 17 04  	<unknown>
8002fd14: 01 00 17 04  	<unknown>
8002fd18: 01 00 17 04  	<unknown>
8002fd1c: 01 00 17 04  	<unknown>
8002fd20: 01 00 17 04  	<unknown>
8002fd24: 01 00 17 04  	<unknown>
8002fd28: 01 00 17 04  	<unknown>
8002fd2c: 01 00 17 04  	<unknown>
8002fd30: 01 00 17 04  	<unknown>
8002fd34: 01 00 17 04  	<unknown>
8002fd38: 01 00 17 04  	<unknown>
8002fd3c: 01 00 17 04  	<unknown>
8002fd40: 01 00 17 04  	<unknown>
8002fd44: 01 00 17 04  	<unknown>
8002fd48: 01 00 17 04  	<unknown>
8002fd4c: 01 00 17 04  	<unknown>
8002fd50: 01 00 17 04  	<unknown>
8002fd54: 01 00 17 04  	<unknown>
8002fd58: 01 00 17 04  	<unknown>
8002fd5c: 01 00 17 04  	<unknown>
8002fd60: 01 00 17 04  	<unknown>
8002fd64: 01 00 17 04  	<unknown>
8002fd68: 01 00 17 04  	<unknown>
8002fd6c: 01 00 17 04  	<unknown>
8002fd70: 01 00 17 04  	<unknown>
8002fd74: 01 00 17 04  	<unknown>
8002fd78: 01 00 17 04  	<unknown>
8002fd7c: 01 00 17 04  	<unknown>
8002fd80: 01 00 17 04  	<unknown>
8002fd84: 01 00 17 04  	<unknown>
8002fd88: 01 00 17 04  	<unknown>
8002fd8c: 01 00 17 04  	<unknown>
8002fd90: 01 00 17 04  	<unknown>
8002fd94: 01 00 17 04  	<unknown>
8002fd98: 01 00 17 04  	<unknown>
8002fd9c: 01 00 17 04  	<unknown>
8002fda0: 01 00 17 04  	<unknown>
8002fda4: 01 00 17 04  	<unknown>
8002fda8: 01 00 17 04  	<unknown>
8002fdac: 01 00 17 04  	<unknown>
8002fdb0: 01 00 17 04  	<unknown>
8002fdb4: 01 00 17 04  	<unknown>
8002fdb8: 01 00 17 04  	<unknown>
8002fdbc: 01 00 17 04  	<unknown>
8002fdc0: 01 00 17 04  	<unknown>
8002fdc4: 01 00 17 04  	<unknown>
8002fdc8: 01 00 17 04  	<unknown>
8002fdcc: 01 00 17 04  	<unknown>
8002fdd0: 01 00 17 04  	<unknown>
8002fdd4: 01 00 17 04  	<unknown>
8002fdd8: 01 00 17 04  	<unknown>
8002fddc: 01 00 17 04  	<unknown>
8002fde0: 01 00 17 04  	<unknown>
8002fde4: 01 00 17 04  	<unknown>
8002fde8: 01 00 17 04  	<unknown>
8002fdec: 01 00 17 04  	<unknown>
8002fdf0: 01 00 17 04  	<unknown>
8002fdf4: 01 00 17 04  	<unknown>
8002fdf8: 01 00 17 04  	<unknown>
8002fdfc: 01 00 17 04  	<unknown>
8002fe00: 01 00 17 04  	<unknown>
8002fe04: 01 00 17 04  	<unknown>
8002fe08: 01 00 17 04  	<unknown>
8002fe0c: 01 00 17 04  	<unknown>
8002fe10: 01 00 17 04  	<unknown>
8002fe14: 01 00 17 04  	<unknown>
8002fe18: 01 00 17 04  	<unknown>
8002fe1c: 01 00 17 04  	<unknown>
8002fe20: 01 00 17 04  	<unknown>
8002fe24: 01 00 17 04  	<unknown>
8002fe28: 01 00 17 04  	<unknown>
8002fe2c: 01 00 17 04  	<unknown>
8002fe30: 01 00 17 04  	<unknown>
8002fe34: 01 00 17 04  	<unknown>
8002fe38: 01 00 17 04  	<unknown>
8002fe3c: 01 00 17 04  	<unknown>
8002fe40: 01 00 17 04  	<unknown>
8002fe44: 01 00 17 04  	<unknown>
8002fe48: 01 00 17 04  	<unknown>
8002fe4c: 01 00 17 04  	<unknown>
8002fe50: 01 00 17 04  	<unknown>
8002fe54: 01 00 17 04  	<unknown>
8002fe58: 01 00 17 04  	<unknown>
8002fe5c: 01 00 17 04  	<unknown>
8002fe60: 01 00 17 04  	<unknown>
8002fe64: 01 00 17 04  	<unknown>
8002fe68: 01 00 17 04  	<unknown>
8002fe6c: 01 00 17 04  	<unknown>
8002fe70: 01 00 17 04  	<unknown>
8002fe74: 01 00 17 04  	<unknown>
8002fe78: 01 00 17 04  	<unknown>
8002fe7c: 01 00 17 04  	<unknown>
8002fe80: 01 00 17 04  	<unknown>
8002fe84: 01 00 17 04  	<unknown>
8002fe88: 01 00 17 04  	<unknown>
8002fe8c: 01 00 17 04  	<unknown>
8002fe90: 01 00 17 04  	<unknown>
8002fe94: 01 00 17 04  	<unknown>
8002fe98: 01 00 17 04  	<unknown>
8002fe9c: 01 00 17 04  	<unknown>
8002fea0: 01 00 17 04  	<unknown>
8002fea4: 01 00 17 04  	<unknown>
8002fea8: 01 00 17 04  	<unknown>
8002feac: 01 00 17 04  	<unknown>
8002feb0: 01 00 17 04  	<unknown>
8002feb4: 01 00 17 04  	<unknown>
8002feb8: 01 00 17 04  	<unknown>
8002febc: 01 00 17 04  	<unknown>
8002fec0: 01 00 17 04  	<unknown>
8002fec4: 01 00 17 04  	<unknown>
8002fec8: 01 00 17 04  	<unknown>
8002fecc: 01 00 17 04  	<unknown>
8002fed0: 01 00 17 04  	<unknown>
8002fed4: 01 00 17 04  	<unknown>
8002fed8: 01 00 17 04  	<unknown>
8002fedc: 01 00 17 04  	<unknown>
8002fee0: 01 00 17 04  	<unknown>
8002fee4: 01 00 17 04  	<unknown>
8002fee8: 01 00 17 04  	<unknown>
8002feec: 01 00 17 04  	<unknown>
8002fef0: 01 00 17 04  	<unknown>
8002fef4: 01 00 17 04  	<unknown>
8002fef8: 01 00 17 04  	<unknown>
8002fefc: 01 00 17 04  	<unknown>
8002ff00: 01 00 17 04  	<unknown>
8002ff04: 01 00 17 04  	<unknown>
8002ff08: 01 00 17 04  	<unknown>
8002ff0c: 01 00 17 04  	<unknown>
8002ff10: 01 00 17 04  	<unknown>
8002ff14: 01 00 17 04  	<unknown>
8002ff18: 01 00 17 04  	<unknown>
8002ff1c: 01 00 17 04  	<unknown>
8002ff20: 01 00 17 04  	<unknown>
8002ff24: 01 00 17 04  	<unknown>
8002ff28: 01 00 17 04  	<unknown>
8002ff2c: 01 00 17 04  	<unknown>
8002ff30: 01 00 17 04  	<unknown>
8002ff34: 01 00 17 04  	<unknown>
8002ff38: 01 00 17 04  	<unknown>
8002ff3c: 01 00 17 04  	<unknown>
8002ff40: 01 00 17 04  	<unknown>
8002ff44: 01 00 17 04  	<unknown>
8002ff48: 01 00 17 04  	<unknown>
8002ff4c: 01 00 17 04  	<unknown>
8002ff50: 01 00 17 04  	<unknown>
8002ff54: 01 00 17 04  	<unknown>
8002ff58: 01 00 17 04  	<unknown>
8002ff5c: 01 00 17 04  	<unknown>
8002ff60: 01 00 17 04  	<unknown>
8002ff64: 01 00 17 04  	<unknown>
8002ff68: 01 00 17 04  	<unknown>
8002ff6c: 01 00 17 04  	<unknown>
8002ff70: 01 00 17 04  	<unknown>
8002ff74: 01 00 17 04  	<unknown>
8002ff78: 01 00 17 04  	<unknown>
8002ff7c: 01 00 17 04  	<unknown>
8002ff80: 01 00 17 04  	<unknown>
8002ff84: 01 00 17 04  	<unknown>
8002ff88: 01 00 17 04  	<unknown>
8002ff8c: 01 00 17 04  	<unknown>
8002ff90: 01 00 17 04  	<unknown>
8002ff94: 01 00 17 04  	<unknown>
8002ff98: 01 00 17 04  	<unknown>
8002ff9c: 01 00 17 04  	<unknown>
8002ffa0: 01 00 17 04  	<unknown>
8002ffa4: 01 00 17 04  	<unknown>
8002ffa8: 01 00 17 04  	<unknown>
8002ffac: 01 00 17 04  	<unknown>
8002ffb0: 01 00 17 04  	<unknown>
8002ffb4: 01 00 17 04  	<unknown>
8002ffb8: 01 00 17 04  	<unknown>
8002ffbc: 01 00 17 04  	<unknown>
8002ffc0: 01 00 17 04  	<unknown>
8002ffc4: 01 00 17 04  	<unknown>
8002ffc8: 01 00 17 04  	<unknown>
8002ffcc: 01 00 17 04  	<unknown>
8002ffd0: 01 00 17 04  	<unknown>
8002ffd4: 01 00 17 04  	<unknown>
8002ffd8: 01 00 17 04  	<unknown>
8002ffdc: 01 00 17 04  	<unknown>
8002ffe0: 01 00 17 04  	<unknown>
8002ffe4: 01 00 17 04  	<unknown>
8002ffe8: 01 00 17 04  	<unknown>
8002ffec: 01 00 17 04  	<unknown>
8002fff0: 01 00 17 04  	<unknown>
8002fff4: 01 00 17 04  	<unknown>
8002fff8: 01 00 17 04  	<unknown>
8002fffc: 01 00 17 04  	<unknown>

Disassembly of section .MIPS.abiflags:

80030000 <.MIPS.abiflags>:
80030000: 00 00 20 02  	<unknown>
80030004: 01 00 00 03  	movf	$zero, $24, $fcc0
		...
80030010: 01 00 00 00  	movf	$zero, $zero, $fcc0
80030014: 00 00 00 00  	nop

Disassembly of section .reginfo:

80030018 <.reginfo>:
80030018: ff ff ff e3  	sc	$ra, -0x1($ra)
		...
8003002c: f0 af 03 80  	lb	$3, -0x5010($zero)

Disassembly of section .rodata:

80030030 <.rodata>:
80030030: d4 34 02 80  	lb	$2, 0x34d4($zero)
80030034: 08 00 00 00  	jr	$zero
80030038: 04 00 00 00  	sllv	$zero, $zero, $zero
8003003c: 7c 1b 02 80  	lb	$2, 0x1b7c($zero)
80030040: 74 10 02 80  	lb	$2, 0x1074($zero)
80030044: 44 11 02 80  	lb	$2, 0x1144($zero)
80030048: a8 34 02 80  	lb	$2, 0x34a8($zero)
8003004c: 00 00 00 00  	nop
80030050: 01 00 00 00  	movf	$zero, $zero, $fcc0
80030054: 40 1d 02 80  	lb	$2, 0x1d40($zero)
80030058: dc 10 02 80  	lb	$2, 0x10dc($zero)
8003005c: ac 11 02 80  	lb	$2, 0x11ac($zero)
80030060: 2f 68 6f 6d  	<unknown>
80030064: 65 2f 74 68  	<unknown>
80030068: 69 61 6d 69  	<unknown>
8003006c: 6e 65 2f 2e  	sltiu	$15, $17, 0x656e
80030070: 72 75 73 74  	jalx	0x1cdd5c8
80030074: 75 70 2f 74  	jalx	0xbdc1d4
80030078: 6f 6f 6c 63  	<unknown>
8003007c: 68 61 69 6e  	<unknown>
80030080: 73 2f 6e 69  	<unknown>
80030084: 67 68 74 6c  	<unknown>
80030088: 79 2d 78 38  	xori	$24, $3, 0x2d79
8003008c: 36 5f 36 34  	ori	$22, $1, 0x5f36
80030090: 2d 75 6e 6b  	<unknown>
80030094: 6e 6f 77 6e  	<unknown>
80030098: 2d 6c 69 6e  	<unknown>
8003009c: 75 78 2d 67  	<unknown>
800300a0: 6e 75 2f 6c  	<unknown>
800300a4: 69 62 2f 72  	<unknown>
800300a8: 75 73 74 6c  	<unknown>
800300ac: 69 62 2f 73  	<unknown>
800300b0: 72 63 2f 72  	<unknown>
800300b4: 75 73 74 2f  	sltiu	$20, $27, 0x7375
800300b8: 6c 69 62 72  	<unknown>
800300bc: 61 72 79 2f  	sltiu	$25, $27, 0x7261
800300c0: 63 6f 72 65  	<unknown>
800300c4: 2f 73 72 63  	<unknown>
800300c8: 2f 66 6d 74  	jalx	0x1b598bc
800300cc: 2f 6d 6f 64  	<unknown>
800300d0: 2e 72 73 00  	<unknown>
800300d4: 60 00 03 80  	lb	$3, 0x60($zero)
800300d8: 73 00 00 00  	tltu	$zero, $zero, 0x1
800300dc: 54 01 00 00  	<unknown>
800300e0: 38 00 00 00  	<unknown>
800300e4: 69 6e 76 61  	<unknown>
800300e8: 6c 69 64 20  	addi	$4, $3, 0x696c
800300ec: 61 72 67 73  	<unknown>
800300f0: e4 00 03 80  	lb	$3, 0xe4($zero)
800300f4: 0c 00 00 00  	syscall
800300f8: 60 00 03 80  	lb	$3, 0x60($zero)
800300fc: 73 00 00 00  	tltu	$zero, $zero, 0x1
80030100: 55 01 00 00  	<unknown>
80030104: 0d 00 00 00  	break
80030108: 60 00 03 80  	lb	$3, 0x60($zero)
8003010c: 73 00 00 00  	tltu	$zero, $zero, 0x1
80030110: 4b 01 00 00  	<unknown>
80030114: 0d 00 00 00  	break
80030118: 45 72 72 6f  	<unknown>
8003011c: 72 0a 00 00  	tlt	$zero, $zero, 0x29
80030120: 1d 01 03 80  	lb	$3, 0x11d($zero)
80030124: 00 00 00 00  	nop
80030128: 1d 01 03 80  	lb	$3, 0x11d($zero)
8003012c: 01 00 00 00  	movf	$zero, $zero, $fcc0
80030130: 01 0b 0d 07  	<unknown>
80030134: 09 03 05 0f  	jal	0xc140c24
80030138: 6f 73 20 69  	<unknown>
8003013c: 6e 69 74 0a  	j	0x9d1a5b8
80030140: 38 01 03 80  	lb	$3, 0x138($zero)
80030144: 08 00 00 00  	jr	$zero
80030148: 72 61 6d 5f  	<unknown>
8003014c: 6c 6f 77 5f  	<unknown>
80030150: 73 69 7a 65  	<unknown>
80030154: 20 0a 00 00  	<unknown>
80030158: 48 01 03 80  	lb	$3, 0x148($zero)
8003015c: 0d 00 00 00  	break
80030160: 55 01 03 80  	lb	$3, 0x155($zero)
80030164: 01 00 00 00  	movf	$zero, $zero, $fcc0
80030168: 73 79 6e 63  	<unknown>
8003016c: 0a 00 00 00  	movz	$zero, $zero, $zero
80030170: 68 01 03 80  	lb	$3, 0x168($zero)
80030174: 05 00 00 00  	<unknown>
80030178: 61 61 61 0a  	j	0x9858584
8003017c: 78 01 03 80  	lb	$3, 0x178($zero)
80030180: 04 00 00 00  	sllv	$zero, $zero, $zero
80030184: 75 6e 73 61  	<unknown>
80030188: 66 65 20 70  	<unknown>
8003018c: 72 65 63 6f  	<unknown>
80030190: 6e 64 69 74  	jalx	0x1a591b8
80030194: 69 6f 6e 28  	slti	$14, $3, 0x6f69
80030198: 73 29 20 76  	jalx	0x880a5cc
8003019c: 69 6f 6c 61  	<unknown>
800301a0: 74 65 64 3a  	xori	$4, $19, 0x6574
800301a4: 20 68 69 6e  	<unknown>
800301a8: 74 3a 3a 75  	jalx	0x4e8e9d0
800301ac: 6e 72 65 61  	<unknown>
800301b0: 63 68 61 62  	<unknown>
800301b4: 6c 65 5f 75  	jalx	0x57d95b0
800301b8: 6e 63 68 65  	<unknown>
800301bc: 63 6b 65 64  	<unknown>
800301c0: 20 6d 75 73  	<unknown>
800301c4: 74 20 6e 65  	<unknown>
800301c8: 76 65 72 20  	addi	$18, $3, 0x6576
800301cc: 62 65 20 72  	<unknown>
800301d0: 65 61 63 68  	<unknown>
800301d4: 65 64 63 61  	<unknown>
800301d8: 6c 6c 65 64  	<unknown>
800301dc: 20 60 52 65  	<unknown>
800301e0: 73 75 6c 74  	jalx	0x1b1d5cc
800301e4: 3a 3a 75 6e  	<unknown>
800301e8: 77 72 61 70  	<unknown>
800301ec: 28 29 60 20  	addi	$zero, $3, 0x2928
800301f0: 6f 6e 20 61  	<unknown>
800301f4: 6e 20 60 45  	<unknown>
800301f8: 72 72 60 20  	addi	$zero, $3, 0x7272
800301fc: 76 61 6c 75  	jalx	0x5b185d8
80030200: 65 00 00 00  	<unknown>
80030204: 48 34 02 80  	lb	$2, 0x3448($zero)
80030208: 00 00 00 00  	nop
8003020c: 01 00 00 00  	movf	$zero, $zero, $fcc0
80030210: 44 17 02 80  	lb	$2, 0x1744($zero)
80030214: 73 72 63 2f  	sltiu	$3, $27, 0x7273
80030218: 6b 65 72 6e  	<unknown>
8003021c: 2f 63 6f 6e  	<unknown>
80030220: 73 6f 6c 65  	<unknown>
80030224: 2e 72 73 00  	<unknown>
80030228: 14 02 03 80  	lb	$3, 0x214($zero)
8003022c: 13 00 00 00  	mtlo	$zero
80030230: 31 00 00 00  	tgeu	$zero, $zero
80030234: 1d 00 00 00  	<unknown>
80030238: 14 02 03 80  	lb	$3, 0x214($zero)
8003023c: 13 00 00 00  	mtlo	$zero
80030240: 32 00 00 00  	tlt	$zero, $zero
80030244: 18 00 00 00  	mult	$zero, $zero
80030248: 14 02 03 80  	lb	$3, 0x214($zero)
8003024c: 13 00 00 00  	mtlo	$zero
80030250: 42 00 00 00  	srl	$zero, $zero, 0x1
80030254: 1c 00 00 00  	<unknown>
80030258: 14 02 03 80  	lb	$3, 0x214($zero)
8003025c: 13 00 00 00  	mtlo	$zero
80030260: 46 00 00 00  	rotrv	$zero, $zero, $zero
80030264: 23 00 00 00  	negu	$zero, $zero
80030268: 28 21 02 80  	lb	$2, 0x2128($zero)
8003026c: 70 21 02 80  	lb	$2, 0x2170($zero)
80030270: b8 21 02 80  	lb	$2, 0x21b8($zero)
80030274: 00 22 02 80  	lb	$2, 0x2200($zero)
80030278: 48 22 02 80  	lb	$2, 0x2248($zero)
8003027c: 44 28 02 80  	lb	$2, 0x2844($zero)
80030280: 8c 28 02 80  	lb	$2, 0x288c($zero)
80030284: d4 28 02 80  	lb	$2, 0x28d4($zero)
80030288: 1c 29 02 80  	lb	$2, 0x291c($zero)
8003028c: 64 29 02 80  	lb	$2, 0x2964($zero)
80030290: 74 68 65 72  	<unknown>
80030294: 65 20 69 73  	<unknown>
80030298: 20 6e 6f 20  	addi	$15, $3, 0x6e20
8003029c: 73 75 63 68  	<unknown>
800302a0: 20 74 68 69  	<unknown>
800302a4: 6e 67 20 61  	<unknown>
800302a8: 73 20 61 20  	addi	$1, $3, 0x2073
800302ac: 72 65 6c 65  	<unknown>
800302b0: 61 73 65 20  	addi	$5, $3, 0x7361
800302b4: 66 61 69 6c  	<unknown>
800302b8: 75 72 65 20  	addi	$5, $3, 0x7275
800302bc: 6f 72 64 65  	<unknown>
800302c0: 72 69 6e 67  	<unknown>
800302c4: 90 02 03 80  	lb	$3, 0x290($zero)
800302c8: 34 00 00 00  	teq	$zero, $zero
800302cc: 2f 68 6f 6d  	<unknown>
800302d0: 65 2f 74 68  	<unknown>
800302d4: 69 61 6d 69  	<unknown>
800302d8: 6e 65 2f 2e  	sltiu	$15, $17, 0x656e
800302dc: 72 75 73 74  	jalx	0x1cdd5c8
800302e0: 75 70 2f 74  	jalx	0xbdc1d4
800302e4: 6f 6f 6c 63  	<unknown>
800302e8: 68 61 69 6e  	<unknown>
800302ec: 73 2f 6e 69  	<unknown>
800302f0: 67 68 74 6c  	<unknown>
800302f4: 79 2d 78 38  	xori	$24, $3, 0x2d79
800302f8: 36 5f 36 34  	ori	$22, $1, 0x5f36
800302fc: 2d 75 6e 6b  	<unknown>
80030300: 6e 6f 77 6e  	<unknown>
80030304: 2d 6c 69 6e  	<unknown>
80030308: 75 78 2d 67  	<unknown>
8003030c: 6e 75 2f 6c  	<unknown>
80030310: 69 62 2f 72  	<unknown>
80030314: 75 73 74 6c  	<unknown>
80030318: 69 62 2f 73  	<unknown>
8003031c: 72 63 2f 72  	<unknown>
80030320: 75 73 74 2f  	sltiu	$20, $27, 0x7375
80030324: 6c 69 62 72  	<unknown>
80030328: 61 72 79 2f  	sltiu	$25, $27, 0x7261
8003032c: 63 6f 72 65  	<unknown>
80030330: 2f 73 72 63  	<unknown>
80030334: 2f 73 79 6e  	<unknown>
80030338: 63 2f 61 74  	jalx	0x184bd8c
8003033c: 6f 6d 69 63  	<unknown>
80030340: 2e 72 73 00  	<unknown>
80030344: cc 02 03 80  	lb	$3, 0x2cc($zero)
80030348: 77 00 00 00  	<unknown>
8003034c: 3d 0d 00 00  	<unknown>
80030350: 1d 00 00 00  	<unknown>
80030354: 74 68 65 72  	<unknown>
80030358: 65 20 69 73  	<unknown>
8003035c: 20 6e 6f 20  	addi	$15, $3, 0x6e20
80030360: 73 75 63 68  	<unknown>
80030364: 20 74 68 69  	<unknown>
80030368: 6e 67 20 61  	<unknown>
8003036c: 73 20 61 6e  	<unknown>
80030370: 20 61 63 71  	<unknown>
80030374: 75 69 72 65  	<unknown>
80030378: 2d 72 65 6c  	<unknown>
8003037c: 65 61 73 65  	<unknown>
80030380: 20 66 61 69  	<unknown>
80030384: 6c 75 72 65  	<unknown>
80030388: 20 6f 72 64  	<unknown>
8003038c: 65 72 69 6e  	<unknown>
80030390: 67 00 00 00  	<unknown>
80030394: 54 03 03 80  	lb	$3, 0x354($zero)
80030398: 3d 00 00 00  	<unknown>
8003039c: cc 02 03 80  	lb	$3, 0x2cc($zero)
800303a0: 77 00 00 00  	<unknown>
800303a4: 3c 0d 00 00  	<unknown>
800303a8: 1c 00 00 00  	<unknown>
800303ac: cc 02 03 80  	lb	$3, 0x2cc($zero)
800303b0: 77 00 00 00  	<unknown>
800303b4: 60 0d 00 00  	<unknown>
800303b8: 1d 00 00 00  	<unknown>
800303bc: cc 02 03 80  	lb	$3, 0x2cc($zero)
800303c0: 77 00 00 00  	<unknown>
800303c4: 5f 0d 00 00  	<unknown>
800303c8: 1c 00 00 00  	<unknown>
800303cc: 73 72 63 2f  	sltiu	$3, $27, 0x7273
800303d0: 6b 65 72 6e  	<unknown>
800303d4: 2f 63 6f 6e  	<unknown>
800303d8: 73 6f 6c 65  	<unknown>
800303dc: 2e 72 73 00  	<unknown>
800303e0: cc 03 03 80  	lb	$3, 0x3cc($zero)
800303e4: 13 00 00 00  	mtlo	$zero
800303e8: 11 00 00 00  	mthi	$zero
800303ec: 10 00 00 00  	mfhi	$zero
800303f0: cc 03 03 80  	lb	$3, 0x3cc($zero)
800303f4: 13 00 00 00  	mtlo	$zero
800303f8: 14 00 00 00  	<unknown>
800303fc: 14 00 00 00  	<unknown>
80030400: 1c 37 02 80  	lb	$2, 0x371c($zero)
80030404: 30 37 02 80  	lb	$2, 0x3730($zero)
80030408: 48 37 02 80  	lb	$2, 0x3748($zero)
8003040c: 60 37 02 80  	lb	$2, 0x3760($zero)
80030410: 2f 68 6f 6d  	<unknown>
80030414: 65 2f 74 68  	<unknown>
80030418: 69 61 6d 69  	<unknown>
8003041c: 6e 65 2f 2e  	sltiu	$15, $17, 0x656e
80030420: 72 75 73 74  	jalx	0x1cdd5c8
80030424: 75 70 2f 74  	jalx	0xbdc1d4
80030428: 6f 6f 6c 63  	<unknown>
8003042c: 68 61 69 6e  	<unknown>
80030430: 73 2f 6e 69  	<unknown>
80030434: 67 68 74 6c  	<unknown>
80030438: 79 2d 78 38  	xori	$24, $3, 0x2d79
8003043c: 36 5f 36 34  	ori	$22, $1, 0x5f36
80030440: 2d 75 6e 6b  	<unknown>
80030444: 6e 6f 77 6e  	<unknown>
80030448: 2d 6c 69 6e  	<unknown>
8003044c: 75 78 2d 67  	<unknown>
80030450: 6e 75 2f 6c  	<unknown>
80030454: 69 62 2f 72  	<unknown>
80030458: 75 73 74 6c  	<unknown>
8003045c: 69 62 2f 73  	<unknown>
80030460: 72 63 2f 72  	<unknown>
80030464: 75 73 74 2f  	sltiu	$20, $27, 0x7375
80030468: 6c 69 62 72  	<unknown>
8003046c: 61 72 79 2f  	sltiu	$25, $27, 0x7261
80030470: 63 6f 72 65  	<unknown>
80030474: 2f 73 72 63  	<unknown>
80030478: 2f 63 68 61  	<unknown>
8003047c: 72 2f 6d 65  	<unknown>
80030480: 74 68 6f 64  	<unknown>
80030484: 73 2e 72 73  	<unknown>
80030488: 10 04 03 80  	lb	$3, 0x410($zero)
8003048c: 78 00 00 00  	<unknown>
80030490: eb 06 00 00  	<unknown>
80030494: 19 00 00 00  	multu	$zero, $zero
80030498: 10 04 03 80  	lb	$3, 0x410($zero)
8003049c: 78 00 00 00  	<unknown>
800304a0: 05 07 00 00  	<unknown>
800304a4: 0d 00 00 00  	break
800304a8: 65 6e 63 6f  	<unknown>
800304ac: 64 65 5f 75  	jalx	0x57d9590
800304b0: 74 66 38 3a  	xori	$24, $17, 0x6674
800304b4: 20 6e 65 65  	<unknown>
800304b8: 64 20 20 62  	<unknown>
800304bc: 79 74 65 73  	<unknown>
800304c0: 20 74 6f 20  	addi	$15, $3, 0x7420
800304c4: 65 6e 63 6f  	<unknown>
800304c8: 64 65 20 55  	bnezl	$9, 0x80049a5c
800304cc: 2b 2c 20 62  	<unknown>
800304d0: 75 74 20 74  	jalx	0x81d1d4
800304d4: 68 65 20 62  	<unknown>
800304d8: 75 66 66 65  	<unknown>
800304dc: 72 20 68 61  	<unknown>
800304e0: 73 20 00 00  	tltu	$zero, $zero, 0x81
800304e4: a8 04 03 80  	lb	$3, 0x4a8($zero)
800304e8: 12 00 00 00  	mflo	$zero
800304ec: ba 04 03 80  	lb	$3, 0x4ba($zero)
800304f0: 13 00 00 00  	mtlo	$zero
800304f4: cd 04 03 80  	lb	$3, 0x4cd($zero)
800304f8: 15 00 00 00  	<unknown>
800304fc: 10 04 03 80  	lb	$3, 0x410($zero)
80030500: 78 00 00 00  	<unknown>
80030504: fe 06 00 00  	<unknown>
80030508: 0e 00 00 00  	<unknown>
8003050c: 75 6e 73 61  	<unknown>
80030510: 66 65 20 70  	<unknown>
80030514: 72 65 63 6f  	<unknown>
80030518: 6e 64 69 74  	jalx	0x1a591b8
8003051c: 69 6f 6e 28  	slti	$14, $3, 0x6f69
80030520: 73 29 20 76  	jalx	0x880a5cc
80030524: 69 6f 6c 61  	<unknown>
80030528: 74 65 64 3a  	xori	$4, $19, 0x6574
8003052c: 20 70 74 72  	clz	$fp, $19
80030530: 3a 3a 72 65  	<unknown>
80030534: 61 64 5f 76  	jalx	0x97d9184
80030538: 6f 6c 61 74  	jalx	0x185b1bc
8003053c: 69 6c 65 20  	addi	$5, $3, 0x6c69
80030540: 72 65 71 75  	jalx	0x5c595c8
80030544: 69 72 65 73  	<unknown>
80030548: 20 74 68 61  	<unknown>
8003054c: 74 20 74 68  	<unknown>
80030550: 65 20 70 6f  	<unknown>
80030554: 69 6e 74 65  	<unknown>
80030558: 72 20 61 72  	<unknown>
8003055c: 67 75 6d 65  	<unknown>
80030560: 6e 74 20 69  	<unknown>
80030564: 73 20 61 6c  	<unknown>
80030568: 69 67 6e 65  	<unknown>
8003056c: 64 20 61 6e  	<unknown>
80030570: 64 20 6e 6f  	<unknown>
80030574: 6e 2d 6e 75  	jalx	0x5b8b5b8
80030578: 6c 6c 75 6e  	<unknown>
8003057c: 73 61 66 65  	<unknown>
80030580: 20 70 72 65  	<unknown>
80030584: 63 6f 6e 64  	<unknown>
80030588: 69 74 69 6f  	<unknown>
8003058c: 6e 28 73 29  	slti	$19, $11, 0x286e
80030590: 20 76 69 6f  	<unknown>
80030594: 6c 61 74 65  	<unknown>
80030598: 64 3a 20 70  	<unknown>
8003059c: 74 72 3a 3a  	xori	$26, $17, 0x7274
800305a0: 77 72 69 74  	jalx	0x1a5c9dc
800305a4: 65 5f 76 6f  	<unknown>
800305a8: 6c 61 74 69  	<unknown>
800305ac: 6c 65 20 72  	<unknown>
800305b0: 65 71 75 69  	<unknown>
800305b4: 72 65 73 20  	addi	$19, $3, 0x6572
800305b8: 74 68 61 74  	jalx	0x185a1d0
800305bc: 20 74 68 65  	<unknown>
800305c0: 20 70 6f 69  	<unknown>
800305c4: 6e 74 65 72  	<unknown>
800305c8: 20 61 72 67  	<unknown>
800305cc: 75 6d 65 6e  	<unknown>
800305d0: 74 20 69 73  	<unknown>
800305d4: 20 61 6c 69  	<unknown>
800305d8: 67 6e 65 64  	<unknown>
800305dc: 20 61 6e 64  	<unknown>
800305e0: 20 6e 6f 6e  	<unknown>
800305e4: 2d 6e 75 6c  	<unknown>
800305e8: 6c 00 00 00  	<unknown>
800305ec: 30 3e 02 80  	lb	$2, 0x3e30($zero)
800305f0: 4c 3e 02 80  	lb	$2, 0x3e4c($zero)
800305f4: 98 3e 02 80  	lb	$2, 0x3e98($zero)
800305f8: 7c 3e 02 80  	lb	$2, 0x3e7c($zero)
800305fc: 69 6e 74 65  	<unknown>
80030600: 72 6e 61 6c  	<unknown>
80030604: 20 65 72 72  	<unknown>
80030608: 6f 72 3a 20  	addi	$26, $1, 0x726f
8003060c: 65 6e 74 65  	<unknown>
80030610: 72 65 64 20  	addi	$4, $3, 0x6572
80030614: 75 6e 72 65  	<unknown>
80030618: 61 63 68 61  	<unknown>
8003061c: 62 6c 65 20  	addi	$5, $3, 0x6c62
80030620: 63 6f 64 65  	<unknown>
80030624: 2f 68 6f 6d  	<unknown>
80030628: 65 2f 74 68  	<unknown>
8003062c: 69 61 6d 69  	<unknown>
80030630: 6e 65 2f 2e  	sltiu	$15, $17, 0x656e
80030634: 63 61 72 67  	<unknown>
80030638: 6f 2f 72 65  	<unknown>
8003063c: 67 69 73 74  	jalx	0x1cda59c
80030640: 72 79 2f 73  	<unknown>
80030644: 72 63 2f 69  	<unknown>
80030648: 6e 64 65 78  	<unknown>
8003064c: 2e 63 72 61  	<unknown>
80030650: 74 65 73 2e  	sltiu	$19, $19, 0x6574
80030654: 69 6f 2d 36  	ori	$13, $17, 0x6f69
80030658: 66 31 37 64  	<unknown>
8003065c: 32 32 62 62  	<unknown>
80030660: 61 31 35 30  	andi	$21, $1, 0x3161
80030664: 30 31 66 2f  	sltiu	$6, $27, 0x3130
80030668: 73 70 69 6e  	<unknown>
8003066c: 2d 30 2e 35  	ori	$14, $9, 0x302d
80030670: 2e 32 2f 73  	<unknown>
80030674: 72 63 2f 6f  	<unknown>
80030678: 6e 63 65 2e  	sltiu	$5, $19, 0x636e
8003067c: 72 73 00 00  	tlt	$zero, $zero, 0x1cd
80030680: 24 06 03 80  	lb	$3, 0x624($zero)
80030684: 5a 00 00 00  	<unknown>
80030688: 7b 00 00 00  	<unknown>
8003068c: 1f 00 00 00  	<unknown>
80030690: 4f 6e 63 65  	<unknown>
80030694: 20 68 61 73  	clz	$13, $27
80030698: 20 70 61 6e  	<unknown>
8003069c: 69 63 6b 65  	<unknown>
800306a0: 64 00 00 00  	<unknown>
800306a4: 24 06 03 80  	lb	$3, 0x624($zero)
800306a8: 5a 00 00 00  	<unknown>
800306ac: 80 00 00 00  	sll	$zero, $zero, 0x2
800306b0: 1d 00 00 00  	<unknown>
800306b4: 08 43 02 80  	lb	$2, 0x4308($zero)
800306b8: 18 43 02 80  	lb	$2, 0x4318($zero)
800306bc: 28 43 02 80  	lb	$2, 0x4328($zero)
800306c0: 38 43 02 80  	lb	$2, 0x4338($zero)
800306c4: 48 43 02 80  	lb	$2, 0x4348($zero)
800306c8: 98 46 02 80  	lb	$2, 0x4698($zero)
800306cc: ac 46 02 80  	lb	$2, 0x46ac($zero)
800306d0: c4 46 02 80  	lb	$2, 0x46c4($zero)
800306d4: f4 46 02 80  	lb	$2, 0x46f4($zero)
800306d8: 24 47 02 80  	lb	$2, 0x4724($zero)
800306dc: 69 6e 76 61  	<unknown>
800306e0: 6c 69 64 20  	addi	$4, $3, 0x696c
800306e4: 61 72 67 73  	<unknown>
800306e8: dc 06 03 80  	lb	$3, 0x6dc($zero)
800306ec: 0c 00 00 00  	syscall
800306f0: 2f 68 6f 6d  	<unknown>
800306f4: 65 2f 74 68  	<unknown>
800306f8: 69 61 6d 69  	<unknown>
800306fc: 6e 65 2f 2e  	sltiu	$15, $17, 0x656e
80030700: 72 75 73 74  	jalx	0x1cdd5c8
80030704: 75 70 2f 74  	jalx	0xbdc1d4
80030708: 6f 6f 6c 63  	<unknown>
8003070c: 68 61 69 6e  	<unknown>
80030710: 73 2f 6e 69  	<unknown>
80030714: 67 68 74 6c  	<unknown>
80030718: 79 2d 78 38  	xori	$24, $3, 0x2d79
8003071c: 36 5f 36 34  	ori	$22, $1, 0x5f36
80030720: 2d 75 6e 6b  	<unknown>
80030724: 6e 6f 77 6e  	<unknown>
80030728: 2d 6c 69 6e  	<unknown>
8003072c: 75 78 2d 67  	<unknown>
80030730: 6e 75 2f 6c  	<unknown>
80030734: 69 62 2f 72  	<unknown>
80030738: 75 73 74 6c  	<unknown>
8003073c: 69 62 2f 73  	<unknown>
80030740: 72 63 2f 72  	<unknown>
80030744: 75 73 74 2f  	sltiu	$20, $27, 0x7375
80030748: 6c 69 62 72  	<unknown>
8003074c: 61 72 79 2f  	sltiu	$25, $27, 0x7261
80030750: 63 6f 72 65  	<unknown>
80030754: 2f 73 72 63  	<unknown>
80030758: 2f 66 6d 74  	jalx	0x1b598bc
8003075c: 2f 6d 6f 64  	<unknown>
80030760: 2e 72 73 00  	<unknown>
80030764: f0 06 03 80  	lb	$3, 0x6f0($zero)
80030768: 73 00 00 00  	tltu	$zero, $zero, 0x1
8003076c: 4b 01 00 00  	<unknown>
80030770: 0d 00 00 00  	break
80030774: 74 68 65 72  	<unknown>
80030778: 65 20 69 73  	<unknown>
8003077c: 20 6e 6f 20  	addi	$15, $3, 0x6e20
80030780: 73 75 63 68  	<unknown>
80030784: 20 74 68 69  	<unknown>
80030788: 6e 67 20 61  	<unknown>
8003078c: 73 20 61 6e  	<unknown>
80030790: 20 61 63 71  	<unknown>
80030794: 75 69 72 65  	<unknown>
80030798: 20 73 74 6f  	<unknown>
8003079c: 72 65 00 00  	tlt	$zero, $zero, 0x195
800307a0: 74 07 03 80  	lb	$3, 0x774($zero)
800307a4: 2a 00 00 00  	slt	$zero, $zero, $zero
800307a8: 2f 68 6f 6d  	<unknown>
800307ac: 65 2f 74 68  	<unknown>
800307b0: 69 61 6d 69  	<unknown>
800307b4: 6e 65 2f 2e  	sltiu	$15, $17, 0x656e
800307b8: 72 75 73 74  	jalx	0x1cdd5c8
800307bc: 75 70 2f 74  	jalx	0xbdc1d4
800307c0: 6f 6f 6c 63  	<unknown>
800307c4: 68 61 69 6e  	<unknown>
800307c8: 73 2f 6e 69  	<unknown>
800307cc: 67 68 74 6c  	<unknown>
800307d0: 79 2d 78 38  	xori	$24, $3, 0x2d79
800307d4: 36 5f 36 34  	ori	$22, $1, 0x5f36
800307d8: 2d 75 6e 6b  	<unknown>
800307dc: 6e 6f 77 6e  	<unknown>
800307e0: 2d 6c 69 6e  	<unknown>
800307e4: 75 78 2d 67  	<unknown>
800307e8: 6e 75 2f 6c  	<unknown>
800307ec: 69 62 2f 72  	<unknown>
800307f0: 75 73 74 6c  	<unknown>
800307f4: 69 62 2f 73  	<unknown>
800307f8: 72 63 2f 72  	<unknown>
800307fc: 75 73 74 2f  	sltiu	$20, $27, 0x7375
80030800: 6c 69 62 72  	<unknown>
80030804: 61 72 79 2f  	sltiu	$25, $27, 0x7261
80030808: 63 6f 72 65  	<unknown>
8003080c: 2f 73 72 63  	<unknown>
80030810: 2f 73 79 6e  	<unknown>
80030814: 63 2f 61 74  	jalx	0x184bd8c
80030818: 6f 6d 69 63  	<unknown>
8003081c: 2e 72 73 00  	<unknown>
80030820: a8 07 03 80  	lb	$3, 0x7a8($zero)
80030824: 77 00 00 00  	<unknown>
80030828: d9 0c 00 00  	<unknown>
8003082c: 18 00 00 00  	mult	$zero, $zero
80030830: 74 68 65 72  	<unknown>
80030834: 65 20 69 73  	<unknown>
80030838: 20 6e 6f 20  	addi	$15, $3, 0x6e20
8003083c: 73 75 63 68  	<unknown>
80030840: 20 74 68 69  	<unknown>
80030844: 6e 67 20 61  	<unknown>
80030848: 73 20 61 6e  	<unknown>
8003084c: 20 61 63 71  	<unknown>
80030850: 75 69 72 65  	<unknown>
80030854: 2d 72 65 6c  	<unknown>
80030858: 65 61 73 65  	<unknown>
8003085c: 20 73 74 6f  	<unknown>
80030860: 72 65 00 00  	tlt	$zero, $zero, 0x195
80030864: 30 08 03 80  	lb	$3, 0x830($zero)
80030868: 32 00 00 00  	tlt	$zero, $zero
8003086c: a8 07 03 80  	lb	$3, 0x7a8($zero)
80030870: 77 00 00 00  	<unknown>
80030874: da 0c 00 00  	<unknown>
80030878: 17 00 00 00  	<unknown>
8003087c: a4 48 02 80  	lb	$2, 0x48a4($zero)
80030880: b8 48 02 80  	lb	$2, 0x48b8($zero)
80030884: d0 48 02 80  	lb	$2, 0x48d0($zero)
80030888: 00 49 02 80  	lb	$2, 0x4900($zero)
8003088c: 30 49 02 80  	lb	$2, 0x4930($zero)
80030890: 69 6e 76 61  	<unknown>
80030894: 6c 69 64 20  	addi	$4, $3, 0x696c
80030898: 61 72 67 73  	<unknown>
8003089c: 90 08 03 80  	lb	$3, 0x890($zero)
800308a0: 0c 00 00 00  	syscall
800308a4: 2f 68 6f 6d  	<unknown>
800308a8: 65 2f 74 68  	<unknown>
800308ac: 69 61 6d 69  	<unknown>
800308b0: 6e 65 2f 2e  	sltiu	$15, $17, 0x656e
800308b4: 72 75 73 74  	jalx	0x1cdd5c8
800308b8: 75 70 2f 74  	jalx	0xbdc1d4
800308bc: 6f 6f 6c 63  	<unknown>
800308c0: 68 61 69 6e  	<unknown>
800308c4: 73 2f 6e 69  	<unknown>
800308c8: 67 68 74 6c  	<unknown>
800308cc: 79 2d 78 38  	xori	$24, $3, 0x2d79
800308d0: 36 5f 36 34  	ori	$22, $1, 0x5f36
800308d4: 2d 75 6e 6b  	<unknown>
800308d8: 6e 6f 77 6e  	<unknown>
800308dc: 2d 6c 69 6e  	<unknown>
800308e0: 75 78 2d 67  	<unknown>
800308e4: 6e 75 2f 6c  	<unknown>
800308e8: 69 62 2f 72  	<unknown>
800308ec: 75 73 74 6c  	<unknown>
800308f0: 69 62 2f 73  	<unknown>
800308f4: 72 63 2f 72  	<unknown>
800308f8: 75 73 74 2f  	sltiu	$20, $27, 0x7375
800308fc: 6c 69 62 72  	<unknown>
80030900: 61 72 79 2f  	sltiu	$25, $27, 0x7261
80030904: 63 6f 72 65  	<unknown>
80030908: 2f 73 72 63  	<unknown>
8003090c: 2f 66 6d 74  	jalx	0x1b598bc
80030910: 2f 6d 6f 64  	<unknown>
80030914: 2e 72 73 00  	<unknown>
80030918: a4 08 03 80  	lb	$3, 0x8a4($zero)
8003091c: 73 00 00 00  	tltu	$zero, $zero, 0x1
80030920: 4b 01 00 00  	<unknown>
80030924: 0d 00 00 00  	break
80030928: 74 68 65 72  	<unknown>
8003092c: 65 20 69 73  	<unknown>
80030930: 20 6e 6f 20  	addi	$15, $3, 0x6e20
80030934: 73 75 63 68  	<unknown>
80030938: 20 74 68 69  	<unknown>
8003093c: 6e 67 20 61  	<unknown>
80030940: 73 20 61 6e  	<unknown>
80030944: 20 61 63 71  	<unknown>
80030948: 75 69 72 65  	<unknown>
8003094c: 20 73 74 6f  	<unknown>
80030950: 72 65 00 00  	tlt	$zero, $zero, 0x195
80030954: 28 09 03 80  	lb	$3, 0x928($zero)
80030958: 2a 00 00 00  	slt	$zero, $zero, $zero
8003095c: 2f 68 6f 6d  	<unknown>
80030960: 65 2f 74 68  	<unknown>
80030964: 69 61 6d 69  	<unknown>
80030968: 6e 65 2f 2e  	sltiu	$15, $17, 0x656e
8003096c: 72 75 73 74  	jalx	0x1cdd5c8
80030970: 75 70 2f 74  	jalx	0xbdc1d4
80030974: 6f 6f 6c 63  	<unknown>
80030978: 68 61 69 6e  	<unknown>
8003097c: 73 2f 6e 69  	<unknown>
80030980: 67 68 74 6c  	<unknown>
80030984: 79 2d 78 38  	xori	$24, $3, 0x2d79
80030988: 36 5f 36 34  	ori	$22, $1, 0x5f36
8003098c: 2d 75 6e 6b  	<unknown>
80030990: 6e 6f 77 6e  	<unknown>
80030994: 2d 6c 69 6e  	<unknown>
80030998: 75 78 2d 67  	<unknown>
8003099c: 6e 75 2f 6c  	<unknown>
800309a0: 69 62 2f 72  	<unknown>
800309a4: 75 73 74 6c  	<unknown>
800309a8: 69 62 2f 73  	<unknown>
800309ac: 72 63 2f 72  	<unknown>
800309b0: 75 73 74 2f  	sltiu	$20, $27, 0x7375
800309b4: 6c 69 62 72  	<unknown>
800309b8: 61 72 79 2f  	sltiu	$25, $27, 0x7261
800309bc: 63 6f 72 65  	<unknown>
800309c0: 2f 73 72 63  	<unknown>
800309c4: 2f 73 79 6e  	<unknown>
800309c8: 63 2f 61 74  	jalx	0x184bd8c
800309cc: 6f 6d 69 63  	<unknown>
800309d0: 2e 72 73 00  	<unknown>
800309d4: 5c 09 03 80  	lb	$3, 0x95c($zero)
800309d8: 77 00 00 00  	<unknown>
800309dc: d9 0c 00 00  	<unknown>
800309e0: 18 00 00 00  	mult	$zero, $zero
800309e4: 74 68 65 72  	<unknown>
800309e8: 65 20 69 73  	<unknown>
800309ec: 20 6e 6f 20  	addi	$15, $3, 0x6e20
800309f0: 73 75 63 68  	<unknown>
800309f4: 20 74 68 69  	<unknown>
800309f8: 6e 67 20 61  	<unknown>
800309fc: 73 20 61 6e  	<unknown>
80030a00: 20 61 63 71  	<unknown>
80030a04: 75 69 72 65  	<unknown>
80030a08: 2d 72 65 6c  	<unknown>
80030a0c: 65 61 73 65  	<unknown>
80030a10: 20 73 74 6f  	<unknown>
80030a14: 72 65 00 00  	tlt	$zero, $zero, 0x195
80030a18: e4 09 03 80  	lb	$3, 0x9e4($zero)
80030a1c: 32 00 00 00  	tlt	$zero, $zero
80030a20: 5c 09 03 80  	lb	$3, 0x95c($zero)
80030a24: 77 00 00 00  	<unknown>
80030a28: da 0c 00 00  	<unknown>
80030a2c: 17 00 00 00  	<unknown>
80030a30: 2f 68 6f 6d  	<unknown>
80030a34: 65 2f 74 68  	<unknown>
80030a38: 69 61 6d 69  	<unknown>
80030a3c: 6e 65 2f 2e  	sltiu	$15, $17, 0x656e
80030a40: 72 75 73 74  	jalx	0x1cdd5c8
80030a44: 75 70 2f 74  	jalx	0xbdc1d4
80030a48: 6f 6f 6c 63  	<unknown>
80030a4c: 68 61 69 6e  	<unknown>
80030a50: 73 2f 6e 69  	<unknown>
80030a54: 67 68 74 6c  	<unknown>
80030a58: 79 2d 78 38  	xori	$24, $3, 0x2d79
80030a5c: 36 5f 36 34  	ori	$22, $1, 0x5f36
80030a60: 2d 75 6e 6b  	<unknown>
80030a64: 6e 6f 77 6e  	<unknown>
80030a68: 2d 6c 69 6e  	<unknown>
80030a6c: 75 78 2d 67  	<unknown>
80030a70: 6e 75 2f 6c  	<unknown>
80030a74: 69 62 2f 72  	<unknown>
80030a78: 75 73 74 6c  	<unknown>
80030a7c: 69 62 2f 73  	<unknown>
80030a80: 72 63 2f 72  	<unknown>
80030a84: 75 73 74 2f  	sltiu	$20, $27, 0x7375
80030a88: 6c 69 62 72  	<unknown>
80030a8c: 61 72 79 2f  	sltiu	$25, $27, 0x7261
80030a90: 63 6f 72 65  	<unknown>
80030a94: 2f 73 72 63  	<unknown>
80030a98: 2f 66 6d 74  	jalx	0x1b598bc
80030a9c: 2f 6e 75 6d  	<unknown>
80030aa0: 2e 72 73 00  	<unknown>
80030aa4: 30 0a 03 80  	lb	$3, 0xa30($zero)
80030aa8: 73 00 00 00  	tltu	$zero, $zero, 0x1
80030aac: 5f 00 00 00  	<unknown>
80030ab0: 20 00 00 00  	add	$zero, $zero, $zero
80030ab4: 30 0a 03 80  	lb	$3, 0xa30($zero)
80030ab8: 73 00 00 00  	tltu	$zero, $zero, 0x1
80030abc: 5f 00 00 00  	<unknown>
80030ac0: 19 00 00 00  	multu	$zero, $zero
80030ac4: 30 0a 03 80  	lb	$3, 0xa30($zero)
80030ac8: 73 00 00 00  	tltu	$zero, $zero, 0x1
80030acc: 60 00 00 00  	<unknown>
80030ad0: 15 00 00 00  	<unknown>
80030ad4: 30 0a 03 80  	lb	$3, 0xa30($zero)
80030ad8: 73 00 00 00  	tltu	$zero, $zero, 0x1
80030adc: 62 00 00 00  	<unknown>
80030ae0: 11 00 00 00  	mthi	$zero
80030ae4: 30 0a 03 80  	lb	$3, 0xa30($zero)
80030ae8: 73 00 00 00  	tltu	$zero, $zero, 0x1
80030aec: 53 00 00 00  	<unknown>
80030af0: 19 00 00 00  	multu	$zero, $zero
80030af4: 30 0a 03 80  	lb	$3, 0xa30($zero)
80030af8: 73 00 00 00  	tltu	$zero, $zero, 0x1
80030afc: 54 00 00 00  	<unknown>
80030b00: 15 00 00 00  	<unknown>
80030b04: 30 0a 03 80  	lb	$3, 0xa30($zero)
80030b08: 73 00 00 00  	tltu	$zero, $zero, 0x1
80030b0c: 56 00 00 00  	<unknown>
80030b10: 11 00 00 00  	mthi	$zero
80030b14: 30 0a 03 80  	lb	$3, 0xa30($zero)
80030b18: 73 00 00 00  	tltu	$zero, $zero, 0x1
80030b1c: 69 00 00 00  	<unknown>
80030b20: 17 00 00 00  	<unknown>
80030b24: 30 78 30 30  	andi	$16, $1, 0x7830
80030b28: 30 31 30 32  	andi	$16, $17, 0x3130
80030b2c: 30 33 30 34  	ori	$16, $1, 0x3330
80030b30: 30 35 30 36  	ori	$16, $17, 0x3530
80030b34: 30 37 30 38  	xori	$16, $1, 0x3730
80030b38: 30 39 31 30  	andi	$17, $1, 0x3930
80030b3c: 31 31 31 32  	andi	$17, $17, 0x3131
80030b40: 31 33 31 34  	ori	$17, $1, 0x3331
80030b44: 31 35 31 36  	ori	$17, $17, 0x3531
80030b48: 31 37 31 38  	xori	$17, $1, 0x3731
80030b4c: 31 39 32 30  	andi	$18, $1, 0x3931
80030b50: 32 31 32 32  	andi	$18, $17, 0x3132
80030b54: 32 33 32 34  	ori	$18, $1, 0x3332
80030b58: 32 35 32 36  	ori	$18, $17, 0x3532
80030b5c: 32 37 32 38  	xori	$18, $1, 0x3732
80030b60: 32 39 33 30  	andi	$19, $1, 0x3932
80030b64: 33 31 33 32  	andi	$19, $17, 0x3133
80030b68: 33 33 33 34  	ori	$19, $1, 0x3333
80030b6c: 33 35 33 36  	ori	$19, $17, 0x3533
80030b70: 33 37 33 38  	xori	$19, $1, 0x3733
80030b74: 33 39 34 30  	andi	$20, $1, 0x3933
80030b78: 34 31 34 32  	andi	$20, $17, 0x3134
80030b7c: 34 33 34 34  	ori	$20, $1, 0x3334
80030b80: 34 35 34 36  	ori	$20, $17, 0x3534
80030b84: 34 37 34 38  	xori	$20, $1, 0x3734
80030b88: 34 39 35 30  	andi	$21, $1, 0x3934
80030b8c: 35 31 35 32  	andi	$21, $17, 0x3135
80030b90: 35 33 35 34  	ori	$21, $1, 0x3335
80030b94: 35 35 35 36  	ori	$21, $17, 0x3535
80030b98: 35 37 35 38  	xori	$21, $1, 0x3735
80030b9c: 35 39 36 30  	andi	$22, $1, 0x3935
80030ba0: 36 31 36 32  	andi	$22, $17, 0x3136
80030ba4: 36 33 36 34  	ori	$22, $1, 0x3336
80030ba8: 36 35 36 36  	ori	$22, $17, 0x3536
80030bac: 36 37 36 38  	xori	$22, $1, 0x3736
80030bb0: 36 39 37 30  	andi	$23, $1, 0x3936
80030bb4: 37 31 37 32  	andi	$23, $17, 0x3137
80030bb8: 37 33 37 34  	ori	$23, $1, 0x3337
80030bbc: 37 35 37 36  	ori	$23, $17, 0x3537
80030bc0: 37 37 37 38  	xori	$23, $1, 0x3737
80030bc4: 37 39 38 30  	andi	$24, $1, 0x3937
80030bc8: 38 31 38 32  	andi	$24, $17, 0x3138
80030bcc: 38 33 38 34  	ori	$24, $1, 0x3338
80030bd0: 38 35 38 36  	ori	$24, $17, 0x3538
80030bd4: 38 37 38 38  	xori	$24, $1, 0x3738
80030bd8: 38 39 39 30  	andi	$25, $1, 0x3938
80030bdc: 39 31 39 32  	andi	$25, $17, 0x3139
80030be0: 39 33 39 34  	ori	$25, $1, 0x3339
80030be4: 39 35 39 36  	ori	$25, $17, 0x3539
80030be8: 39 37 39 38  	xori	$25, $1, 0x3739
80030bec: 39 39 00 00  	<unknown>
80030bf0: 26 0b 03 80  	lb	$3, 0xb26($zero)
80030bf4: 6e 75 6d 62  	<unknown>
80030bf8: 65 72 20 6e  	<unknown>
80030bfc: 6f 74 20 69  	<unknown>
80030c00: 6e 20 74 68  	<unknown>
80030c04: 65 20 72 61  	<unknown>
80030c08: 6e 67 65 20  	addi	$5, $3, 0x676e
80030c0c: 30 2e 2e 3d  	<unknown>
80030c10: 3a 20 00 00  	<unknown>
80030c14: f4 0b 03 80  	lb	$3, 0xbf4($zero)
80030c18: 1c 00 00 00  	<unknown>
80030c1c: 10 0c 03 80  	lb	$3, 0xc10($zero)
80030c20: 02 00 00 00  	srl	$zero, $zero, 0x0
80030c24: 0f 00 00 00  	sync
80030c28: 30 0a 03 80  	lb	$3, 0xa30($zero)
80030c2c: 73 00 00 00  	tltu	$zero, $zero, 0x1
80030c30: 98 00 00 00  	<unknown>
80030c34: 01 00 00 00  	movf	$zero, $zero, $fcc0
80030c38: 30 0a 03 80  	lb	$3, 0xa30($zero)
80030c3c: 73 00 00 00  	tltu	$zero, $zero, 0x1
80030c40: 98 00 00 00  	<unknown>
80030c44: 51 00 00 00  	<unknown>
80030c48: 30 0a 03 80  	lb	$3, 0xa30($zero)
80030c4c: 73 00 00 00  	tltu	$zero, $zero, 0x1
80030c50: 98 00 00 00  	<unknown>
80030c54: 4a 00 00 00  	<unknown>
80030c58: 30 0a 03 80  	lb	$3, 0xa30($zero)
80030c5c: 73 00 00 00  	tltu	$zero, $zero, 0x1
80030c60: 98 00 00 00  	<unknown>
80030c64: 2f 00 00 00  	<unknown>
80030c68: 2f 68 6f 6d  	<unknown>
80030c6c: 65 2f 74 68  	<unknown>
80030c70: 69 61 6d 69  	<unknown>
80030c74: 6e 65 2f 2e  	sltiu	$15, $17, 0x656e
80030c78: 72 75 73 74  	jalx	0x1cdd5c8
80030c7c: 75 70 2f 74  	jalx	0xbdc1d4
80030c80: 6f 6f 6c 63  	<unknown>
80030c84: 68 61 69 6e  	<unknown>
80030c88: 73 2f 6e 69  	<unknown>
80030c8c: 67 68 74 6c  	<unknown>
80030c90: 79 2d 78 38  	xori	$24, $3, 0x2d79
80030c94: 36 5f 36 34  	ori	$22, $1, 0x5f36
80030c98: 2d 75 6e 6b  	<unknown>
80030c9c: 6e 6f 77 6e  	<unknown>
80030ca0: 2d 6c 69 6e  	<unknown>
80030ca4: 75 78 2d 67  	<unknown>
80030ca8: 6e 75 2f 6c  	<unknown>
80030cac: 69 62 2f 72  	<unknown>
80030cb0: 75 73 74 6c  	<unknown>
80030cb4: 69 62 2f 73  	<unknown>
80030cb8: 72 63 2f 72  	<unknown>
80030cbc: 75 73 74 2f  	sltiu	$20, $27, 0x7375
80030cc0: 6c 69 62 72  	<unknown>
80030cc4: 61 72 79 2f  	sltiu	$25, $27, 0x7261
80030cc8: 63 6f 72 65  	<unknown>
80030ccc: 2f 73 72 63  	<unknown>
80030cd0: 2f 6e 75 6d  	<unknown>
80030cd4: 2f 6d 6f 64  	<unknown>
80030cd8: 2e 72 73 00  	<unknown>
80030cdc: 68 0c 03 80  	lb	$3, 0xc68($zero)
80030ce0: 73 00 00 00  	tltu	$zero, $zero, 0x1
80030ce4: 4f 01 00 00  	sync 0x5
80030ce8: 05 00 00 00  	<unknown>
80030cec: 68 0c 03 80  	lb	$3, 0xc68($zero)
80030cf0: 73 00 00 00  	tltu	$zero, $zero, 0x1
80030cf4: dc 04 00 00  	<unknown>
80030cf8: 05 00 00 00  	<unknown>
80030cfc: 2f 68 6f 6d  	<unknown>
80030d00: 65 2f 74 68  	<unknown>
80030d04: 69 61 6d 69  	<unknown>
80030d08: 6e 65 2f 2e  	sltiu	$15, $17, 0x656e
80030d0c: 72 75 73 74  	jalx	0x1cdd5c8
80030d10: 75 70 2f 74  	jalx	0xbdc1d4
80030d14: 6f 6f 6c 63  	<unknown>
80030d18: 68 61 69 6e  	<unknown>
80030d1c: 73 2f 6e 69  	<unknown>
80030d20: 67 68 74 6c  	<unknown>
80030d24: 79 2d 78 38  	xori	$24, $3, 0x2d79
80030d28: 36 5f 36 34  	ori	$22, $1, 0x5f36
80030d2c: 2d 75 6e 6b  	<unknown>
80030d30: 6e 6f 77 6e  	<unknown>
80030d34: 2d 6c 69 6e  	<unknown>
80030d38: 75 78 2d 67  	<unknown>
80030d3c: 6e 75 2f 6c  	<unknown>
80030d40: 69 62 2f 72  	<unknown>
80030d44: 75 73 74 6c  	<unknown>
80030d48: 69 62 2f 73  	<unknown>
80030d4c: 72 63 2f 72  	<unknown>
80030d50: 75 73 74 2f  	sltiu	$20, $27, 0x7375
80030d54: 6c 69 62 72  	<unknown>
80030d58: 61 72 79 2f  	sltiu	$25, $27, 0x7261
80030d5c: 63 6f 72 65  	<unknown>
80030d60: 2f 73 72 63  	<unknown>
80030d64: 2f 73 6c 69  	<unknown>
80030d68: 63 65 2f 69  	<unknown>
80030d6c: 74 65 72 2e  	sltiu	$18, $19, 0x6574
80030d70: 72 73 00 00  	tlt	$zero, $zero, 0x1cd
80030d74: fc 0c 03 80  	lb	$3, 0xcfc($zero)
80030d78: 76 00 00 00  	tne	$zero, $zero, 0x1
80030d7c: ce 05 00 00  	<unknown>
80030d80: 25 00 00 00  	move	$zero, $zero
80030d84: 75 6e 73 61  	<unknown>
80030d88: 66 65 20 70  	<unknown>
80030d8c: 72 65 63 6f  	<unknown>
80030d90: 6e 64 69 74  	jalx	0x1a591b8
80030d94: 69 6f 6e 28  	slti	$14, $3, 0x6f69
80030d98: 73 29 20 76  	jalx	0x880a5cc
80030d9c: 69 6f 6c 61  	<unknown>
80030da0: 74 65 64 3a  	xori	$4, $19, 0x6574
80030da4: 20 4e 6f 6e  	<unknown>
80030da8: 5a 65 72 6f  	<unknown>
80030dac: 3a 3a 6e 65  	<unknown>
80030db0: 77 5f 75 6e  	<unknown>
80030db4: 63 68 65 63  	<unknown>
80030db8: 6b 65 64 20  	addi	$4, $3, 0x656b
80030dbc: 72 65 71 75  	jalx	0x5c595c8
80030dc0: 69 72 65 73  	<unknown>
80030dc4: 20 74 68 65  	<unknown>
80030dc8: 20 61 72 67  	<unknown>
80030dcc: 75 6d 65 6e  	<unknown>
80030dd0: 74 20 74 6f  	<unknown>
80030dd4: 20 62 65 20  	addi	$5, $3, 0x6220
80030dd8: 6e 6f 6e 2d  	sltiu	$14, $11, 0x6f6e
80030ddc: 7a 65 72 6f  	<unknown>
80030de0: 75 6e 73 61  	<unknown>
80030de4: 66 65 20 70  	<unknown>
80030de8: 72 65 63 6f  	<unknown>
80030dec: 6e 64 69 74  	jalx	0x1a591b8
80030df0: 69 6f 6e 28  	slti	$14, $3, 0x6f69
80030df4: 73 29 20 76  	jalx	0x880a5cc
80030df8: 69 6f 6c 61  	<unknown>
80030dfc: 74 65 64 3a  	xori	$4, $19, 0x6574
80030e00: 20 73 74 72  	<unknown>
80030e04: 3a 3a 67 65  	<unknown>
80030e08: 74 5f 75 6e  	<unknown>
80030e0c: 63 68 65 63  	<unknown>
80030e10: 6b 65 64 20  	addi	$4, $3, 0x656b
80030e14: 72 65 71 75  	jalx	0x5c595c8
80030e18: 69 72 65 73  	<unknown>
80030e1c: 20 74 68 61  	<unknown>
80030e20: 74 20 74 68  	<unknown>
80030e24: 65 20 72 61  	<unknown>
80030e28: 6e 67 65 20  	addi	$5, $3, 0x676e
80030e2c: 69 73 20 77  	jalx	0xc81cda4
80030e30: 69 74 68 69  	<unknown>
80030e34: 6e 20 74 68  	<unknown>
80030e38: 65 20 73 74  	jalx	0x1cc8194
80030e3c: 72 69 6e 67  	<unknown>
80030e40: 20 73 6c 69  	<unknown>
80030e44: 63 65 2f 68  	<unknown>
80030e48: 6f 6d 65 2f  	sltiu	$5, $27, 0x6d6f
80030e4c: 74 68 69 61  	<unknown>
80030e50: 6d 69 6e 65  	<unknown>
80030e54: 2f 2e 72 75  	jalx	0x5c8b8bc
80030e58: 73 74 75 70  	<unknown>
80030e5c: 2f 74 6f 6f  	<unknown>
80030e60: 6c 63 68 61  	<unknown>
80030e64: 69 6e 73 2f  	sltiu	$19, $27, 0x6e69
80030e68: 6e 69 67 68  	<unknown>
80030e6c: 74 6c 79 2d  	sltiu	$25, $11, 0x6c74
80030e70: 78 38 36 5f  	<unknown>
80030e74: 36 34 2d 75  	jalx	0x4b4d0d8
80030e78: 6e 6b 6e 6f  	<unknown>
80030e7c: 77 6e 2d 6c  	<unknown>
80030e80: 69 6e 75 78  	<unknown>
80030e84: 2d 67 6e 75  	jalx	0x5b99cb4
80030e88: 2f 6c 69 62  	<unknown>
80030e8c: 2f 72 75 73  	<unknown>
80030e90: 74 6c 69 62  	<unknown>
80030e94: 2f 73 72 63  	<unknown>
80030e98: 2f 72 75 73  	<unknown>
80030e9c: 74 2f 6c 69  	<unknown>
80030ea0: 62 72 61 72  	<unknown>
80030ea4: 79 2f 63 6f  	<unknown>
80030ea8: 72 65 2f 73  	<unknown>
80030eac: 72 63 2f 69  	<unknown>
80030eb0: 74 65 72 2f  	sltiu	$18, $27, 0x6574
80030eb4: 61 64 61 70  	<unknown>
80030eb8: 74 65 72 73  	<unknown>
80030ebc: 2f 65 6e 75  	jalx	0x5b994bc
80030ec0: 6d 65 72 61  	<unknown>
80030ec4: 74 65 2e 72  	<unknown>
80030ec8: 73 00 00 00  	tltu	$zero, $zero, 0x1
80030ecc: 46 0e 03 80  	lb	$3, 0xe46($zero)
80030ed0: 83 00 00 00  	sra	$zero, $zero, 0x2
80030ed4: 31 00 00 00  	tgeu	$zero, $zero
80030ed8: 09 00 00 00  	jr	$zero
80030edc: ac 66 02 80  	lb	$2, 0x66ac($zero)
80030ee0: 00 00 00 00  	nop
80030ee4: 01 00 00 00  	movf	$zero, $zero, $fcc0
80030ee8: d8 66 02 80  	lb	$2, 0x66d8($zero)
80030eec: 70 61 6e 69  	<unknown>
80030ef0: 63 6b 65 64  	<unknown>
80030ef4: 20 61 74 20  	addi	$20, $3, 0x6120
80030ef8: 3a 0a 2f 68  	<unknown>
80030efc: 6f 6d 65 2f  	sltiu	$5, $27, 0x6d6f
80030f00: 74 68 69 61  	<unknown>
80030f04: 6d 69 6e 65  	<unknown>
80030f08: 2f 2e 72 75  	jalx	0x5c8b8bc
80030f0c: 73 74 75 70  	<unknown>
80030f10: 2f 74 6f 6f  	<unknown>
80030f14: 6c 63 68 61  	<unknown>
80030f18: 69 6e 73 2f  	sltiu	$19, $27, 0x6e69
80030f1c: 6e 69 67 68  	<unknown>
80030f20: 74 6c 79 2d  	sltiu	$25, $11, 0x6c74
80030f24: 78 38 36 5f  	<unknown>
80030f28: 36 34 2d 75  	jalx	0x4b4d0d8
80030f2c: 6e 6b 6e 6f  	<unknown>
80030f30: 77 6e 2d 6c  	<unknown>
80030f34: 69 6e 75 78  	<unknown>
80030f38: 2d 67 6e 75  	jalx	0x5b99cb4
80030f3c: 2f 6c 69 62  	<unknown>
80030f40: 2f 72 75 73  	<unknown>
80030f44: 74 6c 69 62  	<unknown>
80030f48: 2f 73 72 63  	<unknown>
80030f4c: 2f 72 75 73  	<unknown>
80030f50: 74 2f 6c 69  	<unknown>
80030f54: 62 72 61 72  	<unknown>
80030f58: 79 2f 63 6f  	<unknown>
80030f5c: 72 65 2f 73  	<unknown>
80030f60: 72 63 2f 70  	<unknown>
80030f64: 61 6e 69 63  	<unknown>
80030f68: 2f 70 61 6e  	<unknown>
80030f6c: 69 63 5f 69  	<unknown>
80030f70: 6e 66 6f 2e  	sltiu	$15, $19, 0x666e
80030f74: 72 73 00 00  	tlt	$zero, $zero, 0x1cd
80030f78: fa 0e 03 80  	lb	$3, 0xefa($zero)
80030f7c: 7c 00 00 00  	<unknown>
80030f80: a7 00 00 00  	<unknown>
80030f84: 0d 00 00 00  	break
80030f88: fa 0e 03 80  	lb	$3, 0xefa($zero)
80030f8c: 7c 00 00 00  	<unknown>
80030f90: a6 00 00 00  	<unknown>
80030f94: 0d 00 00 00  	break
80030f98: fa 0e 03 80  	lb	$3, 0xefa($zero)
80030f9c: 7c 00 00 00  	<unknown>
80030fa0: aa 00 00 00  	<unknown>
80030fa4: 0d 00 00 00  	break
80030fa8: fa 0e 03 80  	lb	$3, 0xefa($zero)
80030fac: 7c 00 00 00  	<unknown>
80030fb0: a9 00 00 00  	<unknown>
80030fb4: 0d 00 00 00  	break
80030fb8: fa 0e 03 80  	lb	$3, 0xefa($zero)
80030fbc: 7c 00 00 00  	<unknown>
80030fc0: a4 00 00 00  	<unknown>
80030fc4: 09 00 00 00  	jr	$zero
80030fc8: fa 0e 03 80  	lb	$3, 0xefa($zero)
80030fcc: 7c 00 00 00  	<unknown>
80030fd0: a3 00 00 00  	<unknown>
80030fd4: 09 00 00 00  	jr	$zero
80030fd8: fa 0e 03 80  	lb	$3, 0xefa($zero)
80030fdc: 7c 00 00 00  	<unknown>
80030fe0: a2 00 00 00  	<unknown>
80030fe4: 09 00 00 00  	jr	$zero
80030fe8: 61 73 73 65  	<unknown>
80030fec: 72 74 69 6f  	<unknown>
80030ff0: 6e 20 66 61  	<unknown>
80030ff4: 69 6c 65 64  	<unknown>
80030ff8: 3a 20 63 72  	<unknown>
80030ffc: 61 74 65 3a  	xori	$5, $19, 0x7461
80031000: 3a 6d 65 6d  	<unknown>
80031004: 3a 3a 73 69  	<unknown>
80031008: 7a 65 5f 6f  	<unknown>
8003100c: 66 3a 3a 3c  	<unknown>
80031010: 75 33 32 3e  	<unknown>
80031014: 28 29 20 3e  	<unknown>
80031018: 3d 20 32 2f  	sltiu	$18, $25, 0x203d
8003101c: 68 6f 6d 65  	<unknown>
80031020: 2f 74 68 69  	<unknown>
80031024: 61 6d 69 6e  	<unknown>
80031028: 65 2f 2e 72  	<unknown>
8003102c: 75 73 74 75  	jalx	0x5d1cdd4
80031030: 70 2f 74 6f  	<unknown>
80031034: 6f 6c 63 68  	<unknown>
80031038: 61 69 6e 73  	<unknown>
8003103c: 2f 6e 69 67  	<unknown>
80031040: 68 74 6c 79  	<unknown>
80031044: 2d 78 38 36  	ori	$24, $17, 0x782d
80031048: 5f 36 34 2d  	sltiu	$20, $9, 0x365f
8003104c: 75 6e 6b 6e  	<unknown>
80031050: 6f 77 6e 2d  	sltiu	$14, $11, 0x776f
80031054: 6c 69 6e 75  	jalx	0x5b9a5b0
80031058: 78 2d 67 6e  	<unknown>
8003105c: 75 2f 6c 69  	<unknown>
80031060: 62 2f 72 75  	jalx	0x5c8bd88
80031064: 73 74 6c 69  	<unknown>
80031068: 62 2f 73 72  	<unknown>
8003106c: 63 2f 72 75  	jalx	0x5c8bd8c
80031070: 73 74 2f 6c  	<unknown>
80031074: 69 62 72 61  	<unknown>
80031078: 72 79 2f 63  	<unknown>
8003107c: 6f 72 65 2f  	sltiu	$5, $27, 0x726f
80031080: 73 72 63 2f  	sltiu	$3, $27, 0x7273
80031084: 66 6d 74 2f  	sltiu	$20, $27, 0x6d66
80031088: 6e 75 6d 2e  	sltiu	$13, $19, 0x756e
8003108c: 72 73 00 00  	tlt	$zero, $zero, 0x1cd
80031090: 1b 10 03 80  	lb	$3, 0x101b($zero)
80031094: 73 00 00 00  	tltu	$zero, $zero, 0x1
80031098: e4 01 00 00  	<unknown>
8003109c: 05 00 00 00  	<unknown>
800310a0: 2f 68 6f 6d  	<unknown>
800310a4: 65 2f 74 68  	<unknown>
800310a8: 69 61 6d 69  	<unknown>
800310ac: 6e 65 2f 2e  	sltiu	$15, $17, 0x656e
800310b0: 72 75 73 74  	jalx	0x1cdd5c8
800310b4: 75 70 2f 74  	jalx	0xbdc1d4
800310b8: 6f 6f 6c 63  	<unknown>
800310bc: 68 61 69 6e  	<unknown>
800310c0: 73 2f 6e 69  	<unknown>
800310c4: 67 68 74 6c  	<unknown>
800310c8: 79 2d 78 38  	xori	$24, $3, 0x2d79
800310cc: 36 5f 36 34  	ori	$22, $1, 0x5f36
800310d0: 2d 75 6e 6b  	<unknown>
800310d4: 6e 6f 77 6e  	<unknown>
800310d8: 2d 6c 69 6e  	<unknown>
800310dc: 75 78 2d 67  	<unknown>
800310e0: 6e 75 2f 6c  	<unknown>
800310e4: 69 62 2f 72  	<unknown>
800310e8: 75 73 74 6c  	<unknown>
800310ec: 69 62 2f 73  	<unknown>
800310f0: 72 63 2f 72  	<unknown>
800310f4: 75 73 74 2f  	sltiu	$20, $27, 0x7375
800310f8: 6c 69 62 72  	<unknown>
800310fc: 61 72 79 2f  	sltiu	$25, $27, 0x7261
80031100: 63 6f 72 65  	<unknown>
80031104: 2f 73 72 63  	<unknown>
80031108: 2f 70 74 72  	<unknown>
8003110c: 2f 6d 6f 64  	<unknown>
80031110: 2e 72 73 00  	<unknown>
80031114: a0 10 03 80  	lb	$3, 0x10a0($zero)
80031118: 73 00 00 00  	tltu	$zero, $zero, 0x1
8003111c: 1a 07 00 00  	<unknown>
80031120: 1b 00 00 00  	divu	$zero, $zero, $zero
80031124: 61 73 73 65  	<unknown>
80031128: 72 74 69 6f  	<unknown>
8003112c: 6e 20 66 61  	<unknown>
80031130: 69 6c 65 64  	<unknown>
80031134: 3a 20 73 65  	<unknown>
80031138: 6c 66 2e 69  	<unknown>
8003113c: 73 3a 3a 3c  	<unknown>
80031140: 54 3e 28 29  	slti	$8, $9, 0x3e54
80031144: 69 6e 64 65  	<unknown>
80031148: 78 20 6f 75  	jalx	0x5bc81e0
8003114c: 74 20 6f 66  	<unknown>
80031150: 20 62 6f 75  	jalx	0x5bd8880
80031154: 6e 64 73 3a  	xori	$19, $19, 0x646e
80031158: 20 74 68 65  	<unknown>
8003115c: 20 6c 65 6e  	<unknown>
80031160: 20 69 73 20  	addi	$19, $3, 0x6920
80031164: 61 73 73 65  	<unknown>
80031168: 72 74 69 6f  	<unknown>
8003116c: 6e 20 66 61  	<unknown>
80031170: 69 6c 65 64  	<unknown>
80031174: 3a 20 69 20  	addi	$9, $3, 0x203a
80031178: 3c 20 61 72  	<unknown>
8003117c: 67 73 2e 6c  	<unknown>
80031180: 65 6e 28 29  	slti	$8, $9, 0x6e65
80031184: 2f 68 6f 6d  	<unknown>
80031188: 65 2f 74 68  	<unknown>
8003118c: 69 61 6d 69  	<unknown>
80031190: 6e 65 2f 2e  	sltiu	$15, $17, 0x656e
80031194: 72 75 73 74  	jalx	0x1cdd5c8
80031198: 75 70 2f 74  	jalx	0xbdc1d4
8003119c: 6f 6f 6c 63  	<unknown>
800311a0: 68 61 69 6e  	<unknown>
800311a4: 73 2f 6e 69  	<unknown>
800311a8: 67 68 74 6c  	<unknown>
800311ac: 79 2d 78 38  	xori	$24, $3, 0x2d79
800311b0: 36 5f 36 34  	ori	$22, $1, 0x5f36
800311b4: 2d 75 6e 6b  	<unknown>
800311b8: 6e 6f 77 6e  	<unknown>
800311bc: 2d 6c 69 6e  	<unknown>
800311c0: 75 78 2d 67  	<unknown>
800311c4: 6e 75 2f 6c  	<unknown>
800311c8: 69 62 2f 72  	<unknown>
800311cc: 75 73 74 6c  	<unknown>
800311d0: 69 62 2f 73  	<unknown>
800311d4: 72 63 2f 72  	<unknown>
800311d8: 75 73 74 2f  	sltiu	$20, $27, 0x7375
800311dc: 6c 69 62 72  	<unknown>
800311e0: 61 72 79 2f  	sltiu	$25, $27, 0x7261
800311e4: 63 6f 72 65  	<unknown>
800311e8: 2f 73 72 63  	<unknown>
800311ec: 2f 61 6e 79  	<unknown>
800311f0: 2e 72 73 00  	<unknown>
800311f4: 84 11 03 80  	lb	$3, 0x1184($zero)
800311f8: 6f 00 00 00  	<unknown>
800311fc: 29 01 00 00  	<unknown>
80031200: 09 00 00 00  	jr	$zero
80031204: 63 68 75 6e  	<unknown>
80031208: 6b 20 73 69  	<unknown>
8003120c: 7a 65 20 6d  	<unknown>
80031210: 75 73 74 20  	addi	$20, $3, 0x7375
80031214: 62 65 20 6e  	<unknown>
80031218: 6f 6e 2d 7a  	<unknown>
8003121c: 65 72 6f 00  	<unknown>
80031220: 04 12 03 80  	lb	$3, 0x1204($zero)
80031224: 1b 00 00 00  	divu	$zero, $zero, $zero
80031228: 6d 69 64 20  	addi	$4, $3, 0x696d
8003122c: 3e 20 6c 65  	<unknown>
80031230: 6e 00 00 00  	<unknown>
80031234: 28 12 03 80  	lb	$3, 0x1228($zero)
80031238: 09 00 00 00  	jr	$zero
8003123c: 2f 68 6f 6d  	<unknown>
80031240: 65 2f 74 68  	<unknown>
80031244: 69 61 6d 69  	<unknown>
80031248: 6e 65 2f 2e  	sltiu	$15, $17, 0x656e
8003124c: 72 75 73 74  	jalx	0x1cdd5c8
80031250: 75 70 2f 74  	jalx	0xbdc1d4
80031254: 6f 6f 6c 63  	<unknown>
80031258: 68 61 69 6e  	<unknown>
8003125c: 73 2f 6e 69  	<unknown>
80031260: 67 68 74 6c  	<unknown>
80031264: 79 2d 78 38  	xori	$24, $3, 0x2d79
80031268: 36 5f 36 34  	ori	$22, $1, 0x5f36
8003126c: 2d 75 6e 6b  	<unknown>
80031270: 6e 6f 77 6e  	<unknown>
80031274: 2d 6c 69 6e  	<unknown>
80031278: 75 78 2d 67  	<unknown>
8003127c: 6e 75 2f 6c  	<unknown>
80031280: 69 62 2f 72  	<unknown>
80031284: 75 73 74 6c  	<unknown>
80031288: 69 62 2f 73  	<unknown>
8003128c: 72 63 2f 72  	<unknown>
80031290: 75 73 74 2f  	sltiu	$20, $27, 0x7375
80031294: 6c 69 62 72  	<unknown>
80031298: 61 72 79 2f  	sltiu	$25, $27, 0x7261
8003129c: 63 6f 72 65  	<unknown>
800312a0: 2f 73 72 63  	<unknown>
800312a4: 2f 73 6c 69  	<unknown>
800312a8: 63 65 2f 6d  	<unknown>
800312ac: 6f 64 2e 72  	<unknown>
800312b0: 73 00 00 00  	tltu	$zero, $zero, 0x1
800312b4: 3c 12 03 80  	lb	$3, 0x123c($zero)
800312b8: 75 00 00 00  	<unknown>
800312bc: c2 07 00 00  	srl	$zero, $zero, 0x1f
800312c0: 4a 00 00 00  	<unknown>
800312c4: 3c 12 03 80  	lb	$3, 0x123c($zero)
800312c8: 75 00 00 00  	<unknown>
800312cc: ca 0e 00 00  	<unknown>
800312d0: 16 00 00 00  	<unknown>
800312d4: 3c 12 03 80  	lb	$3, 0x123c($zero)
800312d8: 75 00 00 00  	<unknown>
800312dc: cc 0e 00 00  	syscall	0x3b
800312e0: 16 00 00 00  	<unknown>
800312e4: 3c 12 03 80  	lb	$3, 0x123c($zero)
800312e8: 75 00 00 00  	<unknown>
800312ec: fd 0e 00 00  	<unknown>
800312f0: 25 00 00 00  	move	$zero, $zero
800312f4: 3c 12 03 80  	lb	$3, 0x123c($zero)
800312f8: 75 00 00 00  	<unknown>
800312fc: 0b 0f 00 00  	<unknown>
80031300: 36 00 00 00  	tne	$zero, $zero
80031304: 75 6e 73 61  	<unknown>
80031308: 66 65 20 70  	<unknown>
8003130c: 72 65 63 6f  	<unknown>
80031310: 6e 64 69 74  	jalx	0x1a591b8
80031314: 69 6f 6e 28  	slti	$14, $3, 0x6f69
80031318: 73 29 20 76  	jalx	0x880a5cc
8003131c: 69 6f 6c 61  	<unknown>
80031320: 74 65 64 3a  	xori	$4, $19, 0x6574
80031324: 20 70 74 72  	clz	$fp, $19
80031328: 3a 3a 72 65  	<unknown>
8003132c: 61 64 20 72  	<unknown>
80031330: 65 71 75 69  	<unknown>
80031334: 72 65 73 20  	addi	$19, $3, 0x6572
80031338: 74 68 61 74  	jalx	0x185a1d0
8003133c: 20 74 68 65  	<unknown>
80031340: 20 70 6f 69  	<unknown>
80031344: 6e 74 65 72  	<unknown>
80031348: 20 61 72 67  	<unknown>
8003134c: 75 6d 65 6e  	<unknown>
80031350: 74 20 69 73  	<unknown>
80031354: 20 61 6c 69  	<unknown>
80031358: 67 6e 65 64  	<unknown>
8003135c: 20 61 6e 64  	<unknown>
80031360: 20 6e 6f 6e  	<unknown>
80031364: 2d 6e 75 6c  	<unknown>
80031368: 6c 75 6e 73  	<unknown>
8003136c: 61 66 65 20  	addi	$5, $3, 0x6661
80031370: 70 72 65 63  	<unknown>
80031374: 6f 6e 64 69  	<unknown>
80031378: 74 69 6f 6e  	<unknown>
8003137c: 28 73 29 20  	addi	$9, $1, 0x7328
80031380: 76 69 6f 6c  	<unknown>
80031384: 61 74 65 64  	<unknown>
80031388: 3a 20 70 74  	jalx	0x1c080e8
8003138c: 72 3a 3a 77  	jalx	0xce8e9c8
80031390: 72 69 74 65  	<unknown>
80031394: 20 72 65 71  	<unknown>
80031398: 75 69 72 65  	<unknown>
8003139c: 73 20 74 68  	<unknown>
800313a0: 61 74 20 74  	jalx	0x81d184
800313a4: 68 65 20 70  	<unknown>
800313a8: 6f 69 6e 74  	jalx	0x1b9a5bc
800313ac: 65 72 20 61  	<unknown>
800313b0: 72 67 75 6d  	<unknown>
800313b4: 65 6e 74 20  	addi	$20, $3, 0x6e65
800313b8: 69 73 20 61  	<unknown>
800313bc: 6c 69 67 6e  	<unknown>
800313c0: 65 64 20 61  	<unknown>
800313c4: 6e 64 20 6e  	<unknown>
800313c8: 6f 6e 2d 6e  	<unknown>
800313cc: 75 6c 6c 75  	jalx	0x5b1b1d4
800313d0: 6e 73 61 66  	<unknown>
800313d4: 65 20 70 72  	<unknown>
800313d8: 65 63 6f 6e  	<unknown>
800313dc: 64 69 74 69  	<unknown>
800313e0: 6f 6e 28 73  	<unknown>
800313e4: 29 20 76 69  	<unknown>
800313e8: 6f 6c 61 74  	jalx	0x185b1bc
800313ec: 65 64 3a 20  	addi	$26, $1, 0x6465
800313f0: 70 74 72 3a  	xori	$18, $19, 0x7470
800313f4: 3a 72 65 61  	<unknown>
800313f8: 64 5f 76 6f  	<unknown>
800313fc: 6c 61 74 69  	<unknown>
80031400: 6c 65 20 72  	<unknown>
80031404: 65 71 75 69  	<unknown>
80031408: 72 65 73 20  	addi	$19, $3, 0x6572
8003140c: 74 68 61 74  	jalx	0x185a1d0
80031410: 20 74 68 65  	<unknown>
80031414: 20 70 6f 69  	<unknown>
80031418: 6e 74 65 72  	<unknown>
8003141c: 20 61 72 67  	<unknown>
80031420: 75 6d 65 6e  	<unknown>
80031424: 74 20 69 73  	<unknown>
80031428: 20 61 6c 69  	<unknown>
8003142c: 67 6e 65 64  	<unknown>
80031430: 20 61 6e 64  	<unknown>
80031434: 20 6e 6f 6e  	<unknown>
80031438: 2d 6e 75 6c  	<unknown>
8003143c: 6c 75 6e 73  	<unknown>
80031440: 61 66 65 20  	addi	$5, $3, 0x6661
80031444: 70 72 65 63  	<unknown>
80031448: 6f 6e 64 69  	<unknown>
8003144c: 74 69 6f 6e  	<unknown>
80031450: 28 73 29 20  	addi	$9, $1, 0x7328
80031454: 76 69 6f 6c  	<unknown>
80031458: 61 74 65 64  	<unknown>
8003145c: 3a 20 73 6c  	<unknown>
80031460: 69 63 65 3a  	xori	$5, $19, 0x6369
80031464: 3a 66 72 6f  	<unknown>
80031468: 6d 5f 72 61  	<unknown>
8003146c: 77 5f 70 61  	<unknown>
80031470: 72 74 73 20  	addi	$19, $3, 0x7472
80031474: 72 65 71 75  	jalx	0x5c595c8
80031478: 69 72 65 73  	<unknown>
8003147c: 20 74 68 65  	<unknown>
80031480: 20 70 6f 69  	<unknown>
80031484: 6e 74 65 72  	<unknown>
80031488: 20 74 6f 20  	addi	$15, $3, 0x7420
8003148c: 62 65 20 61  	<unknown>
80031490: 6c 69 67 6e  	<unknown>
80031494: 65 64 20 61  	<unknown>
80031498: 6e 64 20 6e  	<unknown>
8003149c: 6f 6e 2d 6e  	<unknown>
800314a0: 75 6c 6c 2c  	sltiu	$12, $3, 0x6c75
800314a4: 20 61 6e 64  	<unknown>
800314a8: 20 74 68 65  	<unknown>
800314ac: 20 74 6f 74  	jalx	0x1bdd080
800314b0: 61 6c 20 73  	<unknown>
800314b4: 69 7a 65 20  	addi	$5, $3, 0x7a69
800314b8: 6f 66 20 74  	jalx	0x8199bc
800314bc: 68 65 20 73  	<unknown>
800314c0: 6c 69 63 65  	<unknown>
800314c4: 20 6e 6f 74  	jalx	0x1bdb880
800314c8: 20 74 6f 20  	addi	$15, $3, 0x7420
800314cc: 65 78 63 65  	<unknown>
800314d0: 65 64 20 60  	<unknown>
800314d4: 69 73 69 7a  	<unknown>
800314d8: 65 3a 3a 4d  	<unknown>
800314dc: 41 58 60 00  	<unknown>
800314e0: 3c 12 03 80  	lb	$3, 0x123c($zero)
800314e4: 75 00 00 00  	<unknown>
800314e8: 10 05 00 00  	<unknown>
800314ec: 42 00 00 00  	srl	$zero, $zero, 0x1
800314f0: 75 6e 73 61  	<unknown>
800314f4: 66 65 20 70  	<unknown>
800314f8: 72 65 63 6f  	<unknown>
800314fc: 6e 64 69 74  	jalx	0x1a591b8
80031500: 69 6f 6e 28  	slti	$14, $3, 0x6f69
80031504: 73 29 20 76  	jalx	0x880a5cc
80031508: 69 6f 6c 61  	<unknown>
8003150c: 74 65 64 3a  	xori	$4, $19, 0x6574
80031510: 20 73 6c 69  	<unknown>
80031514: 63 65 3a 3a  	xori	$26, $17, 0x6563
80031518: 61 73 5f 63  	<unknown>
8003151c: 68 75 6e 6b  	<unknown>
80031520: 73 5f 75 6e  	<unknown>
80031524: 63 68 65 63  	<unknown>
80031528: 6b 65 64 20  	addi	$4, $3, 0x656b
8003152c: 72 65 71 75  	jalx	0x5c595c8
80031530: 69 72 65 73  	<unknown>
80031534: 20 60 4e 20  	addi	$14, $2, 0x6020
80031538: 21 3d 20 30  	andi	$zero, $1, 0x3d21
8003153c: 60 20 61 6e  	<unknown>
80031540: 64 20 74 68  	<unknown>
80031544: 65 20 73 6c  	<unknown>
80031548: 69 63 65 20  	addi	$5, $3, 0x6369
8003154c: 74 6f 20 73  	<unknown>
80031550: 70 6c 69 74  	jalx	0x1a5b1c0
80031554: 20 65 78 61  	<unknown>
80031558: 63 74 6c 79  	<unknown>
8003155c: 20 69 6e 74  	jalx	0x1b9a480
80031560: 6f 20 60 4e  	<unknown>
80031564: 60 2d 65 6c  	<unknown>
80031568: 65 6d 65 6e  	<unknown>
8003156c: 74 20 63 68  	<unknown>
80031570: 75 6e 6b 73  	<unknown>
80031574: 75 6e 73 61  	<unknown>
80031578: 66 65 20 70  	<unknown>
8003157c: 72 65 63 6f  	<unknown>
80031580: 6e 64 69 74  	jalx	0x1a591b8
80031584: 69 6f 6e 28  	slti	$14, $3, 0x6f69
80031588: 73 29 20 76  	jalx	0x880a5cc
8003158c: 69 6f 6c 61  	<unknown>
80031590: 74 65 64 3a  	xori	$4, $19, 0x6574
80031594: 20 73 6c 69  	<unknown>
80031598: 63 65 3a 3a  	xori	$26, $17, 0x6563
8003159c: 73 70 6c 69  	<unknown>
800315a0: 74 5f 61 74  	jalx	0x1857dd0
800315a4: 5f 75 6e 63  	<unknown>
800315a8: 68 65 63 6b  	<unknown>
800315ac: 65 64 20 72  	<unknown>
800315b0: 65 71 75 69  	<unknown>
800315b4: 72 65 73 20  	addi	$19, $3, 0x6572
800315b8: 74 68 65 20  	addi	$5, $3, 0x6874
800315bc: 69 6e 64 65  	<unknown>
800315c0: 78 20 74 6f  	<unknown>
800315c4: 20 62 65 20  	addi	$5, $3, 0x6220
800315c8: 77 69 74 68  	<unknown>
800315cc: 69 6e 20 74  	jalx	0x81b9a4
800315d0: 68 65 20 73  	<unknown>
800315d4: 6c 69 63 65  	<unknown>
800315d8: 2f 68 6f 6d  	<unknown>
800315dc: 65 2f 74 68  	<unknown>
800315e0: 69 61 6d 69  	<unknown>
800315e4: 6e 65 2f 2e  	sltiu	$15, $17, 0x656e
800315e8: 72 75 73 74  	jalx	0x1cdd5c8
800315ec: 75 70 2f 74  	jalx	0xbdc1d4
800315f0: 6f 6f 6c 63  	<unknown>
800315f4: 68 61 69 6e  	<unknown>
800315f8: 73 2f 6e 69  	<unknown>
800315fc: 67 68 74 6c  	<unknown>
80031600: 79 2d 78 38  	xori	$24, $3, 0x2d79
80031604: 36 5f 36 34  	ori	$22, $1, 0x5f36
80031608: 2d 75 6e 6b  	<unknown>
8003160c: 6e 6f 77 6e  	<unknown>
80031610: 2d 6c 69 6e  	<unknown>
80031614: 75 78 2d 67  	<unknown>
80031618: 6e 75 2f 6c  	<unknown>
8003161c: 69 62 2f 72  	<unknown>
80031620: 75 73 74 6c  	<unknown>
80031624: 69 62 2f 73  	<unknown>
80031628: 72 63 2f 72  	<unknown>
8003162c: 75 73 74 2f  	sltiu	$20, $27, 0x7375
80031630: 6c 69 62 72  	<unknown>
80031634: 61 72 79 2f  	sltiu	$25, $27, 0x7261
80031638: 63 6f 72 65  	<unknown>
8003163c: 2f 73 72 63  	<unknown>
80031640: 2f 73 74 72  	<unknown>
80031644: 2f 63 6f 75  	jalx	0x5bd8cbc
80031648: 6e 74 2e 72  	<unknown>
8003164c: 73 00 00 00  	tltu	$zero, $zero, 0x1
80031650: d8 15 03 80  	lb	$3, 0x15d8($zero)
80031654: 75 00 00 00  	<unknown>
80031658: 1b 00 00 00  	divu	$zero, $zero, $zero
8003165c: 12 00 00 00  	mflo	$zero
80031660: d8 15 03 80  	lb	$3, 0x15d8($zero)
80031664: 75 00 00 00  	<unknown>
80031668: 47 00 00 00  	<unknown>
8003166c: 15 00 00 00  	<unknown>
80031670: d8 15 03 80  	lb	$3, 0x15d8($zero)
80031674: 75 00 00 00  	<unknown>
80031678: 4a 00 00 00  	<unknown>
8003167c: 17 00 00 00  	<unknown>
80031680: d8 15 03 80  	lb	$3, 0x15d8($zero)
80031684: 75 00 00 00  	<unknown>
80031688: 4f 00 00 00  	sync 0x1
8003168c: 32 00 00 00  	tlt	$zero, $zero
80031690: d8 15 03 80  	lb	$3, 0x15d8($zero)
80031694: 75 00 00 00  	<unknown>
80031698: 5a 00 00 00  	<unknown>
8003169c: 09 00 00 00  	jr	$zero
800316a0: d8 15 03 80  	lb	$3, 0x15d8($zero)
800316a4: 75 00 00 00  	<unknown>
800316a8: 66 00 00 00  	<unknown>
800316ac: 0d 00 00 00  	break
800316b0: d8 15 03 80  	lb	$3, 0x15d8($zero)
800316b4: 75 00 00 00  	<unknown>
800316b8: 64 00 00 00  	<unknown>
800316bc: 11 00 00 00  	mthi	$zero
800316c0: d8 15 03 80  	lb	$3, 0x15d8($zero)
800316c4: 75 00 00 00  	<unknown>
800316c8: 54 00 00 00  	<unknown>
800316cc: 11 00 00 00  	mthi	$zero
800316d0: d8 15 03 80  	lb	$3, 0x15d8($zero)
800316d4: 75 00 00 00  	<unknown>
800316d8: 7e 00 00 00  	<unknown>
800316dc: 1b 00 00 00  	divu	$zero, $zero, $zero
800316e0: d8 15 03 80  	lb	$3, 0x15d8($zero)
800316e4: 75 00 00 00  	<unknown>
800316e8: 7f 00 00 00  	<unknown>
800316ec: 2a 00 00 00  	slt	$zero, $zero, $zero
800316f0: d8 15 03 80  	lb	$3, 0x15d8($zero)
800316f4: 75 00 00 00  	<unknown>
800316f8: 7f 00 00 00  	<unknown>
800316fc: 05 00 00 00  	<unknown>
80031700: 72 61 6e 67  	<unknown>
80031704: 65 20 73 74  	jalx	0x1cc8194
80031708: 61 72 74 20  	addi	$20, $3, 0x7261
8003170c: 69 6e 64 65  	<unknown>
80031710: 78 20 20 6f  	<unknown>
80031714: 75 74 20 6f  	<unknown>
80031718: 66 20 72 61  	<unknown>
8003171c: 6e 67 65 20  	addi	$5, $3, 0x676e
80031720: 66 6f 72 20  	addi	$18, $3, 0x6f66
80031724: 73 6c 69 63  	<unknown>
80031728: 65 20 6f 66  	<unknown>
8003172c: 20 6c 65 6e  	<unknown>
80031730: 67 74 68 20  	addi	$8, $3, 0x7467
80031734: 00 17 03 80  	lb	$3, 0x1700($zero)
80031738: 12 00 00 00  	mflo	$zero
8003173c: 12 17 03 80  	lb	$3, 0x1712($zero)
80031740: 22 00 00 00  	neg	$zero, $zero
80031744: 72 61 6e 67  	<unknown>
80031748: 65 20 65 6e  	<unknown>
8003174c: 64 20 69 6e  	<unknown>
80031750: 64 65 78 20  	addi	$24, $3, 0x6564
80031754: 44 17 03 80  	lb	$3, 0x1744($zero)
80031758: 10 00 00 00  	mfhi	$zero
8003175c: 12 17 03 80  	lb	$3, 0x1712($zero)
80031760: 22 00 00 00  	neg	$zero, $zero
80031764: 73 6c 69 63  	<unknown>
80031768: 65 20 69 6e  	<unknown>
8003176c: 64 65 78 20  	addi	$24, $3, 0x6564
80031770: 73 74 61 72  	<unknown>
80031774: 74 73 20 61  	<unknown>
80031778: 74 20 20 62  	<unknown>
8003177c: 75 74 20 65  	<unknown>
80031780: 6e 64 73 20  	addi	$19, $3, 0x646e
80031784: 61 74 20 00  	<unknown>
80031788: 64 17 03 80  	lb	$3, 0x1764($zero)
8003178c: 16 00 00 00  	<unknown>
80031790: 7a 17 03 80  	lb	$3, 0x177a($zero)
80031794: 0d 00 00 00  	break
80031798: 75 6e 73 61  	<unknown>
8003179c: 66 65 20 70  	<unknown>
800317a0: 72 65 63 6f  	<unknown>
800317a4: 6e 64 69 74  	jalx	0x1a591b8
800317a8: 69 6f 6e 28  	slti	$14, $3, 0x6f69
800317ac: 73 29 20 76  	jalx	0x880a5cc
800317b0: 69 6f 6c 61  	<unknown>
800317b4: 74 65 64 3a  	xori	$4, $19, 0x6574
800317b8: 20 73 6c 69  	<unknown>
800317bc: 63 65 3a 3a  	xori	$26, $17, 0x6563
800317c0: 67 65 74 5f  	<unknown>
800317c4: 75 6e 63 68  	<unknown>
800317c8: 65 63 6b 65  	<unknown>
800317cc: 64 20 72 65  	<unknown>
800317d0: 71 75 69 72  	<unknown>
800317d4: 65 73 20 74  	jalx	0x81cd94
800317d8: 68 61 74 20  	addi	$20, $3, 0x6168
800317dc: 74 68 65 20  	addi	$5, $3, 0x6874
800317e0: 69 6e 64 65  	<unknown>
800317e4: 78 20 69 73  	<unknown>
800317e8: 20 77 69 74  	jalx	0x1a5dc80
800317ec: 68 69 6e 20  	addi	$14, $3, 0x6968
800317f0: 74 68 65 20  	addi	$5, $3, 0x6874
800317f4: 73 6c 69 63  	<unknown>
800317f8: 65 75 6e 73  	<unknown>
800317fc: 61 66 65 20  	addi	$5, $3, 0x6661
80031800: 70 72 65 63  	<unknown>
80031804: 6f 6e 64 69  	<unknown>
80031808: 74 69 6f 6e  	<unknown>
8003180c: 28 73 29 20  	addi	$9, $1, 0x7328
80031810: 76 69 6f 6c  	<unknown>
80031814: 61 74 65 64  	<unknown>
80031818: 3a 20 73 6c  	<unknown>
8003181c: 69 63 65 3a  	xori	$5, $19, 0x6369
80031820: 3a 67 65 74  	jalx	0x1959ce8
80031824: 5f 75 6e 63  	<unknown>
80031828: 68 65 63 6b  	<unknown>
8003182c: 65 64 20 72  	<unknown>
80031830: 65 71 75 69  	<unknown>
80031834: 72 65 73 20  	addi	$19, $3, 0x6572
80031838: 74 68 61 74  	jalx	0x185a1d0
8003183c: 20 74 68 65  	<unknown>
80031840: 20 72 61 6e  	<unknown>
80031844: 67 65 20 69  	<unknown>
80031848: 73 20 77 69  	<unknown>
8003184c: 74 68 69 6e  	<unknown>
80031850: 20 74 68 65  	<unknown>
80031854: 20 73 6c 69  	<unknown>
80031858: 63 65 75 6e  	<unknown>
8003185c: 73 61 66 65  	<unknown>
80031860: 20 70 72 65  	<unknown>
80031864: 63 6f 6e 64  	<unknown>
80031868: 69 74 69 6f  	<unknown>
8003186c: 6e 28 73 29  	slti	$19, $11, 0x286e
80031870: 20 76 69 6f  	<unknown>
80031874: 6c 61 74 65  	<unknown>
80031878: 64 3a 20 73  	<unknown>
8003187c: 6c 69 63 65  	<unknown>
80031880: 3a 3a 67 65  	<unknown>
80031884: 74 5f 75 6e  	<unknown>
80031888: 63 68 65 63  	<unknown>
8003188c: 6b 65 64 5f  	<unknown>
80031890: 6d 75 74 20  	addi	$20, $3, 0x756d
80031894: 72 65 71 75  	jalx	0x5c595c8
80031898: 69 72 65 73  	<unknown>
8003189c: 20 74 68 61  	<unknown>
800318a0: 74 20 74 68  	<unknown>
800318a4: 65 20 72 61  	<unknown>
800318a8: 6e 67 65 20  	addi	$5, $3, 0x676e
800318ac: 69 73 20 77  	jalx	0xc81cda4
800318b0: 69 74 68 69  	<unknown>
800318b4: 6e 20 74 68  	<unknown>
800318b8: 65 20 73 6c  	<unknown>
800318bc: 69 63 65 00  	<unknown>
800318c0: d4 c2 02 80  	lb	$2, -0x3d2c($zero)
800318c4: e4 c2 02 80  	lb	$2, -0x3d1c($zero)
800318c8: f4 c2 02 80  	lb	$2, -0x3d0c($zero)
800318cc: 04 c3 02 80  	lb	$2, -0x3cfc($zero)
800318d0: 2f 68 6f 6d  	<unknown>
800318d4: 65 2f 74 68  	<unknown>
800318d8: 69 61 6d 69  	<unknown>
800318dc: 6e 65 2f 2e  	sltiu	$15, $17, 0x656e
800318e0: 72 75 73 74  	jalx	0x1cdd5c8
800318e4: 75 70 2f 74  	jalx	0xbdc1d4
800318e8: 6f 6f 6c 63  	<unknown>
800318ec: 68 61 69 6e  	<unknown>
800318f0: 73 2f 6e 69  	<unknown>
800318f4: 67 68 74 6c  	<unknown>
800318f8: 79 2d 78 38  	xori	$24, $3, 0x2d79
800318fc: 36 5f 36 34  	ori	$22, $1, 0x5f36
80031900: 2d 75 6e 6b  	<unknown>
80031904: 6e 6f 77 6e  	<unknown>
80031908: 2d 6c 69 6e  	<unknown>
8003190c: 75 78 2d 67  	<unknown>
80031910: 6e 75 2f 6c  	<unknown>
80031914: 69 62 2f 72  	<unknown>
80031918: 75 73 74 6c  	<unknown>
8003191c: 69 62 2f 73  	<unknown>
80031920: 72 63 2f 72  	<unknown>
80031924: 75 73 74 2f  	sltiu	$20, $27, 0x7375
80031928: 6c 69 62 72  	<unknown>
8003192c: 61 72 79 2f  	sltiu	$25, $27, 0x7261
80031930: 63 6f 72 65  	<unknown>
80031934: 2f 73 72 63  	<unknown>
80031938: 2f 75 62 5f  	<unknown>
8003193c: 63 68 65 63  	<unknown>
80031940: 6b 73 2e 72  	<unknown>
80031944: 73 00 00 00  	tltu	$zero, $zero, 0x1
80031948: d0 18 03 80  	lb	$3, 0x18d0($zero)
8003194c: 75 00 00 00  	<unknown>
80031950: 78 00 00 00  	<unknown>
80031954: 36 00 00 00  	tne	$zero, $zero
80031958: 69 73 5f 6e  	<unknown>
8003195c: 6f 6e 6f 76  	jalx	0x9bdb9bc
80031960: 65 72 6c 61  	<unknown>
80031964: 70 70 69 6e  	<unknown>
80031968: 67 3a 20 60  	<unknown>
8003196c: 73 69 7a 65  	<unknown>
80031970: 5f 6f 66 3a  	xori	$6, $19, 0x6f5f
80031974: 3a 3c 54 3e  	<unknown>
80031978: 28 29 20 2a  	slti	$zero, $17, 0x2928
8003197c: 20 63 6f 75  	jalx	0x5bd8c80
80031980: 6e 74 60 20  	addi	$zero, $3, 0x746e
80031984: 6f 76 65 72  	<unknown>
80031988: 66 6c 6f 77  	jalx	0xdbdb198
8003198c: 73 20 61 20  	addi	$1, $3, 0x2073
80031990: 75 73 69 7a  	<unknown>
80031994: 65 00 00 00  	<unknown>
80031998: 69 6e 76 61  	<unknown>
8003199c: 6c 69 64 20  	addi	$4, $3, 0x696c
800319a0: 61 72 67 73  	<unknown>
800319a4: 98 19 03 80  	lb	$3, 0x1998($zero)
800319a8: 0c 00 00 00  	syscall
800319ac: 2f 68 6f 6d  	<unknown>
800319b0: 65 2f 74 68  	<unknown>
800319b4: 69 61 6d 69  	<unknown>
800319b8: 6e 65 2f 2e  	sltiu	$15, $17, 0x656e
800319bc: 72 75 73 74  	jalx	0x1cdd5c8
800319c0: 75 70 2f 74  	jalx	0xbdc1d4
800319c4: 6f 6f 6c 63  	<unknown>
800319c8: 68 61 69 6e  	<unknown>
800319cc: 73 2f 6e 69  	<unknown>
800319d0: 67 68 74 6c  	<unknown>
800319d4: 79 2d 78 38  	xori	$24, $3, 0x2d79
800319d8: 36 5f 36 34  	ori	$22, $1, 0x5f36
800319dc: 2d 75 6e 6b  	<unknown>
800319e0: 6e 6f 77 6e  	<unknown>
800319e4: 2d 6c 69 6e  	<unknown>
800319e8: 75 78 2d 67  	<unknown>
800319ec: 6e 75 2f 6c  	<unknown>
800319f0: 69 62 2f 72  	<unknown>
800319f4: 75 73 74 6c  	<unknown>
800319f8: 69 62 2f 73  	<unknown>
800319fc: 72 63 2f 72  	<unknown>
80031a00: 75 73 74 2f  	sltiu	$20, $27, 0x7375
80031a04: 6c 69 62 72  	<unknown>
80031a08: 61 72 79 2f  	sltiu	$25, $27, 0x7261
80031a0c: 63 6f 72 65  	<unknown>
80031a10: 2f 73 72 63  	<unknown>
80031a14: 2f 66 6d 74  	jalx	0x1b598bc
80031a18: 2f 6d 6f 64  	<unknown>
80031a1c: 2e 72 73 00  	<unknown>
80031a20: ac 19 03 80  	lb	$3, 0x19ac($zero)
80031a24: 73 00 00 00  	tltu	$zero, $zero, 0x1
80031a28: 4b 01 00 00  	<unknown>
80031a2c: 0d 00 00 00  	break
80031a30: ac 19 03 80  	lb	$3, 0x19ac($zero)
80031a34: 73 00 00 00  	tltu	$zero, $zero, 0x1
80031a38: 54 01 00 00  	<unknown>
80031a3c: 38 00 00 00  	<unknown>
80031a40: ac 19 03 80  	lb	$3, 0x19ac($zero)
80031a44: 73 00 00 00  	tltu	$zero, $zero, 0x1
80031a48: 55 01 00 00  	<unknown>
80031a4c: 0d 00 00 00  	break
80031a50: ac 19 03 80  	lb	$3, 0x19ac($zero)
80031a54: 73 00 00 00  	tltu	$zero, $zero, 0x1
80031a58: 7f 04 00 00  	<unknown>
80031a5c: 15 00 00 00  	<unknown>
80031a60: ac 19 03 80  	lb	$3, 0x19ac($zero)
80031a64: 73 00 00 00  	tltu	$zero, $zero, 0x1
80031a68: 82 04 00 00  	srl	$zero, $zero, 0x12
80031a6c: 11 00 00 00  	mthi	$zero
80031a70: ac 19 03 80  	lb	$3, 0x19ac($zero)
80031a74: 73 00 00 00  	tltu	$zero, $zero, 0x1
80031a78: 81 04 00 00  	<unknown>
80031a7c: 11 00 00 00  	mthi	$zero
80031a80: ac 19 03 80  	lb	$3, 0x19ac($zero)
80031a84: 73 00 00 00  	tltu	$zero, $zero, 0x1
80031a88: 99 04 00 00  	<unknown>
80031a8c: 09 00 00 00  	jr	$zero
80031a90: ac 19 03 80  	lb	$3, 0x19ac($zero)
80031a94: 73 00 00 00  	tltu	$zero, $zero, 0x1
80031a98: 8d 04 00 00  	break	0x0, 0x12
80031a9c: 15 00 00 00  	<unknown>
80031aa0: ac 19 03 80  	lb	$3, 0x19ac($zero)
80031aa4: 73 00 00 00  	tltu	$zero, $zero, 0x1
80031aa8: 92 04 00 00  	<unknown>
80031aac: 11 00 00 00  	mthi	$zero
80031ab0: ac 19 03 80  	lb	$3, 0x19ac($zero)
80031ab4: 73 00 00 00  	tltu	$zero, $zero, 0x1
80031ab8: 91 04 00 00  	<unknown>
80031abc: 11 00 00 00  	mthi	$zero
80031ac0: 61 73 73 65  	<unknown>
80031ac4: 72 74 69 6f  	<unknown>
80031ac8: 6e 20 66 61  	<unknown>
80031acc: 69 6c 65 64  	<unknown>
80031ad0: 3a 20 61 72  	<unknown>
80031ad4: 67 2e 70 6f  	<unknown>
80031ad8: 73 69 74 69  	<unknown>
80031adc: 6f 6e 20 3c  	<unknown>
80031ae0: 20 61 72 67  	<unknown>
80031ae4: 73 2e 6c 65  	<unknown>
80031ae8: 6e 28 29 00  	<unknown>
80031aec: ac 19 03 80  	lb	$3, 0x19ac($zero)
80031af0: 73 00 00 00  	tltu	$zero, $zero, 0x1
80031af4: ab 04 00 00  	<unknown>
80031af8: 05 00 00 00  	<unknown>
80031afc: ac 19 03 80  	lb	$3, 0x19ac($zero)
80031b00: 73 00 00 00  	tltu	$zero, $zero, 0x1
80031b04: b9 04 00 00  	<unknown>
80031b08: 0d 00 00 00  	break
80031b0c: ac 19 03 80  	lb	$3, 0x19ac($zero)
80031b10: 73 00 00 00  	tltu	$zero, $zero, 0x1
80031b14: d0 04 00 00  	<unknown>
80031b18: 0d 00 00 00  	break
80031b1c: ac 19 03 80  	lb	$3, 0x19ac($zero)
80031b20: 73 00 00 00  	tltu	$zero, $zero, 0x1
80031b24: 1f 05 00 00  	<unknown>
80031b28: 0d 00 00 00  	break
80031b2c: ac 19 03 80  	lb	$3, 0x19ac($zero)
80031b30: 73 00 00 00  	tltu	$zero, $zero, 0x1
80031b34: 22 05 00 00  	<unknown>
80031b38: 0d 00 00 00  	break
80031b3c: ac 19 03 80  	lb	$3, 0x19ac($zero)
80031b40: 73 00 00 00  	tltu	$zero, $zero, 0x1
80031b44: 26 05 00 00  	<unknown>
80031b48: 0d 00 00 00  	break
80031b4c: ac 19 03 80  	lb	$3, 0x19ac($zero)
80031b50: 73 00 00 00  	tltu	$zero, $zero, 0x1
80031b54: 3a 05 00 00  	<unknown>
80031b58: 11 00 00 00  	mthi	$zero
80031b5c: ac 19 03 80  	lb	$3, 0x19ac($zero)
80031b60: 73 00 00 00  	tltu	$zero, $zero, 0x1
80031b64: 52 05 00 00  	<unknown>
80031b68: 31 00 00 00  	tgeu	$zero, $zero
80031b6c: ac 19 03 80  	lb	$3, 0x19ac($zero)
80031b70: 73 00 00 00  	tltu	$zero, $zero, 0x1
80031b74: 54 05 00 00  	<unknown>
80031b78: 11 00 00 00  	mthi	$zero
80031b7c: ac 19 03 80  	lb	$3, 0x19ac($zero)
80031b80: 73 00 00 00  	tltu	$zero, $zero, 0x1
80031b84: 53 05 00 00  	<unknown>
80031b88: 11 00 00 00  	mthi	$zero
80031b8c: ac 19 03 80  	lb	$3, 0x19ac($zero)
80031b90: 73 00 00 00  	tltu	$zero, $zero, 0x1
80031b94: 52 05 00 00  	<unknown>
80031b98: 24 00 00 00  	and	$zero, $zero, $zero
80031b9c: ac 19 03 80  	lb	$3, 0x19ac($zero)
80031ba0: 73 00 00 00  	tltu	$zero, $zero, 0x1
80031ba4: 49 05 00 00  	<unknown>
80031ba8: 31 00 00 00  	tgeu	$zero, $zero
80031bac: ac 19 03 80  	lb	$3, 0x19ac($zero)
80031bb0: 73 00 00 00  	tltu	$zero, $zero, 0x1
80031bb4: 4b 05 00 00  	<unknown>
80031bb8: 11 00 00 00  	mthi	$zero
80031bbc: ac 19 03 80  	lb	$3, 0x19ac($zero)
80031bc0: 73 00 00 00  	tltu	$zero, $zero, 0x1
80031bc4: 4a 05 00 00  	<unknown>
80031bc8: 11 00 00 00  	mthi	$zero
80031bcc: ac 19 03 80  	lb	$3, 0x19ac($zero)
80031bd0: 73 00 00 00  	tltu	$zero, $zero, 0x1
80031bd4: 49 05 00 00  	<unknown>
80031bd8: 24 00 00 00  	and	$zero, $zero, $zero
80031bdc: ac 19 03 80  	lb	$3, 0x19ac($zero)
80031be0: 73 00 00 00  	tltu	$zero, $zero, 0x1
80031be4: 48 05 00 00  	<unknown>
80031be8: 11 00 00 00  	mthi	$zero
80031bec: ac 19 03 80  	lb	$3, 0x19ac($zero)
80031bf0: 73 00 00 00  	tltu	$zero, $zero, 0x1
80031bf4: 40 05 00 00  	sll	$zero, $zero, 0x15
80031bf8: 11 00 00 00  	mthi	$zero
80031bfc: ac 19 03 80  	lb	$3, 0x19ac($zero)
80031c00: 73 00 00 00  	tltu	$zero, $zero, 0x1
80031c04: 30 05 00 00  	tge	$zero, $zero, 0x14
80031c08: 11 00 00 00  	mthi	$zero
80031c0c: ac 19 03 80  	lb	$3, 0x19ac($zero)
80031c10: 73 00 00 00  	tltu	$zero, $zero, 0x1
80031c14: 9e 05 00 00  	<unknown>
80031c18: 35 00 00 00  	<unknown>
80031c1c: ac 19 03 80  	lb	$3, 0x19ac($zero)
80031c20: 73 00 00 00  	tltu	$zero, $zero, 0x1
80031c24: 9f 05 00 00  	<unknown>
80031c28: 15 00 00 00  	<unknown>
80031c2c: ac 19 03 80  	lb	$3, 0x19ac($zero)
80031c30: 73 00 00 00  	tltu	$zero, $zero, 0x1
80031c34: 9e 05 00 00  	<unknown>
80031c38: 28 00 00 00  	<unknown>
80031c3c: ac 19 03 80  	lb	$3, 0x19ac($zero)
80031c40: 73 00 00 00  	tltu	$zero, $zero, 0x1
80031c44: b8 05 00 00  	<unknown>
80031c48: 30 00 00 00  	tge	$zero, $zero
80031c4c: ac 19 03 80  	lb	$3, 0x19ac($zero)
80031c50: 73 00 00 00  	tltu	$zero, $zero, 0x1
80031c54: bc 05 00 00  	<unknown>
80031c58: 0d 00 00 00  	break
80031c5c: 61 74 74 65  	<unknown>
80031c60: 6d 70 74 20  	addi	$20, $3, 0x706d
80031c64: 74 6f 20 61  	<unknown>
80031c68: 64 64 20 77  	jalx	0xc819190
80031c6c: 69 74 68 20  	addi	$8, $3, 0x7469
80031c70: 6f 76 65 72  	<unknown>
80031c74: 66 6c 6f 77  	jalx	0xdbdb198
80031c78: 5c 1c 03 80  	lb	$3, 0x1c5c($zero)
80031c7c: 1c 00 00 00  	<unknown>
80031c80: 61 74 74 65  	<unknown>
80031c84: 6d 70 74 20  	addi	$20, $3, 0x706d
80031c88: 74 6f 20 73  	<unknown>
80031c8c: 75 62 74 72  	<unknown>
80031c90: 61 63 74 20  	addi	$20, $3, 0x6361
80031c94: 77 69 74 68  	<unknown>
80031c98: 20 6f 76 65  	<unknown>
80031c9c: 72 66 6c 6f  	<unknown>
80031ca0: 77 00 00 00  	<unknown>
80031ca4: 80 1c 03 80  	lb	$3, 0x1c80($zero)
80031ca8: 21 00 00 00  	move	$zero, $zero
80031cac: 61 74 74 65  	<unknown>
80031cb0: 6d 70 74 20  	addi	$20, $3, 0x706d
80031cb4: 74 6f 20 6d  	<unknown>
80031cb8: 75 6c 74 69  	<unknown>
80031cbc: 70 6c 79 20  	addi	$25, $3, 0x6c70
80031cc0: 77 69 74 68  	<unknown>
80031cc4: 20 6f 76 65  	<unknown>
80031cc8: 72 66 6c 6f  	<unknown>
80031ccc: 77 00 00 00  	<unknown>
80031cd0: ac 1c 03 80  	lb	$3, 0x1cac($zero)
80031cd4: 21 00 00 00  	move	$zero, $zero
80031cd8: 61 74 74 65  	<unknown>
80031cdc: 6d 70 74 20  	addi	$20, $3, 0x706d
80031ce0: 74 6f 20 6e  	<unknown>
80031ce4: 65 67 61 74  	jalx	0x1859d94
80031ce8: 65 20 77 69  	<unknown>
80031cec: 74 68 20 6f  	<unknown>
80031cf0: 76 65 72 66  	<unknown>
80031cf4: 6c 6f 77 00  	<unknown>
80031cf8: d8 1c 03 80  	lb	$3, 0x1cd8($zero)
80031cfc: 1f 00 00 00  	<unknown>
80031d00: 61 74 74 65  	<unknown>
80031d04: 6d 70 74 20  	addi	$20, $3, 0x706d
80031d08: 74 6f 20 73  	<unknown>
80031d0c: 68 69 66 74  	jalx	0x199a5a0
80031d10: 20 72 69 67  	<unknown>
80031d14: 68 74 20 77  	jalx	0xc81d1a0
80031d18: 69 74 68 20  	addi	$8, $3, 0x7469
80031d1c: 6f 76 65 72  	<unknown>
80031d20: 66 6c 6f 77  	jalx	0xdbdb198
80031d24: 00 1d 03 80  	lb	$3, 0x1d00($zero)
80031d28: 24 00 00 00  	and	$zero, $zero, $zero
80031d2c: 61 74 74 65  	<unknown>
80031d30: 6d 70 74 20  	addi	$20, $3, 0x706d
80031d34: 74 6f 20 64  	<unknown>
80031d38: 69 76 69 64  	<unknown>
80031d3c: 65 20 62 79  	<unknown>
80031d40: 20 7a 65 72  	<unknown>
80031d44: 6f 00 00 00  	<unknown>
80031d48: 2c 1d 03 80  	lb	$3, 0x1d2c($zero)
80031d4c: 19 00 00 00  	multu	$zero, $zero
80031d50: 61 74 74 65  	<unknown>
80031d54: 6d 70 74 20  	addi	$20, $3, 0x706d
80031d58: 74 6f 20 63  	<unknown>
80031d5c: 61 6c 63 75  	jalx	0x58db184
80031d60: 6c 61 74 65  	<unknown>
80031d64: 20 74 68 65  	<unknown>
80031d68: 20 72 65 6d  	<unknown>
80031d6c: 61 69 6e 64  	<unknown>
80031d70: 65 72 20 77  	jalx	0xc81c994
80031d74: 69 74 68 20  	addi	$8, $3, 0x7469
80031d78: 61 20 64 69  	<unknown>
80031d7c: 76 69 73 6f  	<unknown>
80031d80: 72 20 6f 66  	<unknown>
80031d84: 20 7a 65 72  	<unknown>
80031d88: 6f 00 00 00  	<unknown>
80031d8c: 50 1d 03 80  	lb	$3, 0x1d50($zero)
80031d90: 39 00 00 00  	<unknown>
80031d94: 61 73 73 65  	<unknown>
80031d98: 72 74 69 6f  	<unknown>
80031d9c: 6e 20 66 61  	<unknown>
80031da0: 69 6c 65 64  	<unknown>
80031da4: 3a 20 30 20  	addi	$16, $1, 0x203a
80031da8: 3c 20 70 6f  	<unknown>
80031dac: 69 6e 74 65  	<unknown>
80031db0: 65 5f 73 69  	<unknown>
80031db4: 7a 65 20 26  	addiu	$zero, $17, 0x657a
80031db8: 26 20 70 6f  	<unknown>
80031dbc: 69 6e 74 65  	<unknown>
80031dc0: 65 5f 73 69  	<unknown>
80031dc4: 7a 65 20 3c  	<unknown>
80031dc8: 3d 20 69 73  	<unknown>
80031dcc: 69 7a 65 3a  	xori	$5, $19, 0x7a69
80031dd0: 3a 4d 41 58  	<unknown>
80031dd4: 20 61 73 20  	addi	$19, $3, 0x6120
80031dd8: 75 73 69 7a  	<unknown>
80031ddc: 65 2f 68 6f  	<unknown>
80031de0: 6d 65 2f 74  	jalx	0xbd95b4
80031de4: 68 69 61 6d  	<unknown>
80031de8: 69 6e 65 2f  	sltiu	$5, $27, 0x6e69
80031dec: 2e 72 75 73  	<unknown>
80031df0: 74 75 70 2f  	sltiu	$16, $27, 0x7574
80031df4: 74 6f 6f 6c  	<unknown>
80031df8: 63 68 61 69  	<unknown>
80031dfc: 6e 73 2f 6e  	<unknown>
80031e00: 69 67 68 74  	jalx	0x1a19da4
80031e04: 6c 79 2d 78  	<unknown>
80031e08: 38 36 5f 36  	ori	$ra, $18, 0x3638
80031e0c: 34 2d 75 6e  	<unknown>
80031e10: 6b 6e 6f 77  	jalx	0xdbdb9ac
80031e14: 6e 2d 6c 69  	<unknown>
80031e18: 6e 75 78 2d  	sltiu	$24, $11, 0x756e
80031e1c: 67 6e 75 2f  	sltiu	$21, $27, 0x6e67
80031e20: 6c 69 62 2f  	sltiu	$2, $27, 0x696c
80031e24: 72 75 73 74  	jalx	0x1cdd5c8
80031e28: 6c 69 62 2f  	sltiu	$2, $27, 0x696c
80031e2c: 73 72 63 2f  	sltiu	$3, $27, 0x7273
80031e30: 72 75 73 74  	jalx	0x1cdd5c8
80031e34: 2f 6c 69 62  	<unknown>
80031e38: 72 61 72 79  	<unknown>
80031e3c: 2f 63 6f 72  	<unknown>
80031e40: 65 2f 73 72  	<unknown>
80031e44: 63 2f 70 74  	jalx	0x1c0bd8c
80031e48: 72 2f 63 6f  	<unknown>
80031e4c: 6e 73 74 5f  	<unknown>
80031e50: 70 74 72 2e  	sltiu	$18, $19, 0x7470
80031e54: 72 73 00 00  	tlt	$zero, $zero, 0x1cd
80031e58: dd 1d 03 80  	lb	$3, 0x1ddd($zero)
80031e5c: 79 00 00 00  	<unknown>
80031e60: 3f 03 00 00  	<unknown>
80031e64: 09 00 00 00  	jr	$zero
80031e68: 69 73 5f 61  	<unknown>
80031e6c: 6c 69 67 6e  	<unknown>
80031e70: 65 64 5f 74  	jalx	0x17d9194
80031e74: 6f 3a 20 61  	<unknown>
80031e78: 6c 69 67 6e  	<unknown>
80031e7c: 20 69 73 20  	addi	$19, $3, 0x6920
80031e80: 6e 6f 74 20  	addi	$20, $3, 0x6f6e
80031e84: 61 20 70 6f  	<unknown>
80031e88: 77 65 72 2d  	sltiu	$18, $11, 0x6577
80031e8c: 6f 66 2d 74  	jalx	0xb599bc
80031e90: 77 6f 00 00  	<unknown>
80031e94: 68 1e 03 80  	lb	$3, 0x1e68($zero)
80031e98: 2a 00 00 00  	slt	$zero, $zero, $zero
80031e9c: dd 1d 03 80  	lb	$3, 0x1ddd($zero)
80031ea0: 79 00 00 00  	<unknown>
80031ea4: 52 06 00 00  	<unknown>
80031ea8: 0d 00 00 00  	break
80031eac: dd 1d 03 80  	lb	$3, 0x1ddd($zero)
80031eb0: 79 00 00 00  	<unknown>
80031eb4: 57 06 00 00  	<unknown>
80031eb8: 1a 00 00 00  	div	$zero, $zero, $zero
80031ebc: 2f 68 6f 6d  	<unknown>
80031ec0: 65 2f 74 68  	<unknown>
80031ec4: 69 61 6d 69  	<unknown>
80031ec8: 6e 65 2f 2e  	sltiu	$15, $17, 0x656e
80031ecc: 72 75 73 74  	jalx	0x1cdd5c8
80031ed0: 75 70 2f 74  	jalx	0xbdc1d4
80031ed4: 6f 6f 6c 63  	<unknown>
80031ed8: 68 61 69 6e  	<unknown>
80031edc: 73 2f 6e 69  	<unknown>
80031ee0: 67 68 74 6c  	<unknown>
80031ee4: 79 2d 78 38  	xori	$24, $3, 0x2d79
80031ee8: 36 5f 36 34  	ori	$22, $1, 0x5f36
80031eec: 2d 75 6e 6b  	<unknown>
80031ef0: 6e 6f 77 6e  	<unknown>
80031ef4: 2d 6c 69 6e  	<unknown>
80031ef8: 75 78 2d 67  	<unknown>
80031efc: 6e 75 2f 6c  	<unknown>
80031f00: 69 62 2f 72  	<unknown>
80031f04: 75 73 74 6c  	<unknown>
80031f08: 69 62 2f 73  	<unknown>
80031f0c: 72 63 2f 72  	<unknown>
80031f10: 75 73 74 2f  	sltiu	$20, $27, 0x7375
80031f14: 6c 69 62 72  	<unknown>
80031f18: 61 72 79 2f  	sltiu	$25, $27, 0x7261
80031f1c: 63 6f 72 65  	<unknown>
80031f20: 2f 73 72 63  	<unknown>
80031f24: 2f 69 74 65  	<unknown>
80031f28: 72 2f 74 72  	<unknown>
80031f2c: 61 69 74 73  	<unknown>
80031f30: 2f 69 74 65  	<unknown>
80031f34: 72 61 74 6f  	<unknown>
80031f38: 72 2e 72 73  	<unknown>
80031f3c: bc 1e 03 80  	lb	$3, 0x1ebc($zero)
80031f40: 80 00 00 00  	sll	$zero, $zero, 0x2
80031f44: 35 01 00 00  	<unknown>
80031f48: 3c 00 00 00  	<unknown>
80031f4c: 2f 68 6f 6d  	<unknown>
80031f50: 65 2f 74 68  	<unknown>
80031f54: 69 61 6d 69  	<unknown>
80031f58: 6e 65 2f 2e  	sltiu	$15, $17, 0x656e
80031f5c: 72 75 73 74  	jalx	0x1cdd5c8
80031f60: 75 70 2f 74  	jalx	0xbdc1d4
80031f64: 6f 6f 6c 63  	<unknown>
80031f68: 68 61 69 6e  	<unknown>
80031f6c: 73 2f 6e 69  	<unknown>
80031f70: 67 68 74 6c  	<unknown>
80031f74: 79 2d 78 38  	xori	$24, $3, 0x2d79
80031f78: 36 5f 36 34  	ori	$22, $1, 0x5f36
80031f7c: 2d 75 6e 6b  	<unknown>
80031f80: 6e 6f 77 6e  	<unknown>
80031f84: 2d 6c 69 6e  	<unknown>
80031f88: 75 78 2d 67  	<unknown>
80031f8c: 6e 75 2f 6c  	<unknown>
80031f90: 69 62 2f 72  	<unknown>
80031f94: 75 73 74 6c  	<unknown>
80031f98: 69 62 2f 73  	<unknown>
80031f9c: 72 63 2f 72  	<unknown>
80031fa0: 75 73 74 2f  	sltiu	$20, $27, 0x7375
80031fa4: 6c 69 62 72  	<unknown>
80031fa8: 61 72 79 2f  	sltiu	$25, $27, 0x7261
80031fac: 63 6f 72 65  	<unknown>
80031fb0: 2f 73 72 63  	<unknown>
80031fb4: 2f 70 61 6e  	<unknown>
80031fb8: 69 63 6b 69  	<unknown>
80031fbc: 6e 67 2e 72  	<unknown>
80031fc0: 73 00 00 00  	tltu	$zero, $zero, 0x1
80031fc4: 4c 1f 03 80  	lb	$3, 0x1f4c($zero)
80031fc8: 75 00 00 00  	<unknown>
80031fcc: d7 00 00 00  	<unknown>
80031fd0: 05 00 00 00  	<unknown>
80031fd4: 20 62 75 74  	jalx	0x1d58880
80031fd8: 20 74 68 65  	<unknown>
80031fdc: 20 69 6e 64  	<unknown>
80031fe0: 65 78 20 69  	<unknown>
80031fe4: 73 20 00 00  	tltu	$zero, $zero, 0x81
80031fe8: 44 11 03 80  	lb	$3, 0x1144($zero)
80031fec: 20 00 00 00  	add	$zero, $zero, $zero
80031ff0: d4 1f 03 80  	lb	$3, 0x1fd4($zero)
80031ff4: 12 00 00 00  	mflo	$zero
80031ff8: 2f 68 6f 6d  	<unknown>
80031ffc: 65 2f 74 68  	<unknown>
80032000: 69 61 6d 69  	<unknown>
80032004: 6e 65 2f 2e  	sltiu	$15, $17, 0x656e
80032008: 72 75 73 74  	jalx	0x1cdd5c8
8003200c: 75 70 2f 74  	jalx	0xbdc1d4
80032010: 6f 6f 6c 63  	<unknown>
80032014: 68 61 69 6e  	<unknown>
80032018: 73 2f 6e 69  	<unknown>
8003201c: 67 68 74 6c  	<unknown>
80032020: 79 2d 78 38  	xori	$24, $3, 0x2d79
80032024: 36 5f 36 34  	ori	$22, $1, 0x5f36
80032028: 2d 75 6e 6b  	<unknown>
8003202c: 6e 6f 77 6e  	<unknown>
80032030: 2d 6c 69 6e  	<unknown>
80032034: 75 78 2d 67  	<unknown>
80032038: 6e 75 2f 6c  	<unknown>
8003203c: 69 62 2f 72  	<unknown>
80032040: 75 73 74 6c  	<unknown>
80032044: 69 62 2f 73  	<unknown>
80032048: 72 63 2f 72  	<unknown>
8003204c: 75 73 74 2f  	sltiu	$20, $27, 0x7375
80032050: 6c 69 62 72  	<unknown>
80032054: 61 72 79 2f  	sltiu	$25, $27, 0x7261
80032058: 63 6f 72 65  	<unknown>
8003205c: 2f 73 72 63  	<unknown>
80032060: 2f 73 74 72  	<unknown>
80032064: 2f 69 74 65  	<unknown>
80032068: 72 2e 72 73  	<unknown>
8003206c: f8 1f 03 80  	lb	$3, 0x1ff8($zero)
80032070: 74 00 00 00  	teq	$zero, $zero, 0x1
80032074: c3 00 00 00  	sra	$zero, $zero, 0x3
80032078: 26 00 00 00  	xor	$zero, $zero, $zero
8003207c: f8 1f 03 80  	lb	$3, 0x1ff8($zero)
80032080: 74 00 00 00  	teq	$zero, $zero, 0x1
80032084: c3 00 00 00  	sra	$zero, $zero, 0x3
80032088: 11 00 00 00  	mthi	$zero
8003208c: 75 6e 73 61  	<unknown>
80032090: 66 65 20 70  	<unknown>
80032094: 72 65 63 6f  	<unknown>
80032098: 6e 64 69 74  	jalx	0x1a591b8
8003209c: 69 6f 6e 28  	slti	$14, $3, 0x6f69
800320a0: 73 29 20 76  	jalx	0x880a5cc
800320a4: 69 6f 6c 61  	<unknown>
800320a8: 74 65 64 3a  	xori	$4, $19, 0x6574
800320ac: 20 70 74 72  	clz	$fp, $19
800320b0: 3a 3a 73 75  	jalx	0x5cce8e8
800320b4: 62 5f 70 74  	jalx	0x1c17d88
800320b8: 72 20 72 65  	<unknown>
800320bc: 71 75 69 72  	<unknown>
800320c0: 65 73 20 60  	<unknown>
800320c4: 73 65 6c 66  	<unknown>
800320c8: 20 3e 3d 20  	addi	$sp, $1, 0x3e20
800320cc: 6f 72 69 67  	<unknown>
800320d0: 69 6e 60 2f  	sltiu	$zero, $27, 0x6e69
800320d4: 68 6f 6d 65  	<unknown>
800320d8: 2f 74 68 69  	<unknown>
800320dc: 61 6d 69 6e  	<unknown>
800320e0: 65 2f 2e 72  	<unknown>
800320e4: 75 73 74 75  	jalx	0x5d1cdd4
800320e8: 70 2f 74 6f  	<unknown>
800320ec: 6f 6c 63 68  	<unknown>
800320f0: 61 69 6e 73  	<unknown>
800320f4: 2f 6e 69 67  	<unknown>
800320f8: 68 74 6c 79  	<unknown>
800320fc: 2d 78 38 36  	ori	$24, $17, 0x782d
80032100: 5f 36 34 2d  	sltiu	$20, $9, 0x365f
80032104: 75 6e 6b 6e  	<unknown>
80032108: 6f 77 6e 2d  	sltiu	$14, $11, 0x776f
8003210c: 6c 69 6e 75  	jalx	0x5b9a5b0
80032110: 78 2d 67 6e  	<unknown>
80032114: 75 2f 6c 69  	<unknown>
80032118: 62 2f 72 75  	jalx	0x5c8bd88
8003211c: 73 74 6c 69  	<unknown>
80032120: 62 2f 73 72  	<unknown>
80032124: 63 2f 72 75  	jalx	0x5c8bd8c
80032128: 73 74 2f 6c  	<unknown>
8003212c: 69 62 72 61  	<unknown>
80032130: 72 79 2f 63  	<unknown>
80032134: 6f 72 65 2f  	sltiu	$5, $27, 0x726f
80032138: 73 72 63 2f  	sltiu	$3, $27, 0x7273
8003213c: 73 74 72 2f  	sltiu	$18, $27, 0x7473
80032140: 74 72 61 69  	<unknown>
80032144: 74 73 2e 72  	<unknown>
80032148: 73 00 00 00  	tltu	$zero, $zero, 0x1
8003214c: d3 20 03 80  	lb	$3, 0x20d3($zero)
80032150: 76 00 00 00  	tne	$zero, $zero, 0x1
80032154: d6 00 00 00  	<unknown>
80032158: 13 00 00 00  	mtlo	$zero
8003215c: 2f 68 6f 6d  	<unknown>
80032160: 65 2f 74 68  	<unknown>
80032164: 69 61 6d 69  	<unknown>
80032168: 6e 65 2f 2e  	sltiu	$15, $17, 0x656e
8003216c: 72 75 73 74  	jalx	0x1cdd5c8
80032170: 75 70 2f 74  	jalx	0xbdc1d4
80032174: 6f 6f 6c 63  	<unknown>
80032178: 68 61 69 6e  	<unknown>
8003217c: 73 2f 6e 69  	<unknown>
80032180: 67 68 74 6c  	<unknown>
80032184: 79 2d 78 38  	xori	$24, $3, 0x2d79
80032188: 36 5f 36 34  	ori	$22, $1, 0x5f36
8003218c: 2d 75 6e 6b  	<unknown>
80032190: 6e 6f 77 6e  	<unknown>
80032194: 2d 6c 69 6e  	<unknown>
80032198: 75 78 2d 67  	<unknown>
8003219c: 6e 75 2f 6c  	<unknown>
800321a0: 69 62 2f 72  	<unknown>
800321a4: 75 73 74 6c  	<unknown>
800321a8: 69 62 2f 73  	<unknown>
800321ac: 72 63 2f 72  	<unknown>
800321b0: 75 73 74 2f  	sltiu	$20, $27, 0x7375
800321b4: 6c 69 62 72  	<unknown>
800321b8: 61 72 79 2f  	sltiu	$25, $27, 0x7261
800321bc: 63 6f 72 65  	<unknown>
800321c0: 2f 73 72 63  	<unknown>
800321c4: 2f 73 74 72  	<unknown>
800321c8: 2f 76 61 6c  	<unknown>
800321cc: 69 64 61 74  	jalx	0x18591a4
800321d0: 69 6f 6e 73  	<unknown>
800321d4: 2e 72 73 00  	<unknown>
800321d8: 5c 21 03 80  	lb	$3, 0x215c($zero)
800321dc: 7b 00 00 00  	<unknown>
800321e0: 0c 00 00 00  	syscall
800321e4: 0d 00 00 00  	break
800321e8: 5c 21 03 80  	lb	$3, 0x215c($zero)
800321ec: 7b 00 00 00  	<unknown>
800321f0: 31 00 00 00  	tgeu	$zero, $zero
800321f4: 24 00 00 00  	and	$zero, $zero, $zero
800321f8: 5c 21 03 80  	lb	$3, 0x215c($zero)
800321fc: 7b 00 00 00  	<unknown>
80032200: 38 00 00 00  	<unknown>
80032204: 28 00 00 00  	<unknown>
80032208: 5c 21 03 80  	lb	$3, 0x215c($zero)
8003220c: 7b 00 00 00  	<unknown>
80032210: 40 00 00 00  	ssnop
80032214: 2c 00 00 00  	<unknown>
80032218: 75 6e 73 61  	<unknown>
8003221c: 66 65 20 70  	<unknown>
80032220: 72 65 63 6f  	<unknown>
80032224: 6e 64 69 74  	jalx	0x1a591b8
80032228: 69 6f 6e 28  	slti	$14, $3, 0x6f69
8003222c: 73 29 20 76  	jalx	0x880a5cc
80032230: 69 6f 6c 61  	<unknown>
80032234: 74 65 64 3a  	xori	$4, $19, 0x6574
80032238: 20 68 69 6e  	<unknown>
8003223c: 74 3a 3a 75  	jalx	0x4e8e9d0
80032240: 6e 72 65 61  	<unknown>
80032244: 63 68 61 62  	<unknown>
80032248: 6c 65 5f 75  	jalx	0x57d95b0
8003224c: 6e 63 68 65  	<unknown>
80032250: 63 6b 65 64  	<unknown>
80032254: 20 6d 75 73  	<unknown>
80032258: 74 20 6e 65  	<unknown>
8003225c: 76 65 72 20  	addi	$18, $3, 0x6576
80032260: 62 65 20 72  	<unknown>
80032264: 65 61 63 68  	<unknown>
80032268: 65 64 00 00  	<unknown>
8003226c: 28 e6 02 80  	lb	$2, -0x19d8($zero)
80032270: 3c e6 02 80  	lb	$2, -0x19c4($zero)
80032274: 6c e6 02 80  	lb	$2, -0x1994($zero)
80032278: 84 e6 02 80  	lb	$2, -0x197c($zero)
8003227c: b4 e6 02 80  	lb	$2, -0x194c($zero)
80032280: 2c e7 02 80  	lb	$2, -0x18d4($zero)
80032284: 40 e7 02 80  	lb	$2, -0x18c0($zero)
80032288: 70 e7 02 80  	lb	$2, -0x1890($zero)
8003228c: 88 e7 02 80  	lb	$2, -0x1878($zero)
80032290: b8 e7 02 80  	lb	$2, -0x1848($zero)
80032294: 74 68 65 72  	<unknown>
80032298: 65 20 69 73  	<unknown>
8003229c: 20 6e 6f 20  	addi	$15, $3, 0x6e20
800322a0: 73 75 63 68  	<unknown>
800322a4: 20 74 68 69  	<unknown>
800322a8: 6e 67 20 61  	<unknown>
800322ac: 73 20 61 20  	addi	$1, $3, 0x2073
800322b0: 72 65 6c 65  	<unknown>
800322b4: 61 73 65 20  	addi	$5, $3, 0x7361
800322b8: 6c 6f 61 64  	<unknown>
800322bc: 94 22 03 80  	lb	$3, 0x2294($zero)
800322c0: 28 00 00 00  	<unknown>
800322c4: 2f 68 6f 6d  	<unknown>
800322c8: 65 2f 74 68  	<unknown>
800322cc: 69 61 6d 69  	<unknown>
800322d0: 6e 65 2f 2e  	sltiu	$15, $17, 0x656e
800322d4: 72 75 73 74  	jalx	0x1cdd5c8
800322d8: 75 70 2f 74  	jalx	0xbdc1d4
800322dc: 6f 6f 6c 63  	<unknown>
800322e0: 68 61 69 6e  	<unknown>
800322e4: 73 2f 6e 69  	<unknown>
800322e8: 67 68 74 6c  	<unknown>
800322ec: 79 2d 78 38  	xori	$24, $3, 0x2d79
800322f0: 36 5f 36 34  	ori	$22, $1, 0x5f36
800322f4: 2d 75 6e 6b  	<unknown>
800322f8: 6e 6f 77 6e  	<unknown>
800322fc: 2d 6c 69 6e  	<unknown>
80032300: 75 78 2d 67  	<unknown>
80032304: 6e 75 2f 6c  	<unknown>
80032308: 69 62 2f 72  	<unknown>
8003230c: 75 73 74 6c  	<unknown>
80032310: 69 62 2f 73  	<unknown>
80032314: 72 63 2f 72  	<unknown>
80032318: 75 73 74 2f  	sltiu	$20, $27, 0x7375
8003231c: 6c 69 62 72  	<unknown>
80032320: 61 72 79 2f  	sltiu	$25, $27, 0x7261
80032324: 63 6f 72 65  	<unknown>
80032328: 2f 73 72 63  	<unknown>
8003232c: 2f 73 79 6e  	<unknown>
80032330: 63 2f 61 74  	jalx	0x184bd8c
80032334: 6f 6d 69 63  	<unknown>
80032338: 2e 72 73 00  	<unknown>
8003233c: c4 22 03 80  	lb	$3, 0x22c4($zero)
80032340: 77 00 00 00  	<unknown>
80032344: e8 0c 00 00  	<unknown>
80032348: 18 00 00 00  	mult	$zero, $zero
8003234c: 74 68 65 72  	<unknown>
80032350: 65 20 69 73  	<unknown>
80032354: 20 6e 6f 20  	addi	$15, $3, 0x6e20
80032358: 73 75 63 68  	<unknown>
8003235c: 20 74 68 69  	<unknown>
80032360: 6e 67 20 61  	<unknown>
80032364: 73 20 61 6e  	<unknown>
80032368: 20 61 63 71  	<unknown>
8003236c: 75 69 72 65  	<unknown>
80032370: 2d 72 65 6c  	<unknown>
80032374: 65 61 73 65  	<unknown>
80032378: 20 6c 6f 61  	<unknown>
8003237c: 64 00 00 00  	<unknown>
80032380: 4c 23 03 80  	lb	$3, 0x234c($zero)
80032384: 31 00 00 00  	tgeu	$zero, $zero
80032388: c4 22 03 80  	lb	$3, 0x22c4($zero)
8003238c: 77 00 00 00  	<unknown>
80032390: e9 0c 00 00  	<unknown>
80032394: 17 00 00 00  	<unknown>
80032398: 75 6e 73 61  	<unknown>
8003239c: 66 65 20 70  	<unknown>
800323a0: 72 65 63 6f  	<unknown>
800323a4: 6e 64 69 74  	jalx	0x1a591b8
800323a8: 69 6f 6e 28  	slti	$14, $3, 0x6f69
800323ac: 73 29 20 76  	jalx	0x880a5cc
800323b0: 69 6f 6c 61  	<unknown>
800323b4: 74 65 64 3a  	xori	$4, $19, 0x6574
800323b8: 20 69 6e 76  	jalx	0x9b9a480
800323bc: 61 6c 69 64  	<unknown>
800323c0: 20 76 61 6c  	<unknown>
800323c4: 75 65 20 66  	<unknown>
800323c8: 6f 72 20 60  	<unknown>
800323cc: 63 68 61 72  	<unknown>
800323d0: 60 75 6e 73  	<unknown>
800323d4: 61 66 65 20  	addi	$5, $3, 0x6661
800323d8: 70 72 65 63  	<unknown>
800323dc: 6f 6e 64 69  	<unknown>
800323e0: 74 69 6f 6e  	<unknown>
800323e4: 28 73 29 20  	addi	$9, $1, 0x7328
800323e8: 76 69 6f 6c  	<unknown>
800323ec: 61 74 65 64  	<unknown>
800323f0: 3a 20 70 74  	jalx	0x1c080e8
800323f4: 72 3a 3a 63  	<unknown>
800323f8: 6f 70 79 5f  	<unknown>
800323fc: 6e 6f 6e 6f  	<unknown>
80032400: 76 65 72 6c  	<unknown>
80032404: 61 70 70 69  	<unknown>
80032408: 6e 67 20 72  	<unknown>
8003240c: 65 71 75 69  	<unknown>
80032410: 72 65 73 20  	addi	$19, $3, 0x6572
80032414: 74 68 61 74  	jalx	0x185a1d0
80032418: 20 62 6f 74  	jalx	0x1bd8880
8003241c: 68 20 70 6f  	<unknown>
80032420: 69 6e 74 65  	<unknown>
80032424: 72 20 61 72  	<unknown>
80032428: 67 75 6d 65  	<unknown>
8003242c: 6e 74 73 20  	addi	$19, $3, 0x746e
80032430: 61 72 65 20  	addi	$5, $3, 0x7261
80032434: 61 6c 69 67  	<unknown>
80032438: 6e 65 64 20  	addi	$4, $3, 0x656e
8003243c: 61 6e 64 20  	addi	$4, $3, 0x6e61
80032440: 6e 6f 6e 2d  	sltiu	$14, $11, 0x6f6e
80032444: 6e 75 6c 6c  	<unknown>
80032448: 20 61 6e 64  	<unknown>
8003244c: 20 74 68 65  	<unknown>
80032450: 20 73 70 65  	<unknown>
80032454: 63 69 66 69  	<unknown>
80032458: 65 64 20 6d  	<unknown>
8003245c: 65 6d 6f 72  	<unknown>
80032460: 79 20 72 61  	<unknown>
80032464: 6e 67 65 73  	<unknown>
80032468: 20 64 6f 20  	addi	$15, $3, 0x6420
8003246c: 6e 6f 74 20  	addi	$20, $3, 0x6f6e
80032470: 6f 76 65 72  	<unknown>
80032474: 6c 61 70 3a  	xori	$16, $19, 0x616c
80032478: 77 24 03 80  	lb	$3, 0x2477($zero)
8003247c: 00 00 00 00  	nop
80032480: 77 24 03 80  	lb	$3, 0x2477($zero)
80032484: 01 00 00 00  	movf	$zero, $zero, $fcc0
80032488: 77 24 03 80  	lb	$3, 0x2477($zero)
8003248c: 01 00 00 00  	movf	$zero, $zero, $fcc0
80032490: 3a 20 00 00  	<unknown>
80032494: 77 24 03 80  	lb	$3, 0x2477($zero)
80032498: 00 00 00 00  	nop
8003249c: 90 24 03 80  	lb	$3, 0x2490($zero)
800324a0: 02 00 00 00  	srl	$zero, $zero, 0x0
800324a4: 2f 68 6f 6d  	<unknown>
800324a8: 65 2f 74 68  	<unknown>
800324ac: 69 61 6d 69  	<unknown>
800324b0: 6e 65 2f 2e  	sltiu	$15, $17, 0x656e
800324b4: 72 75 73 74  	jalx	0x1cdd5c8
800324b8: 75 70 2f 74  	jalx	0xbdc1d4
800324bc: 6f 6f 6c 63  	<unknown>
800324c0: 68 61 69 6e  	<unknown>
800324c4: 73 2f 6e 69  	<unknown>
800324c8: 67 68 74 6c  	<unknown>
800324cc: 79 2d 78 38  	xori	$24, $3, 0x2d79
800324d0: 36 5f 36 34  	ori	$22, $1, 0x5f36
800324d4: 2d 75 6e 6b  	<unknown>
800324d8: 6e 6f 77 6e  	<unknown>
800324dc: 2d 6c 69 6e  	<unknown>
800324e0: 75 78 2d 67  	<unknown>
800324e4: 6e 75 2f 6c  	<unknown>
800324e8: 69 62 2f 72  	<unknown>
800324ec: 75 73 74 6c  	<unknown>
800324f0: 69 62 2f 73  	<unknown>
800324f4: 72 63 2f 72  	<unknown>
800324f8: 75 73 74 2f  	sltiu	$20, $27, 0x7375
800324fc: 6c 69 62 72  	<unknown>
80032500: 61 72 79 2f  	sltiu	$25, $27, 0x7261
80032504: 63 6f 72 65  	<unknown>
80032508: 2f 73 72 63  	<unknown>
8003250c: 2f 69 74 65  	<unknown>
80032510: 72 2f 74 72  	<unknown>
80032514: 61 69 74 73  	<unknown>
80032518: 2f 61 63 63  	<unknown>
8003251c: 75 6d 2e 72  	<unknown>
80032520: 73 00 00 00  	tltu	$zero, $zero, 0x1
80032524: a4 24 03 80  	lb	$3, 0x24a4($zero)
80032528: 7d 00 00 00  	<unknown>
8003252c: 95 00 00 00  	<unknown>
80032530: 01 00 00 00  	movf	$zero, $zero, $fcc0
		...

Disassembly of section .got:

80033000 <.got>:
80033000: 00 00 00 00  	nop
80033004: 00 00 00 80  	lb	$zero, 0x0($zero)

Disassembly of section .bss:

80033008 <.bss>:
...

Disassembly of section .shstrtab:

00000000 <.shstrtab>:
       0: 00 2e 74 65  	<unknown>
       4: 78 74 00 2e  	sltiu	$zero, $16, 0x7478 <.shstrtab+0x7478>
       8: 67 6f 74 00  	<unknown>
       c: 2e 62 73 73  	<unknown>
      10: 00 2e 4d 49  	<unknown>
      14: 50 53 2e 61  	<unknown>
      18: 62 69 66 6c  	<unknown>
      1c: 61 67 73 00  	<unknown>
      20: 2e 72 65 67  	<unknown>
      24: 69 6e 66 6f  	<unknown>
      28: 00 2e 73 68  	<unknown>
      2c: 73 74 72 74  	jalx	0x1c9d1cc <.shstrtab+0x1c9d1cc>
      30: 61 62 00 2e  	sltiu	$zero, $16, 0x6261 <.shstrtab+0x6261>
      34: 72 6f 64 61  	<unknown>
      38: 74 61 00 2e  	sltiu	$zero, $16, 0x6174 <.shstrtab+0x6174>
      3c: 64 61 74 61  	<unknown>
      40: 00           	<unknown>
